                              1 ;--------------------------------------------------------
                              2 ; File Created by SDCC : free open source ANSI-C Compiler
                              3 ; Version 3.5.4 #9329 (Linux)
                              4 ; This file was generated Sat Feb  6 17:26:34 2016
                              5 ;--------------------------------------------------------
                              6 	.module world
                              7 	.optsdcc -mz80
                              8 	
                              9 ;--------------------------------------------------------
                             10 ; Public variables in this module
                             11 ;--------------------------------------------------------
                             12 	.globl _cpct_setSeed_mxor
                             13 	.globl _cpct_getRandom_mxor_u16
                             14 	.globl _cpct_getRandom_mxor_u8
                             15 	.globl _cpct_getRandomUniform_u8_f
                             16 	.globl _cpct_getScreenPtr
                             17 	.globl _cpct_count2VSYNC
                             18 	.globl _cpct_drawSolidBox
                             19 	.globl _cpct_drawSprite
                             20 	.globl _cpct_px2byteM1
                             21 	.globl _cpct_getBit
                             22 	.globl _cpct_memset
                             23 	.globl _drawCursor
                             24 	.globl _patternTile
                             25 	.globl _generateWorld
                             26 	.globl _drawTile
                             27 	.globl _drawScrolls
                             28 	.globl _drawWorld
                             29 ;--------------------------------------------------------
                             30 ; special function registers
                             31 ;--------------------------------------------------------
                             32 ;--------------------------------------------------------
                             33 ; ram data
                             34 ;--------------------------------------------------------
                             35 	.area _DATA
                             36 ;--------------------------------------------------------
                             37 ; ram data
                             38 ;--------------------------------------------------------
                             39 	.area _INITIALIZED
                             40 ;--------------------------------------------------------
                             41 ; absolute external ram data
                             42 ;--------------------------------------------------------
                             43 	.area _DABS (ABS)
                             44 ;--------------------------------------------------------
                             45 ; global & static initialisations
                             46 ;--------------------------------------------------------
                             47 	.area _HOME
                             48 	.area _GSINIT
                             49 	.area _GSFINAL
                             50 	.area _GSINIT
                             51 ;--------------------------------------------------------
                             52 ; Home
                             53 ;--------------------------------------------------------
                             54 	.area _HOME
                             55 	.area _HOME
                             56 ;--------------------------------------------------------
                             57 ; code
                             58 ;--------------------------------------------------------
                             59 	.area _CODE
                             60 ;src/game/world.c:3: void drawCursor(u8 x, u8 y, u8 color)
                             61 ;	---------------------------------
                             62 ; Function drawCursor
                             63 ; ---------------------------------
   0000                      64 _drawCursor::
   0000 DD E5         [15]   65 	push	ix
   0002 DD 21 00 00   [14]   66 	ld	ix,#0
   0006 DD 39         [15]   67 	add	ix,sp
   0008 3B            [ 6]   68 	dec	sp
                             69 ;src/game/world.c:6: p_video = cpct_getScreenPtr(SCR_VMEM, x*TILESIZE_W, y*TILESIZE_H);
   0009 DD 7E 05      [19]   70 	ld	a,5 (ix)
   000C 07            [ 4]   71 	rlca
   000D 07            [ 4]   72 	rlca
   000E 07            [ 4]   73 	rlca
   000F 07            [ 4]   74 	rlca
   0010 E6 F0         [ 7]   75 	and	a,#0xF0
   0012 5F            [ 4]   76 	ld	e,a
   0013 DD 7E 04      [19]   77 	ld	a,4 (ix)
   0016 87            [ 4]   78 	add	a, a
   0017 87            [ 4]   79 	add	a, a
   0018 57            [ 4]   80 	ld	d,a
   0019 D5            [11]   81 	push	de
   001A 7B            [ 4]   82 	ld	a,e
   001B F5            [11]   83 	push	af
   001C 33            [ 6]   84 	inc	sp
   001D D5            [11]   85 	push	de
   001E 33            [ 6]   86 	inc	sp
   001F 21 00 C0      [10]   87 	ld	hl,#0xC000
   0022 E5            [11]   88 	push	hl
   0023 CDr00r00      [17]   89 	call	_cpct_getScreenPtr
   0026 D1            [10]   90 	pop	de
   0027 4D            [ 4]   91 	ld	c, l
   0028 44            [ 4]   92 	ld	b, h
                             93 ;src/game/world.c:8: switch(CURSOR_MODE)
   0029 3E 10         [ 7]   94 	ld	a,#0x10
   002B FD 21r00r00   [14]   95 	ld	iy,#_CURSOR_MODE
   002F FD 96 00      [19]   96 	sub	a, 0 (iy)
   0032 DAr31r02      [10]   97 	jp	C,00119$
   0035 D5            [11]   98 	push	de
   0036 FD 21r00r00   [14]   99 	ld	iy,#_CURSOR_MODE
   003A FD 5E 00      [19]  100 	ld	e,0 (iy)
   003D 16 00         [ 7]  101 	ld	d,#0x00
   003F 21r47r00      [10]  102 	ld	hl,#00125$
   0042 19            [11]  103 	add	hl,de
   0043 19            [11]  104 	add	hl,de
   0044 19            [11]  105 	add	hl,de
   0045 D1            [10]  106 	pop	de
   0046 E9            [ 4]  107 	jp	(hl)
   0047                     108 00125$:
   0047 C3r7Ar00      [10]  109 	jp	00101$
   004A C3r4Cr01      [10]  110 	jp	00102$
   004D C3r5Br01      [10]  111 	jp	00103$
   0050 C3r6Ar01      [10]  112 	jp	00104$
   0053 C3r79r01      [10]  113 	jp	00105$
   0056 C3r88r01      [10]  114 	jp	00106$
   0059 C3r97r01      [10]  115 	jp	00107$
   005C C3rA6r01      [10]  116 	jp	00108$
   005F C3rB5r01      [10]  117 	jp	00109$
   0062 C3rC3r01      [10]  118 	jp	00110$
   0065 C3rD1r01      [10]  119 	jp	00111$
   0068 C3rDFr01      [10]  120 	jp	00112$
   006B C3rEDr01      [10]  121 	jp	00113$
   006E C3rFBr01      [10]  122 	jp	00114$
   0071 C3r09r02      [10]  123 	jp	00115$
   0074 C3r17r02      [10]  124 	jp	00116$
   0077 C3r25r02      [10]  125 	jp	00117$
                            126 ;src/game/world.c:10: case NONE:
   007A                     127 00101$:
                            128 ;src/game/world.c:11: cpct_memset (p_video, cpct_px2byteM1(color,color,color,color), 4);
   007A C5            [11]  129 	push	bc
   007B D5            [11]  130 	push	de
   007C DD 66 06      [19]  131 	ld	h,6 (ix)
   007F DD 6E 06      [19]  132 	ld	l,6 (ix)
   0082 E5            [11]  133 	push	hl
   0083 DD 66 06      [19]  134 	ld	h,6 (ix)
   0086 DD 6E 06      [19]  135 	ld	l,6 (ix)
   0089 E5            [11]  136 	push	hl
   008A CDr00r00      [17]  137 	call	_cpct_px2byteM1
   008D F1            [10]  138 	pop	af
   008E F1            [10]  139 	pop	af
   008F DD 75 FF      [19]  140 	ld	-1 (ix),l
   0092 D1            [10]  141 	pop	de
   0093 C1            [10]  142 	pop	bc
   0094 D5            [11]  143 	push	de
   0095 21 04 00      [10]  144 	ld	hl,#0x0004
   0098 E5            [11]  145 	push	hl
   0099 DD 7E FF      [19]  146 	ld	a,-1 (ix)
   009C F5            [11]  147 	push	af
   009D 33            [ 6]  148 	inc	sp
   009E C5            [11]  149 	push	bc
   009F CDr00r00      [17]  150 	call	_cpct_memset
   00A2 D1            [10]  151 	pop	de
                            152 ;src/game/world.c:12: p_video = cpct_getScreenPtr(SCR_VMEM, x*TILESIZE_W, y*TILESIZE_H+1);
   00A3 63            [ 4]  153 	ld	h,e
   00A4 24            [ 4]  154 	inc	h
   00A5 D5            [11]  155 	push	de
   00A6 E5            [11]  156 	push	hl
   00A7 33            [ 6]  157 	inc	sp
   00A8 D5            [11]  158 	push	de
   00A9 33            [ 6]  159 	inc	sp
   00AA 21 00 C0      [10]  160 	ld	hl,#0xC000
   00AD E5            [11]  161 	push	hl
   00AE CDr00r00      [17]  162 	call	_cpct_getScreenPtr
   00B1 D1            [10]  163 	pop	de
                            164 ;src/game/world.c:13: cpct_memset (p_video, cpct_px2byteM1(color,color,color,color), 4);
   00B2 E5            [11]  165 	push	hl
   00B3 D5            [11]  166 	push	de
   00B4 DD 66 06      [19]  167 	ld	h,6 (ix)
   00B7 DD 6E 06      [19]  168 	ld	l,6 (ix)
   00BA E5            [11]  169 	push	hl
   00BB DD 66 06      [19]  170 	ld	h,6 (ix)
   00BE DD 6E 06      [19]  171 	ld	l,6 (ix)
   00C1 E5            [11]  172 	push	hl
   00C2 CDr00r00      [17]  173 	call	_cpct_px2byteM1
   00C5 F1            [10]  174 	pop	af
   00C6 F1            [10]  175 	pop	af
   00C7 5D            [ 4]  176 	ld	e,l
   00C8 F1            [10]  177 	pop	af
   00C9 57            [ 4]  178 	ld	d,a
   00CA C1            [10]  179 	pop	bc
   00CB D5            [11]  180 	push	de
   00CC 21 04 00      [10]  181 	ld	hl,#0x0004
   00CF E5            [11]  182 	push	hl
   00D0 7B            [ 4]  183 	ld	a,e
   00D1 F5            [11]  184 	push	af
   00D2 33            [ 6]  185 	inc	sp
   00D3 C5            [11]  186 	push	bc
   00D4 CDr00r00      [17]  187 	call	_cpct_memset
   00D7 D1            [10]  188 	pop	de
                            189 ;src/game/world.c:16: p_video = cpct_getScreenPtr(SCR_VMEM, x*TILESIZE_W, (y+1)*TILESIZE_H-1);
   00D8 DD 7E 05      [19]  190 	ld	a,5 (ix)
   00DB 3C            [ 4]  191 	inc	a
   00DC 07            [ 4]  192 	rlca
   00DD 07            [ 4]  193 	rlca
   00DE 07            [ 4]  194 	rlca
   00DF 07            [ 4]  195 	rlca
   00E0 E6 F0         [ 7]  196 	and	a,#0xF0
   00E2 5F            [ 4]  197 	ld	e,a
   00E3 63            [ 4]  198 	ld	h,e
   00E4 25            [ 4]  199 	dec	h
   00E5 D5            [11]  200 	push	de
   00E6 E5            [11]  201 	push	hl
   00E7 33            [ 6]  202 	inc	sp
   00E8 D5            [11]  203 	push	de
   00E9 33            [ 6]  204 	inc	sp
   00EA 21 00 C0      [10]  205 	ld	hl,#0xC000
   00ED E5            [11]  206 	push	hl
   00EE CDr00r00      [17]  207 	call	_cpct_getScreenPtr
   00F1 D1            [10]  208 	pop	de
                            209 ;src/game/world.c:17: cpct_memset (p_video, cpct_px2byteM1(color,color,color,color), 4);
   00F2 E5            [11]  210 	push	hl
   00F3 D5            [11]  211 	push	de
   00F4 DD 66 06      [19]  212 	ld	h,6 (ix)
   00F7 DD 6E 06      [19]  213 	ld	l,6 (ix)
   00FA E5            [11]  214 	push	hl
   00FB DD 66 06      [19]  215 	ld	h,6 (ix)
   00FE DD 6E 06      [19]  216 	ld	l,6 (ix)
   0101 E5            [11]  217 	push	hl
   0102 CDr00r00      [17]  218 	call	_cpct_px2byteM1
   0105 F1            [10]  219 	pop	af
   0106 F1            [10]  220 	pop	af
   0107 DD 75 FF      [19]  221 	ld	-1 (ix),l
   010A D1            [10]  222 	pop	de
   010B C1            [10]  223 	pop	bc
   010C D5            [11]  224 	push	de
   010D 21 04 00      [10]  225 	ld	hl,#0x0004
   0110 E5            [11]  226 	push	hl
   0111 DD 7E FF      [19]  227 	ld	a,-1 (ix)
   0114 F5            [11]  228 	push	af
   0115 33            [ 6]  229 	inc	sp
   0116 C5            [11]  230 	push	bc
   0117 CDr00r00      [17]  231 	call	_cpct_memset
   011A D1            [10]  232 	pop	de
                            233 ;src/game/world.c:18: p_video = cpct_getScreenPtr(SCR_VMEM, x*TILESIZE_W, (y+1)*TILESIZE_H-2);
   011B 63            [ 4]  234 	ld	h,e
   011C 25            [ 4]  235 	dec	h
   011D 25            [ 4]  236 	dec	h
   011E E5            [11]  237 	push	hl
   011F 33            [ 6]  238 	inc	sp
   0120 D5            [11]  239 	push	de
   0121 33            [ 6]  240 	inc	sp
   0122 21 00 C0      [10]  241 	ld	hl,#0xC000
   0125 E5            [11]  242 	push	hl
   0126 CDr00r00      [17]  243 	call	_cpct_getScreenPtr
                            244 ;src/game/world.c:19: cpct_memset (p_video, cpct_px2byteM1(color,color,color,color), 4);
   0129 E5            [11]  245 	push	hl
   012A DD 66 06      [19]  246 	ld	h,6 (ix)
   012D DD 6E 06      [19]  247 	ld	l,6 (ix)
   0130 E5            [11]  248 	push	hl
   0131 DD 66 06      [19]  249 	ld	h,6 (ix)
   0134 DD 6E 06      [19]  250 	ld	l,6 (ix)
   0137 E5            [11]  251 	push	hl
   0138 CDr00r00      [17]  252 	call	_cpct_px2byteM1
   013B F1            [10]  253 	pop	af
   013C F1            [10]  254 	pop	af
   013D 65            [ 4]  255 	ld	h,l
   013E D1            [10]  256 	pop	de
   013F 01 04 00      [10]  257 	ld	bc,#0x0004
   0142 C5            [11]  258 	push	bc
   0143 E5            [11]  259 	push	hl
   0144 33            [ 6]  260 	inc	sp
   0145 D5            [11]  261 	push	de
   0146 CDr00r00      [17]  262 	call	_cpct_memset
                            263 ;src/game/world.c:20: break;
   0149 C3r31r02      [10]  264 	jp	00119$
                            265 ;src/game/world.c:21: case T_SSNS:
   014C                     266 00102$:
                            267 ;src/game/world.c:22: cpct_drawSprite(station_small_ns, p_video, TILESIZE_W, TILESIZE_H);
   014C 11r00r00      [10]  268 	ld	de,#_station_small_ns
   014F 21 04 10      [10]  269 	ld	hl,#0x1004
   0152 E5            [11]  270 	push	hl
   0153 C5            [11]  271 	push	bc
   0154 D5            [11]  272 	push	de
   0155 CDr00r00      [17]  273 	call	_cpct_drawSprite
                            274 ;src/game/world.c:23: break;
   0158 C3r31r02      [10]  275 	jp	00119$
                            276 ;src/game/world.c:24: case T_SSEW:
   015B                     277 00103$:
                            278 ;src/game/world.c:25: cpct_drawSprite(station_small_ew, p_video, TILESIZE_W, TILESIZE_H);
   015B 11r00r00      [10]  279 	ld	de,#_station_small_ew
   015E 21 04 10      [10]  280 	ld	hl,#0x1004
   0161 E5            [11]  281 	push	hl
   0162 C5            [11]  282 	push	bc
   0163 D5            [11]  283 	push	de
   0164 CDr00r00      [17]  284 	call	_cpct_drawSprite
                            285 ;src/game/world.c:26: break;
   0167 C3r31r02      [10]  286 	jp	00119$
                            287 ;src/game/world.c:27: case T_SMNS:
   016A                     288 00104$:
                            289 ;src/game/world.c:28: cpct_drawSprite(station_medium_ns, p_video, TILESIZE_W, TILESIZE_H);
   016A 11r00r00      [10]  290 	ld	de,#_station_medium_ns
   016D 21 04 10      [10]  291 	ld	hl,#0x1004
   0170 E5            [11]  292 	push	hl
   0171 C5            [11]  293 	push	bc
   0172 D5            [11]  294 	push	de
   0173 CDr00r00      [17]  295 	call	_cpct_drawSprite
                            296 ;src/game/world.c:29: break;
   0176 C3r31r02      [10]  297 	jp	00119$
                            298 ;src/game/world.c:30: case T_SMEW:
   0179                     299 00105$:
                            300 ;src/game/world.c:31: cpct_drawSprite(station_medium_ew, p_video, TILESIZE_W, TILESIZE_H);
   0179 11r00r00      [10]  301 	ld	de,#_station_medium_ew
   017C 21 04 10      [10]  302 	ld	hl,#0x1004
   017F E5            [11]  303 	push	hl
   0180 C5            [11]  304 	push	bc
   0181 D5            [11]  305 	push	de
   0182 CDr00r00      [17]  306 	call	_cpct_drawSprite
                            307 ;src/game/world.c:32: break;
   0185 C3r31r02      [10]  308 	jp	00119$
                            309 ;src/game/world.c:33: case T_SLNS:
   0188                     310 00106$:
                            311 ;src/game/world.c:34: cpct_drawSprite(station_large_ns, p_video, TILESIZE_W, TILESIZE_H);
   0188 11r00r00      [10]  312 	ld	de,#_station_large_ns
   018B 21 04 10      [10]  313 	ld	hl,#0x1004
   018E E5            [11]  314 	push	hl
   018F C5            [11]  315 	push	bc
   0190 D5            [11]  316 	push	de
   0191 CDr00r00      [17]  317 	call	_cpct_drawSprite
                            318 ;src/game/world.c:35: break;
   0194 C3r31r02      [10]  319 	jp	00119$
                            320 ;src/game/world.c:36: case T_SLEW:
   0197                     321 00107$:
                            322 ;src/game/world.c:37: cpct_drawSprite(station_large_ew, p_video, TILESIZE_W, TILESIZE_H);
   0197 11r00r00      [10]  323 	ld	de,#_station_large_ew
   019A 21 04 10      [10]  324 	ld	hl,#0x1004
   019D E5            [11]  325 	push	hl
   019E C5            [11]  326 	push	bc
   019F D5            [11]  327 	push	de
   01A0 CDr00r00      [17]  328 	call	_cpct_drawSprite
                            329 ;src/game/world.c:38: break;
   01A3 C3r31r02      [10]  330 	jp	00119$
                            331 ;src/game/world.c:39: case T_REW:
   01A6                     332 00108$:
                            333 ;src/game/world.c:40: cpct_drawSprite(rail_ew, p_video, TILESIZE_W, TILESIZE_H);	
   01A6 11r00r00      [10]  334 	ld	de,#_rail_ew
   01A9 21 04 10      [10]  335 	ld	hl,#0x1004
   01AC E5            [11]  336 	push	hl
   01AD C5            [11]  337 	push	bc
   01AE D5            [11]  338 	push	de
   01AF CDr00r00      [17]  339 	call	_cpct_drawSprite
                            340 ;src/game/world.c:41: break;
   01B2 C3r31r02      [10]  341 	jp	00119$
                            342 ;src/game/world.c:42: case T_RNS:
   01B5                     343 00109$:
                            344 ;src/game/world.c:43: cpct_drawSprite(rail_ns, p_video, TILESIZE_W, TILESIZE_H);	
   01B5 11r00r00      [10]  345 	ld	de,#_rail_ns
   01B8 21 04 10      [10]  346 	ld	hl,#0x1004
   01BB E5            [11]  347 	push	hl
   01BC C5            [11]  348 	push	bc
   01BD D5            [11]  349 	push	de
   01BE CDr00r00      [17]  350 	call	_cpct_drawSprite
                            351 ;src/game/world.c:44: break;
   01C1 18 6E         [12]  352 	jr	00119$
                            353 ;src/game/world.c:45: case T_REN:
   01C3                     354 00110$:
                            355 ;src/game/world.c:46: cpct_drawSprite(rail_en, p_video, TILESIZE_W, TILESIZE_H);	
   01C3 11r00r00      [10]  356 	ld	de,#_rail_en
   01C6 21 04 10      [10]  357 	ld	hl,#0x1004
   01C9 E5            [11]  358 	push	hl
   01CA C5            [11]  359 	push	bc
   01CB D5            [11]  360 	push	de
   01CC CDr00r00      [17]  361 	call	_cpct_drawSprite
                            362 ;src/game/world.c:47: break;
   01CF 18 60         [12]  363 	jr	00119$
                            364 ;src/game/world.c:48: case T_RES:
   01D1                     365 00111$:
                            366 ;src/game/world.c:49: cpct_drawSprite(rail_es, p_video, TILESIZE_W, TILESIZE_H);	
   01D1 11r00r00      [10]  367 	ld	de,#_rail_es
   01D4 21 04 10      [10]  368 	ld	hl,#0x1004
   01D7 E5            [11]  369 	push	hl
   01D8 C5            [11]  370 	push	bc
   01D9 D5            [11]  371 	push	de
   01DA CDr00r00      [17]  372 	call	_cpct_drawSprite
                            373 ;src/game/world.c:50: break;
   01DD 18 52         [12]  374 	jr	00119$
                            375 ;src/game/world.c:51: case T_RWN:
   01DF                     376 00112$:
                            377 ;src/game/world.c:52: cpct_drawSprite(rail_wn, p_video, TILESIZE_W, TILESIZE_H);	
   01DF 11r00r00      [10]  378 	ld	de,#_rail_wn
   01E2 21 04 10      [10]  379 	ld	hl,#0x1004
   01E5 E5            [11]  380 	push	hl
   01E6 C5            [11]  381 	push	bc
   01E7 D5            [11]  382 	push	de
   01E8 CDr00r00      [17]  383 	call	_cpct_drawSprite
                            384 ;src/game/world.c:53: break;
   01EB 18 44         [12]  385 	jr	00119$
                            386 ;src/game/world.c:54: case T_RWS:
   01ED                     387 00113$:
                            388 ;src/game/world.c:55: cpct_drawSprite(rail_ws, p_video, TILESIZE_W, TILESIZE_H);	
   01ED 11r00r00      [10]  389 	ld	de,#_rail_ws
   01F0 21 04 10      [10]  390 	ld	hl,#0x1004
   01F3 E5            [11]  391 	push	hl
   01F4 C5            [11]  392 	push	bc
   01F5 D5            [11]  393 	push	de
   01F6 CDr00r00      [17]  394 	call	_cpct_drawSprite
                            395 ;src/game/world.c:56: break;
   01F9 18 36         [12]  396 	jr	00119$
                            397 ;src/game/world.c:57: case T_REWN:
   01FB                     398 00114$:
                            399 ;src/game/world.c:58: cpct_drawSprite(rail_ew_n, p_video, TILESIZE_W, TILESIZE_H);	
   01FB 11r00r00      [10]  400 	ld	de,#_rail_ew_n
   01FE 21 04 10      [10]  401 	ld	hl,#0x1004
   0201 E5            [11]  402 	push	hl
   0202 C5            [11]  403 	push	bc
   0203 D5            [11]  404 	push	de
   0204 CDr00r00      [17]  405 	call	_cpct_drawSprite
                            406 ;src/game/world.c:59: break;
   0207 18 28         [12]  407 	jr	00119$
                            408 ;src/game/world.c:60: case T_REWS:
   0209                     409 00115$:
                            410 ;src/game/world.c:61: cpct_drawSprite(rail_ew_s, p_video, TILESIZE_W, TILESIZE_H);	
   0209 11r00r00      [10]  411 	ld	de,#_rail_ew_s
   020C 21 04 10      [10]  412 	ld	hl,#0x1004
   020F E5            [11]  413 	push	hl
   0210 C5            [11]  414 	push	bc
   0211 D5            [11]  415 	push	de
   0212 CDr00r00      [17]  416 	call	_cpct_drawSprite
                            417 ;src/game/world.c:62: break;
   0215 18 1A         [12]  418 	jr	00119$
                            419 ;src/game/world.c:63: case T_RNSE:
   0217                     420 00116$:
                            421 ;src/game/world.c:64: cpct_drawSprite(rail_ns_e, p_video, TILESIZE_W, TILESIZE_H);	
   0217 11r00r00      [10]  422 	ld	de,#_rail_ns_e
   021A 21 04 10      [10]  423 	ld	hl,#0x1004
   021D E5            [11]  424 	push	hl
   021E C5            [11]  425 	push	bc
   021F D5            [11]  426 	push	de
   0220 CDr00r00      [17]  427 	call	_cpct_drawSprite
                            428 ;src/game/world.c:65: break;
   0223 18 0C         [12]  429 	jr	00119$
                            430 ;src/game/world.c:66: case T_RNSW:
   0225                     431 00117$:
                            432 ;src/game/world.c:67: cpct_drawSprite(rail_ns_w, p_video, TILESIZE_W, TILESIZE_H);
   0225 11r00r00      [10]  433 	ld	de,#_rail_ns_w
   0228 21 04 10      [10]  434 	ld	hl,#0x1004
   022B E5            [11]  435 	push	hl
   022C C5            [11]  436 	push	bc
   022D D5            [11]  437 	push	de
   022E CDr00r00      [17]  438 	call	_cpct_drawSprite
                            439 ;src/game/world.c:69: }
   0231                     440 00119$:
   0231 33            [ 6]  441 	inc	sp
   0232 DD E1         [14]  442 	pop	ix
   0234 C9            [10]  443 	ret
                            444 ;src/game/world.c:72: void patternTile(u8 tileType, int index, u8 nBitsX, u8 nBitsY, u8 *pattern)
                            445 ;	---------------------------------
                            446 ; Function patternTile
                            447 ; ---------------------------------
   0235                     448 _patternTile::
   0235 DD E5         [15]  449 	push	ix
   0237 DD 21 00 00   [14]  450 	ld	ix,#0
   023B DD 39         [15]  451 	add	ix,sp
   023D 21 F5 FF      [10]  452 	ld	hl,#-11
   0240 39            [11]  453 	add	hl,sp
   0241 F9            [ 6]  454 	ld	sp,hl
                            455 ;src/game/world.c:77: for(iy=0; iy<nBitsY; iy++)
   0242 DD 7E 04      [19]  456 	ld	a,4 (ix)
   0245 D6 08         [ 7]  457 	sub	a, #0x08
   0247 20 04         [12]  458 	jr	NZ,00153$
   0249 3E 01         [ 7]  459 	ld	a,#0x01
   024B 18 01         [12]  460 	jr	00154$
   024D                     461 00153$:
   024D AF            [ 4]  462 	xor	a,a
   024E                     463 00154$:
   024E DD 77 FA      [19]  464 	ld	-6 (ix),a
   0251 DD 7E 04      [19]  465 	ld	a,4 (ix)
   0254 D6 02         [ 7]  466 	sub	a, #0x02
   0256 20 04         [12]  467 	jr	NZ,00155$
   0258 3E 01         [ 7]  468 	ld	a,#0x01
   025A 18 01         [12]  469 	jr	00156$
   025C                     470 00155$:
   025C AF            [ 4]  471 	xor	a,a
   025D                     472 00156$:
   025D DD 77 F9      [19]  473 	ld	-7 (ix),a
   0260 DD 36 F5 00   [19]  474 	ld	-11 (ix),#0x00
   0264 11 00 00      [10]  475 	ld	de,#0x0000
   0267                     476 00115$:
   0267 DD 7E F5      [19]  477 	ld	a,-11 (ix)
   026A DD 96 08      [19]  478 	sub	a, 8 (ix)
   026D D2r2Dr03      [10]  479 	jp	NC,00117$
                            480 ;src/game/world.c:79: for(ix=0; ix<nBitsX; ix++)
   0270 DD 7E 05      [19]  481 	ld	a,5 (ix)
   0273 83            [ 4]  482 	add	a, e
   0274 DD 77 F7      [19]  483 	ld	-9 (ix),a
   0277 DD 7E 06      [19]  484 	ld	a,6 (ix)
   027A 8A            [ 4]  485 	adc	a, d
   027B DD 77 F8      [19]  486 	ld	-8 (ix),a
   027E D5            [11]  487 	push	de
   027F DD 5E 07      [19]  488 	ld	e,7 (ix)
   0282 DD 66 F5      [19]  489 	ld	h,-11 (ix)
   0285 2E 00         [ 7]  490 	ld	l, #0x00
   0287 55            [ 4]  491 	ld	d, l
   0288 06 08         [ 7]  492 	ld	b, #0x08
   028A                     493 00157$:
   028A 29            [11]  494 	add	hl,hl
   028B 30 01         [12]  495 	jr	NC,00158$
   028D 19            [11]  496 	add	hl,de
   028E                     497 00158$:
   028E 10 FA         [13]  498 	djnz	00157$
   0290 D1            [10]  499 	pop	de
   0291 DD 75 FE      [19]  500 	ld	-2 (ix),l
   0294 DD 74 FF      [19]  501 	ld	-1 (ix),h
   0297 DD 36 F6 00   [19]  502 	ld	-10 (ix),#0x00
   029B                     503 00112$:
   029B DD 7E F6      [19]  504 	ld	a,-10 (ix)
   029E DD 96 07      [19]  505 	sub	a, 7 (ix)
   02A1 D2r22r03      [10]  506 	jp	NC,00116$
                            507 ;src/game/world.c:81: if(cpct_getBit (pattern, iy*nBitsX+ix)!=0 && index+iy*WIDTH+ix < WIDTH*HEIGHT)
   02A4 DD 7E F6      [19]  508 	ld	a,-10 (ix)
   02A7 DD 77 FC      [19]  509 	ld	-4 (ix),a
   02AA DD 36 FD 00   [19]  510 	ld	-3 (ix),#0x00
   02AE DD 7E FE      [19]  511 	ld	a,-2 (ix)
   02B1 DD 86 FC      [19]  512 	add	a, -4 (ix)
   02B4 6F            [ 4]  513 	ld	l,a
   02B5 DD 7E FF      [19]  514 	ld	a,-1 (ix)
   02B8 DD 8E FD      [19]  515 	adc	a, -3 (ix)
   02BB 67            [ 4]  516 	ld	h,a
   02BC DD 4E 09      [19]  517 	ld	c,9 (ix)
   02BF DD 46 0A      [19]  518 	ld	b,10 (ix)
   02C2 D5            [11]  519 	push	de
   02C3 E5            [11]  520 	push	hl
   02C4 C5            [11]  521 	push	bc
   02C5 CDr00r00      [17]  522 	call	_cpct_getBit
   02C8 DD 75 FB      [19]  523 	ld	-5 (ix),l
   02CB D1            [10]  524 	pop	de
   02CC DD 7E FB      [19]  525 	ld	a,-5 (ix)
   02CF B7            [ 4]  526 	or	a, a
   02D0 28 4A         [12]  527 	jr	Z,00113$
   02D2 DD 7E F7      [19]  528 	ld	a,-9 (ix)
   02D5 DD 86 FC      [19]  529 	add	a, -4 (ix)
   02D8 4F            [ 4]  530 	ld	c,a
   02D9 DD 7E F8      [19]  531 	ld	a,-8 (ix)
   02DC DD 8E FD      [19]  532 	adc	a, -3 (ix)
   02DF 47            [ 4]  533 	ld	b,a
   02E0 EE 80         [ 7]  534 	xor	a, #0x80
   02E2 D6 8F         [ 7]  535 	sub	a, #0x8F
   02E4 30 36         [12]  536 	jr	NC,00113$
                            537 ;src/game/world.c:84: p_world[index+iy*WIDTH+ix] = tileType;
   02E6 21r00r00      [10]  538 	ld	hl,#_p_world
   02E9 09            [11]  539 	add	hl,bc
   02EA 4D            [ 4]  540 	ld	c,l
   02EB 44            [ 4]  541 	ld	b,h
                            542 ;src/game/world.c:83: if(tileType == FOREST)
   02EC DD 7E FA      [19]  543 	ld	a,-6 (ix)
   02EF B7            [ 4]  544 	or	a, a
   02F0 28 06         [12]  545 	jr	Z,00104$
                            546 ;src/game/world.c:84: p_world[index+iy*WIDTH+ix] = tileType;
   02F2 DD 7E 04      [19]  547 	ld	a,4 (ix)
   02F5 02            [ 7]  548 	ld	(bc),a
   02F6 18 24         [12]  549 	jr	00113$
   02F8                     550 00104$:
                            551 ;src/game/world.c:85: else if(tileType==DWELLINGS1)
   02F8 DD 7E F9      [19]  552 	ld	a,-7 (ix)
   02FB B7            [ 4]  553 	or	a, a
   02FC 28 1E         [12]  554 	jr	Z,00113$
                            555 ;src/game/world.c:86: p_world[index+iy*WIDTH+ix] = (u8)cpct_getRandomUniform_u8_f(cpct_count2VSYNC ()%256)%3+2;
   02FE C5            [11]  556 	push	bc
   02FF D5            [11]  557 	push	de
   0300 CDr00r00      [17]  558 	call	_cpct_count2VSYNC
   0303 CDr00r00      [17]  559 	call	_cpct_getRandomUniform_u8_f
   0306 DD 75 FB      [19]  560 	ld	-5 (ix),l
   0309 3E 03         [ 7]  561 	ld	a,#0x03
   030B F5            [11]  562 	push	af
   030C 33            [ 6]  563 	inc	sp
   030D DD 7E FB      [19]  564 	ld	a,-5 (ix)
   0310 F5            [11]  565 	push	af
   0311 33            [ 6]  566 	inc	sp
   0312 CDr00r00      [17]  567 	call	__moduchar
   0315 F1            [10]  568 	pop	af
   0316 7D            [ 4]  569 	ld	a,l
   0317 D1            [10]  570 	pop	de
   0318 C1            [10]  571 	pop	bc
   0319 C6 02         [ 7]  572 	add	a, #0x02
   031B 02            [ 7]  573 	ld	(bc),a
   031C                     574 00113$:
                            575 ;src/game/world.c:79: for(ix=0; ix<nBitsX; ix++)
   031C DD 34 F6      [23]  576 	inc	-10 (ix)
   031F C3r9Br02      [10]  577 	jp	00112$
   0322                     578 00116$:
                            579 ;src/game/world.c:77: for(iy=0; iy<nBitsY; iy++)
   0322 21 50 00      [10]  580 	ld	hl,#0x0050
   0325 19            [11]  581 	add	hl,de
   0326 EB            [ 4]  582 	ex	de,hl
   0327 DD 34 F5      [23]  583 	inc	-11 (ix)
   032A C3r67r02      [10]  584 	jp	00115$
   032D                     585 00117$:
   032D DD F9         [10]  586 	ld	sp, ix
   032F DD E1         [14]  587 	pop	ix
   0331 C9            [10]  588 	ret
                            589 ;src/game/world.c:93: void generateWorld()
                            590 ;	---------------------------------
                            591 ; Function generateWorld
                            592 ; ---------------------------------
   0332                     593 _generateWorld::
   0332 DD E5         [15]  594 	push	ix
   0334 DD 21 00 00   [14]  595 	ld	ix,#0
   0338 DD 39         [15]  596 	add	ix,sp
   033A 21 E5 FF      [10]  597 	ld	hl,#-27
   033D 39            [11]  598 	add	hl,sp
   033E F9            [ 6]  599 	ld	sp,hl
                            600 ;src/game/world.c:101: cpct_srand((u32)cpct_count2VSYNC());
   033F CDr00r00      [17]  601 	call	_cpct_count2VSYNC
   0342 11 00 00      [10]  602 	ld	de,#0x0000
   0345 CDr00r00      [17]  603 	call	_cpct_setSeed_mxor
                            604 ;src/game/world.c:105: for(iy=0; iy<HEIGHT*WIDTH;iy++)
   0348 11 00 00      [10]  605 	ld	de,#0x0000
   034B                     606 00119$:
                            607 ;src/game/world.c:107: p_world[iy] = cpct_rand()%2;
   034B 21r00r00      [10]  608 	ld	hl,#_p_world
   034E 19            [11]  609 	add	hl,de
   034F E5            [11]  610 	push	hl
   0350 D5            [11]  611 	push	de
   0351 CDr00r00      [17]  612 	call	_cpct_getRandom_mxor_u8
   0354 7D            [ 4]  613 	ld	a,l
   0355 D1            [10]  614 	pop	de
   0356 E1            [10]  615 	pop	hl
   0357 E6 01         [ 7]  616 	and	a, #0x01
   0359 77            [ 7]  617 	ld	(hl),a
                            618 ;src/game/world.c:105: for(iy=0; iy<HEIGHT*WIDTH;iy++)
   035A 13            [ 6]  619 	inc	de
   035B 7A            [ 4]  620 	ld	a,d
   035C EE 80         [ 7]  621 	xor	a, #0x80
   035E D6 8F         [ 7]  622 	sub	a, #0x8F
   0360 38 E9         [12]  623 	jr	C,00119$
                            624 ;src/game/world.c:111: for(ix=0; ix<NBFOREST; ix++)
   0362 21 04 00      [10]  625 	ld	hl,#0x0004
   0365 39            [11]  626 	add	hl,sp
   0366 DD 75 F1      [19]  627 	ld	-15 (ix),l
   0369 DD 74 F2      [19]  628 	ld	-14 (ix),h
   036C 01 00 00      [10]  629 	ld	bc,#0x0000
   036F                     630 00121$:
                            631 ;src/game/world.c:113: iy = cpct_rand16()%(WIDTH*HEIGHT);
   036F C5            [11]  632 	push	bc
   0370 CDr00r00      [17]  633 	call	_cpct_getRandom_mxor_u16
   0373 11 00 0F      [10]  634 	ld	de,#0x0F00
   0376 D5            [11]  635 	push	de
   0377 E5            [11]  636 	push	hl
   0378 CDr00r00      [17]  637 	call	__moduint
   037B F1            [10]  638 	pop	af
   037C F1            [10]  639 	pop	af
   037D C1            [10]  640 	pop	bc
   037E DD 75 F3      [19]  641 	ld	-13 (ix),l
   0381 DD 74 F4      [19]  642 	ld	-12 (ix),h
                            643 ;src/game/world.c:115: switch(cpct_rand()%4)
   0384 C5            [11]  644 	push	bc
   0385 CDr00r00      [17]  645 	call	_cpct_getRandom_mxor_u8
   0388 7D            [ 4]  646 	ld	a,l
   0389 C1            [10]  647 	pop	bc
   038A E6 03         [ 7]  648 	and	a, #0x03
   038C DD 77 F9      [19]  649 	ld	-7 (ix),a
   038F 3E 03         [ 7]  650 	ld	a,#0x03
   0391 DD 96 F9      [19]  651 	sub	a, -7 (ix)
   0394 DArF8r04      [10]  652 	jp	C,00106$
                            653 ;src/game/world.c:119: p_forest[1] = 0b11000111;
   0397 E5            [11]  654 	push	hl
   0398 DD 6E F1      [19]  655 	ld	l,-15 (ix)
   039B DD 66 F2      [19]  656 	ld	h,-14 (ix)
   039E 23            [ 6]  657 	inc	hl
   039F E5            [11]  658 	push	hl
   03A0 FD E1         [14]  659 	pop	iy
   03A2 E1            [10]  660 	pop	hl
                            661 ;src/game/world.c:120: p_forest[2] = 0b11011110;
   03A3 DD 5E F1      [19]  662 	ld	e,-15 (ix)
   03A6 DD 56 F2      [19]  663 	ld	d,-14 (ix)
   03A9 13            [ 6]  664 	inc	de
   03AA 13            [ 6]  665 	inc	de
                            666 ;src/game/world.c:121: p_forest[3] = 0b01111110;
   03AB DD 7E F1      [19]  667 	ld	a,-15 (ix)
   03AE C6 03         [ 7]  668 	add	a, #0x03
   03B0 DD 77 F7      [19]  669 	ld	-9 (ix),a
   03B3 DD 7E F2      [19]  670 	ld	a,-14 (ix)
   03B6 CE 00         [ 7]  671 	adc	a, #0x00
   03B8 DD 77 F8      [19]  672 	ld	-8 (ix),a
                            673 ;src/game/world.c:122: p_forest[4] = 0b11111110; 
   03BB DD 7E F1      [19]  674 	ld	a,-15 (ix)
   03BE C6 04         [ 7]  675 	add	a, #0x04
   03C0 DD 77 FA      [19]  676 	ld	-6 (ix),a
   03C3 DD 7E F2      [19]  677 	ld	a,-14 (ix)
   03C6 CE 00         [ 7]  678 	adc	a, #0x00
   03C8 DD 77 FB      [19]  679 	ld	-5 (ix),a
                            680 ;src/game/world.c:123: p_forest[5] = 0b01111111;
   03CB DD 7E F1      [19]  681 	ld	a,-15 (ix)
   03CE C6 05         [ 7]  682 	add	a, #0x05
   03D0 DD 77 F5      [19]  683 	ld	-11 (ix),a
   03D3 DD 7E F2      [19]  684 	ld	a,-14 (ix)
   03D6 CE 00         [ 7]  685 	adc	a, #0x00
   03D8 DD 77 F6      [19]  686 	ld	-10 (ix),a
                            687 ;src/game/world.c:124: p_forest[6] = 0b11101111;
   03DB DD 7E F1      [19]  688 	ld	a,-15 (ix)
   03DE C6 06         [ 7]  689 	add	a, #0x06
   03E0 DD 77 FE      [19]  690 	ld	-2 (ix),a
   03E3 DD 7E F2      [19]  691 	ld	a,-14 (ix)
   03E6 CE 00         [ 7]  692 	adc	a, #0x00
   03E8 DD 77 FF      [19]  693 	ld	-1 (ix),a
                            694 ;src/game/world.c:125: p_forest[7] = 0b11001111;
   03EB DD 7E F1      [19]  695 	ld	a,-15 (ix)
   03EE C6 07         [ 7]  696 	add	a, #0x07
   03F0 DD 77 FC      [19]  697 	ld	-4 (ix),a
   03F3 DD 7E F2      [19]  698 	ld	a,-14 (ix)
   03F6 CE 00         [ 7]  699 	adc	a, #0x00
   03F8 DD 77 FD      [19]  700 	ld	-3 (ix),a
                            701 ;src/game/world.c:115: switch(cpct_rand()%4)
   03FB D5            [11]  702 	push	de
   03FC DD 5E F9      [19]  703 	ld	e,-7 (ix)
   03FF 16 00         [ 7]  704 	ld	d,#0x00
   0401 21r09r04      [10]  705 	ld	hl,#00195$
   0404 19            [11]  706 	add	hl,de
   0405 19            [11]  707 	add	hl,de
   0406 19            [11]  708 	add	hl,de
   0407 D1            [10]  709 	pop	de
   0408 E9            [ 4]  710 	jp	(hl)
   0409                     711 00195$:
   0409 C3r15r04      [10]  712 	jp	00102$
   040C C3r4Fr04      [10]  713 	jp	00103$
   040F C3r88r04      [10]  714 	jp	00104$
   0412 C3rC1r04      [10]  715 	jp	00105$
                            716 ;src/game/world.c:117: case 0:
   0415                     717 00102$:
                            718 ;src/game/world.c:118: p_forest[0] = 0b10000100;
   0415 DD 6E F1      [19]  719 	ld	l,-15 (ix)
   0418 DD 66 F2      [19]  720 	ld	h,-14 (ix)
   041B 36 84         [10]  721 	ld	(hl),#0x84
                            722 ;src/game/world.c:119: p_forest[1] = 0b11000111;
   041D FD 36 00 C7   [19]  723 	ld	0 (iy), #0xC7
                            724 ;src/game/world.c:120: p_forest[2] = 0b11011110;
   0421 3E DE         [ 7]  725 	ld	a,#0xDE
   0423 12            [ 7]  726 	ld	(de),a
                            727 ;src/game/world.c:121: p_forest[3] = 0b01111110;
   0424 DD 6E F7      [19]  728 	ld	l,-9 (ix)
   0427 DD 66 F8      [19]  729 	ld	h,-8 (ix)
   042A 36 7E         [10]  730 	ld	(hl),#0x7E
                            731 ;src/game/world.c:122: p_forest[4] = 0b11111110; 
   042C DD 6E FA      [19]  732 	ld	l,-6 (ix)
   042F DD 66 FB      [19]  733 	ld	h,-5 (ix)
   0432 36 FE         [10]  734 	ld	(hl),#0xFE
                            735 ;src/game/world.c:123: p_forest[5] = 0b01111111;
   0434 DD 6E F5      [19]  736 	ld	l,-11 (ix)
   0437 DD 66 F6      [19]  737 	ld	h,-10 (ix)
   043A 36 7F         [10]  738 	ld	(hl),#0x7F
                            739 ;src/game/world.c:124: p_forest[6] = 0b11101111;
   043C DD 6E FE      [19]  740 	ld	l,-2 (ix)
   043F DD 66 FF      [19]  741 	ld	h,-1 (ix)
   0442 36 EF         [10]  742 	ld	(hl),#0xEF
                            743 ;src/game/world.c:125: p_forest[7] = 0b11001111;
   0444 DD 6E FC      [19]  744 	ld	l,-4 (ix)
   0447 DD 66 FD      [19]  745 	ld	h,-3 (ix)
   044A 36 CF         [10]  746 	ld	(hl),#0xCF
                            747 ;src/game/world.c:126: break;
   044C C3rF8r04      [10]  748 	jp	00106$
                            749 ;src/game/world.c:127: case 1:
   044F                     750 00103$:
                            751 ;src/game/world.c:128: p_forest[0] = 0b00001100;
   044F DD 6E F1      [19]  752 	ld	l,-15 (ix)
   0452 DD 66 F2      [19]  753 	ld	h,-14 (ix)
   0455 36 0C         [10]  754 	ld	(hl),#0x0C
                            755 ;src/game/world.c:129: p_forest[1] = 0b11111000;
   0457 FD 36 00 F8   [19]  756 	ld	0 (iy), #0xF8
                            757 ;src/game/world.c:130: p_forest[2] = 0b00111111;
   045B 3E 3F         [ 7]  758 	ld	a,#0x3F
   045D 12            [ 7]  759 	ld	(de),a
                            760 ;src/game/world.c:131: p_forest[3] = 0b01111110;
   045E DD 6E F7      [19]  761 	ld	l,-9 (ix)
   0461 DD 66 F8      [19]  762 	ld	h,-8 (ix)
   0464 36 7E         [10]  763 	ld	(hl),#0x7E
                            764 ;src/game/world.c:132: p_forest[4] = 0b11111110; 
   0466 DD 6E FA      [19]  765 	ld	l,-6 (ix)
   0469 DD 66 FB      [19]  766 	ld	h,-5 (ix)
   046C 36 FE         [10]  767 	ld	(hl),#0xFE
                            768 ;src/game/world.c:133: p_forest[5] = 0b01011111;
   046E DD 6E F5      [19]  769 	ld	l,-11 (ix)
   0471 DD 66 F6      [19]  770 	ld	h,-10 (ix)
   0474 36 5F         [10]  771 	ld	(hl),#0x5F
                            772 ;src/game/world.c:134: p_forest[6] = 0b11001111;
   0476 DD 6E FE      [19]  773 	ld	l,-2 (ix)
   0479 DD 66 FF      [19]  774 	ld	h,-1 (ix)
   047C 36 CF         [10]  775 	ld	(hl),#0xCF
                            776 ;src/game/world.c:135: p_forest[7] = 0b10001100;
   047E DD 6E FC      [19]  777 	ld	l,-4 (ix)
   0481 DD 66 FD      [19]  778 	ld	h,-3 (ix)
   0484 36 8C         [10]  779 	ld	(hl),#0x8C
                            780 ;src/game/world.c:136: break;
   0486 18 70         [12]  781 	jr	00106$
                            782 ;src/game/world.c:137: case 2:
   0488                     783 00104$:
                            784 ;src/game/world.c:138: p_forest[0] = 0b00110000;
   0488 DD 6E F1      [19]  785 	ld	l,-15 (ix)
   048B DD 66 F2      [19]  786 	ld	h,-14 (ix)
   048E 36 30         [10]  787 	ld	(hl),#0x30
                            788 ;src/game/world.c:139: p_forest[1] = 0b11110100;
   0490 FD 36 00 F4   [19]  789 	ld	0 (iy), #0xF4
                            790 ;src/game/world.c:140: p_forest[2] = 0b11111111;
   0494 3E FF         [ 7]  791 	ld	a,#0xFF
   0496 12            [ 7]  792 	ld	(de),a
                            793 ;src/game/world.c:141: p_forest[3] = 0b11111111;
   0497 DD 6E F7      [19]  794 	ld	l,-9 (ix)
   049A DD 66 F8      [19]  795 	ld	h,-8 (ix)
   049D 36 FF         [10]  796 	ld	(hl),#0xFF
                            797 ;src/game/world.c:142: p_forest[4] = 0b01111100;
   049F DD 6E FA      [19]  798 	ld	l,-6 (ix)
   04A2 DD 66 FB      [19]  799 	ld	h,-5 (ix)
   04A5 36 7C         [10]  800 	ld	(hl),#0x7C
                            801 ;src/game/world.c:143: p_forest[5] = 0b01111110;
   04A7 DD 6E F5      [19]  802 	ld	l,-11 (ix)
   04AA DD 66 F6      [19]  803 	ld	h,-10 (ix)
   04AD 36 7E         [10]  804 	ld	(hl),#0x7E
                            805 ;src/game/world.c:144: p_forest[6] = 0b00111110;
   04AF DD 6E FE      [19]  806 	ld	l,-2 (ix)
   04B2 DD 66 FF      [19]  807 	ld	h,-1 (ix)
   04B5 36 3E         [10]  808 	ld	(hl),#0x3E
                            809 ;src/game/world.c:145: p_forest[7] = 0b00011000;
   04B7 DD 6E FC      [19]  810 	ld	l,-4 (ix)
   04BA DD 66 FD      [19]  811 	ld	h,-3 (ix)
   04BD 36 18         [10]  812 	ld	(hl),#0x18
                            813 ;src/game/world.c:146: break;
   04BF 18 37         [12]  814 	jr	00106$
                            815 ;src/game/world.c:147: case 3:
   04C1                     816 00105$:
                            817 ;src/game/world.c:148: p_forest[0] = 0b11000000 , 
   04C1 DD 6E F1      [19]  818 	ld	l,-15 (ix)
   04C4 DD 66 F2      [19]  819 	ld	h,-14 (ix)
   04C7 36 C0         [10]  820 	ld	(hl),#0xC0
                            821 ;src/game/world.c:149: p_forest[1] = 0b11100111;
   04C9 FD 36 00 E7   [19]  822 	ld	0 (iy), #0xE7
                            823 ;src/game/world.c:150: p_forest[2] = 0b01111110;
   04CD 3E 7E         [ 7]  824 	ld	a,#0x7E
   04CF 12            [ 7]  825 	ld	(de),a
                            826 ;src/game/world.c:151: p_forest[3] = 0b01111110;
   04D0 DD 6E F7      [19]  827 	ld	l,-9 (ix)
   04D3 DD 66 F8      [19]  828 	ld	h,-8 (ix)
   04D6 36 7E         [10]  829 	ld	(hl),#0x7E
                            830 ;src/game/world.c:152: p_forest[4] = 0b11111110;
   04D8 DD 6E FA      [19]  831 	ld	l,-6 (ix)
   04DB DD 66 FB      [19]  832 	ld	h,-5 (ix)
   04DE 36 FE         [10]  833 	ld	(hl),#0xFE
                            834 ;src/game/world.c:153: p_forest[5] = 0b11111100;
   04E0 DD 6E F5      [19]  835 	ld	l,-11 (ix)
   04E3 DD 66 F6      [19]  836 	ld	h,-10 (ix)
   04E6 36 FC         [10]  837 	ld	(hl),#0xFC
                            838 ;src/game/world.c:154: p_forest[6] = 0b01111000;
   04E8 DD 6E FE      [19]  839 	ld	l,-2 (ix)
   04EB DD 66 FF      [19]  840 	ld	h,-1 (ix)
   04EE 36 78         [10]  841 	ld	(hl),#0x78
                            842 ;src/game/world.c:155: p_forest[7] = 0b00110000;
   04F0 DD 6E FC      [19]  843 	ld	l,-4 (ix)
   04F3 DD 66 FD      [19]  844 	ld	h,-3 (ix)
   04F6 36 30         [10]  845 	ld	(hl),#0x30
                            846 ;src/game/world.c:157: }
   04F8                     847 00106$:
                            848 ;src/game/world.c:158: patternTile(FOREST, iy, 8, 8, p_forest);
   04F8 DD 6E F1      [19]  849 	ld	l,-15 (ix)
   04FB DD 66 F2      [19]  850 	ld	h,-14 (ix)
   04FE C5            [11]  851 	push	bc
   04FF E5            [11]  852 	push	hl
   0500 21 08 08      [10]  853 	ld	hl,#0x0808
   0503 E5            [11]  854 	push	hl
   0504 DD 6E F3      [19]  855 	ld	l,-13 (ix)
   0507 DD 66 F4      [19]  856 	ld	h,-12 (ix)
   050A E5            [11]  857 	push	hl
   050B 3E 08         [ 7]  858 	ld	a,#0x08
   050D F5            [11]  859 	push	af
   050E 33            [ 6]  860 	inc	sp
   050F CDr35r02      [17]  861 	call	_patternTile
   0512 21 07 00      [10]  862 	ld	hl,#7
   0515 39            [11]  863 	add	hl,sp
   0516 F9            [ 6]  864 	ld	sp,hl
   0517 C1            [10]  865 	pop	bc
                            866 ;src/game/world.c:111: for(ix=0; ix<NBFOREST; ix++)
   0518 03            [ 6]  867 	inc	bc
   0519 79            [ 4]  868 	ld	a,c
   051A D6 32         [ 7]  869 	sub	a, #0x32
   051C 78            [ 4]  870 	ld	a,b
   051D 17            [ 4]  871 	rla
   051E 3F            [ 4]  872 	ccf
   051F 1F            [ 4]  873 	rra
   0520 DE 80         [ 7]  874 	sbc	a, #0x80
   0522 DAr6Fr03      [10]  875 	jp	C,00121$
                            876 ;src/game/world.c:164: for(ix=0; ix<NBFARM; ix++)
   0525 11 3C 00      [10]  877 	ld	de,#0x003C
   0528                     878 00125$:
                            879 ;src/game/world.c:166: iy = cpct_rand16()%(WIDTH*HEIGHT);
   0528 D5            [11]  880 	push	de
   0529 CDr00r00      [17]  881 	call	_cpct_getRandom_mxor_u16
   052C D1            [10]  882 	pop	de
   052D D5            [11]  883 	push	de
   052E 01 00 0F      [10]  884 	ld	bc,#0x0F00
   0531 C5            [11]  885 	push	bc
   0532 E5            [11]  886 	push	hl
   0533 CDr00r00      [17]  887 	call	__moduint
   0536 F1            [10]  888 	pop	af
   0537 F1            [10]  889 	pop	af
   0538 D1            [10]  890 	pop	de
                            891 ;src/game/world.c:167: p_world[iy] = cpct_rand()%2+5;
   0539 01r00r00      [10]  892 	ld	bc,#_p_world
   053C 09            [11]  893 	add	hl,bc
   053D E5            [11]  894 	push	hl
   053E D5            [11]  895 	push	de
   053F CDr00r00      [17]  896 	call	_cpct_getRandom_mxor_u8
   0542 7D            [ 4]  897 	ld	a,l
   0543 D1            [10]  898 	pop	de
   0544 E1            [10]  899 	pop	hl
   0545 E6 01         [ 7]  900 	and	a, #0x01
   0547 C6 05         [ 7]  901 	add	a, #0x05
   0549 77            [ 7]  902 	ld	(hl),a
   054A 1B            [ 6]  903 	dec	de
                            904 ;src/game/world.c:164: for(ix=0; ix<NBFARM; ix++)
   054B 7A            [ 4]  905 	ld	a,d
   054C B3            [ 4]  906 	or	a,e
   054D 20 D9         [12]  907 	jr	NZ,00125$
                            908 ;src/game/world.c:172: for(ix=0; ix<NBURBAN; ix++)
   054F 11 14 00      [10]  909 	ld	de,#0x0014
   0552                     910 00128$:
                            911 ;src/game/world.c:174: iy = cpct_rand16()%(WIDTH*HEIGHT);
   0552 D5            [11]  912 	push	de
   0553 CDr00r00      [17]  913 	call	_cpct_getRandom_mxor_u16
   0556 D1            [10]  914 	pop	de
   0557 D5            [11]  915 	push	de
   0558 01 00 0F      [10]  916 	ld	bc,#0x0F00
   055B C5            [11]  917 	push	bc
   055C E5            [11]  918 	push	hl
   055D CDr00r00      [17]  919 	call	__moduint
   0560 F1            [10]  920 	pop	af
   0561 F1            [10]  921 	pop	af
   0562 D1            [10]  922 	pop	de
                            923 ;src/game/world.c:175: p_world[iy] = cpct_rand()%3+2;
   0563 3Er00         [ 7]  924 	ld	a,#<(_p_world)
   0565 85            [ 4]  925 	add	a, l
   0566 DD 77 FC      [19]  926 	ld	-4 (ix),a
   0569 3Es00         [ 7]  927 	ld	a,#>(_p_world)
   056B 8C            [ 4]  928 	adc	a, h
   056C DD 77 FD      [19]  929 	ld	-3 (ix),a
   056F D5            [11]  930 	push	de
   0570 CDr00r00      [17]  931 	call	_cpct_getRandom_mxor_u8
   0573 45            [ 4]  932 	ld	b,l
   0574 D1            [10]  933 	pop	de
   0575 D5            [11]  934 	push	de
   0576 3E 03         [ 7]  935 	ld	a,#0x03
   0578 F5            [11]  936 	push	af
   0579 33            [ 6]  937 	inc	sp
   057A C5            [11]  938 	push	bc
   057B 33            [ 6]  939 	inc	sp
   057C CDr00r00      [17]  940 	call	__moduchar
   057F F1            [10]  941 	pop	af
   0580 7D            [ 4]  942 	ld	a,l
   0581 D1            [10]  943 	pop	de
   0582 C6 02         [ 7]  944 	add	a, #0x02
   0584 DD 6E FC      [19]  945 	ld	l,-4 (ix)
   0587 DD 66 FD      [19]  946 	ld	h,-3 (ix)
   058A 77            [ 7]  947 	ld	(hl),a
   058B 1B            [ 6]  948 	dec	de
                            949 ;src/game/world.c:172: for(ix=0; ix<NBURBAN; ix++)
   058C 7A            [ 4]  950 	ld	a,d
   058D B3            [ 4]  951 	or	a,e
   058E 20 C2         [12]  952 	jr	NZ,00128$
                            953 ;src/game/world.c:178: for(ix=0; ix<NBURBAN; ix++)
   0590 21 02 00      [10]  954 	ld	hl,#0x0002
   0593 39            [11]  955 	add	hl,sp
   0594 4D            [ 4]  956 	ld	c,l
   0595 44            [ 4]  957 	ld	b,h
   0596 21 00 00      [10]  958 	ld	hl,#0x0000
   0599 E3            [19]  959 	ex	(sp), hl
   059A                     960 00129$:
                            961 ;src/game/world.c:180: iy = cpct_rand16()%(WIDTH*HEIGHT);
   059A C5            [11]  962 	push	bc
   059B CDr00r00      [17]  963 	call	_cpct_getRandom_mxor_u16
   059E 11 00 0F      [10]  964 	ld	de,#0x0F00
   05A1 D5            [11]  965 	push	de
   05A2 E5            [11]  966 	push	hl
   05A3 CDr00r00      [17]  967 	call	__moduint
   05A6 F1            [10]  968 	pop	af
   05A7 F1            [10]  969 	pop	af
   05A8 C1            [10]  970 	pop	bc
   05A9 DD 75 FC      [19]  971 	ld	-4 (ix),l
   05AC DD 74 FD      [19]  972 	ld	-3 (ix),h
                            973 ;src/game/world.c:182: switch(cpct_rand()%6)
   05AF C5            [11]  974 	push	bc
   05B0 CDr00r00      [17]  975 	call	_cpct_getRandom_mxor_u8
   05B3 55            [ 4]  976 	ld	d,l
   05B4 3E 06         [ 7]  977 	ld	a,#0x06
   05B6 F5            [11]  978 	push	af
   05B7 33            [ 6]  979 	inc	sp
   05B8 D5            [11]  980 	push	de
   05B9 33            [ 6]  981 	inc	sp
   05BA CDr00r00      [17]  982 	call	__moduchar
   05BD F1            [10]  983 	pop	af
   05BE 5D            [ 4]  984 	ld	e,l
   05BF C1            [10]  985 	pop	bc
   05C0 3E 05         [ 7]  986 	ld	a,#0x05
   05C2 93            [ 4]  987 	sub	a, e
   05C3 38 6A         [12]  988 	jr	C,00116$
                            989 ;src/game/world.c:186: p_cities[1] = 0b01000110; // 01100010;
   05C5 21 01 00      [10]  990 	ld	hl,#0x0001
   05C8 09            [11]  991 	add	hl,bc
   05C9 DD 75 FE      [19]  992 	ld	-2 (ix),l
   05CC DD 74 FF      [19]  993 	ld	-1 (ix),h
                            994 ;src/game/world.c:182: switch(cpct_rand()%6)
   05CF 16 00         [ 7]  995 	ld	d,#0x00
   05D1 21rD7r05      [10]  996 	ld	hl,#00196$
   05D4 19            [11]  997 	add	hl,de
   05D5 19            [11]  998 	add	hl,de
                            999 ;src/game/world.c:184: case 0:
   05D6 E9            [ 4] 1000 	jp	(hl)
   05D7                    1001 00196$:
   05D7 18 0A         [12] 1002 	jr	00110$
   05D9 18 15         [12] 1003 	jr	00111$
   05DB 18 20         [12] 1004 	jr	00112$
   05DD 18 2B         [12] 1005 	jr	00113$
   05DF 18 36         [12] 1006 	jr	00114$
   05E1 18 41         [12] 1007 	jr	00115$
   05E3                    1008 00110$:
                           1009 ;src/game/world.c:185: p_cities[0] = 0b01110010; // 01001110;
   05E3 3E 72         [ 7] 1010 	ld	a,#0x72
   05E5 02            [ 7] 1011 	ld	(bc),a
                           1012 ;src/game/world.c:186: p_cities[1] = 0b01000110; // 01100010;
   05E6 DD 6E FE      [19] 1013 	ld	l,-2 (ix)
   05E9 DD 66 FF      [19] 1014 	ld	h,-1 (ix)
   05EC 36 46         [10] 1015 	ld	(hl),#0x46
                           1016 ;src/game/world.c:187: break;
   05EE 18 3F         [12] 1017 	jr	00116$
                           1018 ;src/game/world.c:189: case 1:
   05F0                    1019 00111$:
                           1020 ;src/game/world.c:190: p_cities[0] = 0b01100000; // 00000110;
   05F0 3E 60         [ 7] 1021 	ld	a,#0x60
   05F2 02            [ 7] 1022 	ld	(bc),a
                           1023 ;src/game/world.c:191: p_cities[1] = 0b00000110; // 01100000;
   05F3 DD 6E FE      [19] 1024 	ld	l,-2 (ix)
   05F6 DD 66 FF      [19] 1025 	ld	h,-1 (ix)
   05F9 36 06         [10] 1026 	ld	(hl),#0x06
                           1027 ;src/game/world.c:192: break;
   05FB 18 32         [12] 1028 	jr	00116$
                           1029 ;src/game/world.c:194: case 2:
   05FD                    1030 00112$:
                           1031 ;src/game/world.c:195: p_cities[0] = 0b00010000; // 00001000;
   05FD 3E 10         [ 7] 1032 	ld	a,#0x10
   05FF 02            [ 7] 1033 	ld	(bc),a
                           1034 ;src/game/world.c:196: p_cities[1] = 0b00000110; // 01100000;
   0600 DD 6E FE      [19] 1035 	ld	l,-2 (ix)
   0603 DD 66 FF      [19] 1036 	ld	h,-1 (ix)
   0606 36 06         [10] 1037 	ld	(hl),#0x06
                           1038 ;src/game/world.c:197: break;
   0608 18 25         [12] 1039 	jr	00116$
                           1040 ;src/game/world.c:199: case 3:
   060A                    1041 00113$:
                           1042 ;src/game/world.c:200: p_cities[0] = 0b11000000; // 00000011;
   060A 3E C0         [ 7] 1043 	ld	a,#0xC0
   060C 02            [ 7] 1044 	ld	(bc),a
                           1045 ;src/game/world.c:201: p_cities[1] = 0b00110001; // 10001100;
   060D DD 6E FE      [19] 1046 	ld	l,-2 (ix)
   0610 DD 66 FF      [19] 1047 	ld	h,-1 (ix)
   0613 36 31         [10] 1048 	ld	(hl),#0x31
                           1049 ;src/game/world.c:202: break;
   0615 18 18         [12] 1050 	jr	00116$
                           1051 ;src/game/world.c:204: case 4:
   0617                    1052 00114$:
                           1053 ;src/game/world.c:205: p_cities[0] = 0b11000100; // 00100011;
   0617 3E C4         [ 7] 1054 	ld	a,#0xC4
   0619 02            [ 7] 1055 	ld	(bc),a
                           1056 ;src/game/world.c:206: p_cities[1] = 0b00001110; // 01110000;
   061A DD 6E FE      [19] 1057 	ld	l,-2 (ix)
   061D DD 66 FF      [19] 1058 	ld	h,-1 (ix)
   0620 36 0E         [10] 1059 	ld	(hl),#0x0E
                           1060 ;src/game/world.c:207: break;
   0622 18 0B         [12] 1061 	jr	00116$
                           1062 ;src/game/world.c:209: case 5:
   0624                    1063 00115$:
                           1064 ;src/game/world.c:210: p_cities[0] = 0b01000000; // 00000010;
   0624 3E 40         [ 7] 1065 	ld	a,#0x40
   0626 02            [ 7] 1066 	ld	(bc),a
                           1067 ;src/game/world.c:211: p_cities[1] = 0b01001110; // 01110010;
   0627 DD 6E FE      [19] 1068 	ld	l,-2 (ix)
   062A DD 66 FF      [19] 1069 	ld	h,-1 (ix)
   062D 36 4E         [10] 1070 	ld	(hl),#0x4E
                           1071 ;src/game/world.c:213: }
   062F                    1072 00116$:
                           1073 ;src/game/world.c:215: patternTile(DWELLINGS1, iy, 4, 4, p_cities);
   062F 69            [ 4] 1074 	ld	l, c
   0630 60            [ 4] 1075 	ld	h, b
   0631 C5            [11] 1076 	push	bc
   0632 E5            [11] 1077 	push	hl
   0633 21 04 04      [10] 1078 	ld	hl,#0x0404
   0636 E5            [11] 1079 	push	hl
   0637 DD 6E FC      [19] 1080 	ld	l,-4 (ix)
   063A DD 66 FD      [19] 1081 	ld	h,-3 (ix)
   063D E5            [11] 1082 	push	hl
   063E 3E 02         [ 7] 1083 	ld	a,#0x02
   0640 F5            [11] 1084 	push	af
   0641 33            [ 6] 1085 	inc	sp
   0642 CDr35r02      [17] 1086 	call	_patternTile
   0645 21 07 00      [10] 1087 	ld	hl,#7
   0648 39            [11] 1088 	add	hl,sp
   0649 F9            [ 6] 1089 	ld	sp,hl
   064A C1            [10] 1090 	pop	bc
                           1091 ;src/game/world.c:178: for(ix=0; ix<NBURBAN; ix++)
   064B DD 34 E5      [23] 1092 	inc	-27 (ix)
   064E 20 03         [12] 1093 	jr	NZ,00197$
   0650 DD 34 E6      [23] 1094 	inc	-26 (ix)
   0653                    1095 00197$:
   0653 DD 7E E5      [19] 1096 	ld	a,-27 (ix)
   0656 D6 14         [ 7] 1097 	sub	a, #0x14
   0658 DD 7E E6      [19] 1098 	ld	a,-26 (ix)
   065B 17            [ 4] 1099 	rla
   065C 3F            [ 4] 1100 	ccf
   065D 1F            [ 4] 1101 	rra
   065E DE 80         [ 7] 1102 	sbc	a, #0x80
   0660 DAr9Ar05      [10] 1103 	jp	C,00129$
                           1104 ;src/game/world.c:220: for(ix=0; ix<NBLIVESTOCK; ix++)
   0663 11 13 00      [10] 1105 	ld	de,#0x0013
   0666                    1106 00133$:
                           1107 ;src/game/world.c:222: iy = cpct_rand16()%(WIDTH*HEIGHT);
   0666 D5            [11] 1108 	push	de
   0667 CDr00r00      [17] 1109 	call	_cpct_getRandom_mxor_u16
   066A D1            [10] 1110 	pop	de
   066B D5            [11] 1111 	push	de
   066C 01 00 0F      [10] 1112 	ld	bc,#0x0F00
   066F C5            [11] 1113 	push	bc
   0670 E5            [11] 1114 	push	hl
   0671 CDr00r00      [17] 1115 	call	__moduint
   0674 F1            [10] 1116 	pop	af
   0675 F1            [10] 1117 	pop	af
   0676 D1            [10] 1118 	pop	de
                           1119 ;src/game/world.c:223: p_world[iy] = LIVESTOCK;
   0677 01r00r00      [10] 1120 	ld	bc,#_p_world
   067A 09            [11] 1121 	add	hl,bc
   067B 36 09         [10] 1122 	ld	(hl),#0x09
   067D 1B            [ 6] 1123 	dec	de
                           1124 ;src/game/world.c:220: for(ix=0; ix<NBLIVESTOCK; ix++)
   067E 7A            [ 4] 1125 	ld	a,d
   067F B3            [ 4] 1126 	or	a,e
   0680 20 E4         [12] 1127 	jr	NZ,00133$
   0682 DD F9         [10] 1128 	ld	sp, ix
   0684 DD E1         [14] 1129 	pop	ix
   0686 C9            [10] 1130 	ret
                           1131 ;src/game/world.c:227: void drawTile(u8 x_, u8 y_, u8 ix, u8 iy)
                           1132 ;	---------------------------------
                           1133 ; Function drawTile
                           1134 ; ---------------------------------
   0687                    1135 _drawTile::
   0687 DD E5         [15] 1136 	push	ix
   0689 DD 21 00 00   [14] 1137 	ld	ix,#0
   068D DD 39         [15] 1138 	add	ix,sp
                           1139 ;src/game/world.c:230: int adress = (y_+iy)*WIDTH+x_+ix;
   068F DD 6E 05      [19] 1140 	ld	l,5 (ix)
   0692 26 00         [ 7] 1141 	ld	h,#0x00
   0694 DD 5E 07      [19] 1142 	ld	e,7 (ix)
   0697 16 00         [ 7] 1143 	ld	d,#0x00
   0699 19            [11] 1144 	add	hl,de
   069A 4D            [ 4] 1145 	ld	c, l
   069B 44            [ 4] 1146 	ld	b, h
   069C 29            [11] 1147 	add	hl, hl
   069D 29            [11] 1148 	add	hl, hl
   069E 09            [11] 1149 	add	hl, bc
   069F 29            [11] 1150 	add	hl, hl
   06A0 29            [11] 1151 	add	hl, hl
   06A1 29            [11] 1152 	add	hl, hl
   06A2 29            [11] 1153 	add	hl, hl
   06A3 DD 5E 04      [19] 1154 	ld	e,4 (ix)
   06A6 16 00         [ 7] 1155 	ld	d,#0x00
   06A8 19            [11] 1156 	add	hl,de
   06A9 DD 5E 06      [19] 1157 	ld	e,6 (ix)
   06AC 16 00         [ 7] 1158 	ld	d,#0x00
   06AE 19            [11] 1159 	add	hl,de
   06AF 5D            [ 4] 1160 	ld	e, l
   06B0 54            [ 4] 1161 	ld	d, h
                           1162 ;src/game/world.c:232: p_video = cpct_getScreenPtr(SCR_VMEM, ix*TILESIZE_W, iy*TILESIZE_H);
   06B1 DD 7E 07      [19] 1163 	ld	a,7 (ix)
   06B4 07            [ 4] 1164 	rlca
   06B5 07            [ 4] 1165 	rlca
   06B6 07            [ 4] 1166 	rlca
   06B7 07            [ 4] 1167 	rlca
   06B8 E6 F0         [ 7] 1168 	and	a,#0xF0
   06BA 67            [ 4] 1169 	ld	h,a
   06BB DD 7E 06      [19] 1170 	ld	a,6 (ix)
   06BE 87            [ 4] 1171 	add	a, a
   06BF 87            [ 4] 1172 	add	a, a
   06C0 D5            [11] 1173 	push	de
   06C1 E5            [11] 1174 	push	hl
   06C2 33            [ 6] 1175 	inc	sp
   06C3 F5            [11] 1176 	push	af
   06C4 33            [ 6] 1177 	inc	sp
   06C5 21 00 C0      [10] 1178 	ld	hl,#0xC000
   06C8 E5            [11] 1179 	push	hl
   06C9 CDr00r00      [17] 1180 	call	_cpct_getScreenPtr
   06CC D1            [10] 1181 	pop	de
   06CD 4D            [ 4] 1182 	ld	c, l
   06CE 44            [ 4] 1183 	ld	b, h
                           1184 ;src/game/world.c:234: switch(p_world[adress])
   06CF 21r00r00      [10] 1185 	ld	hl,#_p_world
   06D2 19            [11] 1186 	add	hl,de
   06D3 5E            [ 7] 1187 	ld	e,(hl)
   06D4 3E 19         [ 7] 1188 	ld	a,#0x19
   06D6 93            [ 4] 1189 	sub	a, e
   06D7 DArACr08      [10] 1190 	jp	C,00128$
   06DA 16 00         [ 7] 1191 	ld	d,#0x00
   06DC 21rE3r06      [10] 1192 	ld	hl,#00134$
   06DF 19            [11] 1193 	add	hl,de
   06E0 19            [11] 1194 	add	hl,de
   06E1 19            [11] 1195 	add	hl,de
   06E2 E9            [ 4] 1196 	jp	(hl)
   06E3                    1197 00134$:
   06E3 C3r31r07      [10] 1198 	jp	00101$
   06E6 C3r40r07      [10] 1199 	jp	00102$
   06E9 C3r4Fr07      [10] 1200 	jp	00103$
   06EC C3r5Er07      [10] 1201 	jp	00104$
   06EF C3r6Dr07      [10] 1202 	jp	00105$
   06F2 C3r7Cr07      [10] 1203 	jp	00106$
   06F5 C3r8Br07      [10] 1204 	jp	00107$
   06F8 C3r9Ar07      [10] 1205 	jp	00108$
   06FB C3rA9r07      [10] 1206 	jp	00109$
   06FE C3rB8r07      [10] 1207 	jp	00110$
   0701 C3rC7r07      [10] 1208 	jp	00111$
   0704 C3rD6r07      [10] 1209 	jp	00112$
   0707 C3rE5r07      [10] 1210 	jp	00113$
   070A C3rF4r07      [10] 1211 	jp	00114$
   070D C3r03r08      [10] 1212 	jp	00115$
   0710 C3r12r08      [10] 1213 	jp	00116$
   0713 C3r21r08      [10] 1214 	jp	00117$
   0716 C3r30r08      [10] 1215 	jp	00118$
   0719 C3r3Er08      [10] 1216 	jp	00119$
   071C C3r4Cr08      [10] 1217 	jp	00120$
   071F C3r5Ar08      [10] 1218 	jp	00121$
   0722 C3r68r08      [10] 1219 	jp	00122$
   0725 C3r76r08      [10] 1220 	jp	00123$
   0728 C3r84r08      [10] 1221 	jp	00124$
   072B C3r92r08      [10] 1222 	jp	00125$
   072E C3rA0r08      [10] 1223 	jp	00126$
                           1224 ;src/game/world.c:236: case GRASS1:
   0731                    1225 00101$:
                           1226 ;src/game/world.c:237: cpct_drawSprite(grass1, p_video, TILESIZE_W, TILESIZE_H);
   0731 11r00r00      [10] 1227 	ld	de,#_grass1
   0734 21 04 10      [10] 1228 	ld	hl,#0x1004
   0737 E5            [11] 1229 	push	hl
   0738 C5            [11] 1230 	push	bc
   0739 D5            [11] 1231 	push	de
   073A CDr00r00      [17] 1232 	call	_cpct_drawSprite
                           1233 ;src/game/world.c:238: break;
   073D C3rACr08      [10] 1234 	jp	00128$
                           1235 ;src/game/world.c:239: case GRASS2:
   0740                    1236 00102$:
                           1237 ;src/game/world.c:240: cpct_drawSprite(grass2, p_video, TILESIZE_W, TILESIZE_H);
   0740 11r00r00      [10] 1238 	ld	de,#_grass2
   0743 21 04 10      [10] 1239 	ld	hl,#0x1004
   0746 E5            [11] 1240 	push	hl
   0747 C5            [11] 1241 	push	bc
   0748 D5            [11] 1242 	push	de
   0749 CDr00r00      [17] 1243 	call	_cpct_drawSprite
                           1244 ;src/game/world.c:241: break;
   074C C3rACr08      [10] 1245 	jp	00128$
                           1246 ;src/game/world.c:242: case DWELLINGS1:
   074F                    1247 00103$:
                           1248 ;src/game/world.c:243: cpct_drawSprite(dwellings1, p_video, TILESIZE_W, TILESIZE_H);
   074F 11r00r00      [10] 1249 	ld	de,#_dwellings1
   0752 21 04 10      [10] 1250 	ld	hl,#0x1004
   0755 E5            [11] 1251 	push	hl
   0756 C5            [11] 1252 	push	bc
   0757 D5            [11] 1253 	push	de
   0758 CDr00r00      [17] 1254 	call	_cpct_drawSprite
                           1255 ;src/game/world.c:244: break;
   075B C3rACr08      [10] 1256 	jp	00128$
                           1257 ;src/game/world.c:245: case DWELLINGS2:
   075E                    1258 00104$:
                           1259 ;src/game/world.c:246: cpct_drawSprite(dwellings2, p_video, TILESIZE_W, TILESIZE_H);
   075E 11r00r00      [10] 1260 	ld	de,#_dwellings2
   0761 21 04 10      [10] 1261 	ld	hl,#0x1004
   0764 E5            [11] 1262 	push	hl
   0765 C5            [11] 1263 	push	bc
   0766 D5            [11] 1264 	push	de
   0767 CDr00r00      [17] 1265 	call	_cpct_drawSprite
                           1266 ;src/game/world.c:247: break;
   076A C3rACr08      [10] 1267 	jp	00128$
                           1268 ;src/game/world.c:248: case DWELLINGS3:
   076D                    1269 00105$:
                           1270 ;src/game/world.c:249: cpct_drawSprite(dwellings3, p_video, TILESIZE_W, TILESIZE_H);
   076D 11r00r00      [10] 1271 	ld	de,#_dwellings3
   0770 21 04 10      [10] 1272 	ld	hl,#0x1004
   0773 E5            [11] 1273 	push	hl
   0774 C5            [11] 1274 	push	bc
   0775 D5            [11] 1275 	push	de
   0776 CDr00r00      [17] 1276 	call	_cpct_drawSprite
                           1277 ;src/game/world.c:250: break;
   0779 C3rACr08      [10] 1278 	jp	00128$
                           1279 ;src/game/world.c:251: case FARM1:
   077C                    1280 00106$:
                           1281 ;src/game/world.c:252: cpct_drawSprite(farm1, p_video, TILESIZE_W, TILESIZE_H);
   077C 11r00r00      [10] 1282 	ld	de,#_farm1
   077F 21 04 10      [10] 1283 	ld	hl,#0x1004
   0782 E5            [11] 1284 	push	hl
   0783 C5            [11] 1285 	push	bc
   0784 D5            [11] 1286 	push	de
   0785 CDr00r00      [17] 1287 	call	_cpct_drawSprite
                           1288 ;src/game/world.c:253: break;
   0788 C3rACr08      [10] 1289 	jp	00128$
                           1290 ;src/game/world.c:254: case FARM2:
   078B                    1291 00107$:
                           1292 ;src/game/world.c:255: cpct_drawSprite(farm2, p_video, TILESIZE_W, TILESIZE_H);
   078B 11r00r00      [10] 1293 	ld	de,#_farm2
   078E 21 04 10      [10] 1294 	ld	hl,#0x1004
   0791 E5            [11] 1295 	push	hl
   0792 C5            [11] 1296 	push	bc
   0793 D5            [11] 1297 	push	de
   0794 CDr00r00      [17] 1298 	call	_cpct_drawSprite
                           1299 ;src/game/world.c:256: break;
   0797 C3rACr08      [10] 1300 	jp	00128$
                           1301 ;src/game/world.c:257: case WATER:
   079A                    1302 00108$:
                           1303 ;src/game/world.c:258: cpct_drawSprite(water, p_video, TILESIZE_W, TILESIZE_H);
   079A 11r00r00      [10] 1304 	ld	de,#_water
   079D 21 04 10      [10] 1305 	ld	hl,#0x1004
   07A0 E5            [11] 1306 	push	hl
   07A1 C5            [11] 1307 	push	bc
   07A2 D5            [11] 1308 	push	de
   07A3 CDr00r00      [17] 1309 	call	_cpct_drawSprite
                           1310 ;src/game/world.c:259: break;
   07A6 C3rACr08      [10] 1311 	jp	00128$
                           1312 ;src/game/world.c:260: case FOREST:
   07A9                    1313 00109$:
                           1314 ;src/game/world.c:261: cpct_drawSprite(forest, p_video, TILESIZE_W, TILESIZE_H);
   07A9 11r00r00      [10] 1315 	ld	de,#_forest
   07AC 21 04 10      [10] 1316 	ld	hl,#0x1004
   07AF E5            [11] 1317 	push	hl
   07B0 C5            [11] 1318 	push	bc
   07B1 D5            [11] 1319 	push	de
   07B2 CDr00r00      [17] 1320 	call	_cpct_drawSprite
                           1321 ;src/game/world.c:262: break;
   07B5 C3rACr08      [10] 1322 	jp	00128$
                           1323 ;src/game/world.c:263: case LIVESTOCK:
   07B8                    1324 00110$:
                           1325 ;src/game/world.c:264: cpct_drawSprite(livestock, p_video, TILESIZE_W, TILESIZE_H);
   07B8 11r00r00      [10] 1326 	ld	de,#_livestock
   07BB 21 04 10      [10] 1327 	ld	hl,#0x1004
   07BE E5            [11] 1328 	push	hl
   07BF C5            [11] 1329 	push	bc
   07C0 D5            [11] 1330 	push	de
   07C1 CDr00r00      [17] 1331 	call	_cpct_drawSprite
                           1332 ;src/game/world.c:265: break;
   07C4 C3rACr08      [10] 1333 	jp	00128$
                           1334 ;src/game/world.c:266: case SSNS:
   07C7                    1335 00111$:
                           1336 ;src/game/world.c:267: cpct_drawSprite(station_small_ns, p_video, TILESIZE_W, TILESIZE_H);
   07C7 11r00r00      [10] 1337 	ld	de,#_station_small_ns
   07CA 21 04 10      [10] 1338 	ld	hl,#0x1004
   07CD E5            [11] 1339 	push	hl
   07CE C5            [11] 1340 	push	bc
   07CF D5            [11] 1341 	push	de
   07D0 CDr00r00      [17] 1342 	call	_cpct_drawSprite
                           1343 ;src/game/world.c:268: break;
   07D3 C3rACr08      [10] 1344 	jp	00128$
                           1345 ;src/game/world.c:269: case SSEW:
   07D6                    1346 00112$:
                           1347 ;src/game/world.c:270: cpct_drawSprite(station_small_ew, p_video, TILESIZE_W, TILESIZE_H);
   07D6 11r00r00      [10] 1348 	ld	de,#_station_small_ew
   07D9 21 04 10      [10] 1349 	ld	hl,#0x1004
   07DC E5            [11] 1350 	push	hl
   07DD C5            [11] 1351 	push	bc
   07DE D5            [11] 1352 	push	de
   07DF CDr00r00      [17] 1353 	call	_cpct_drawSprite
                           1354 ;src/game/world.c:271: break;
   07E2 C3rACr08      [10] 1355 	jp	00128$
                           1356 ;src/game/world.c:272: case SMNS:
   07E5                    1357 00113$:
                           1358 ;src/game/world.c:273: cpct_drawSprite(station_medium_ns, p_video, TILESIZE_W, TILESIZE_H);
   07E5 11r00r00      [10] 1359 	ld	de,#_station_medium_ns
   07E8 21 04 10      [10] 1360 	ld	hl,#0x1004
   07EB E5            [11] 1361 	push	hl
   07EC C5            [11] 1362 	push	bc
   07ED D5            [11] 1363 	push	de
   07EE CDr00r00      [17] 1364 	call	_cpct_drawSprite
                           1365 ;src/game/world.c:274: break;
   07F1 C3rACr08      [10] 1366 	jp	00128$
                           1367 ;src/game/world.c:275: case SMEW:
   07F4                    1368 00114$:
                           1369 ;src/game/world.c:276: cpct_drawSprite(station_medium_ew, p_video, TILESIZE_W, TILESIZE_H);
   07F4 11r00r00      [10] 1370 	ld	de,#_station_medium_ew
   07F7 21 04 10      [10] 1371 	ld	hl,#0x1004
   07FA E5            [11] 1372 	push	hl
   07FB C5            [11] 1373 	push	bc
   07FC D5            [11] 1374 	push	de
   07FD CDr00r00      [17] 1375 	call	_cpct_drawSprite
                           1376 ;src/game/world.c:277: break;
   0800 C3rACr08      [10] 1377 	jp	00128$
                           1378 ;src/game/world.c:278: case SLNS:
   0803                    1379 00115$:
                           1380 ;src/game/world.c:279: cpct_drawSprite(station_large_ns, p_video, TILESIZE_W, TILESIZE_H);
   0803 11r00r00      [10] 1381 	ld	de,#_station_large_ns
   0806 21 04 10      [10] 1382 	ld	hl,#0x1004
   0809 E5            [11] 1383 	push	hl
   080A C5            [11] 1384 	push	bc
   080B D5            [11] 1385 	push	de
   080C CDr00r00      [17] 1386 	call	_cpct_drawSprite
                           1387 ;src/game/world.c:280: break;
   080F C3rACr08      [10] 1388 	jp	00128$
                           1389 ;src/game/world.c:281: case SLEW:
   0812                    1390 00116$:
                           1391 ;src/game/world.c:282: cpct_drawSprite(station_large_ew, p_video, TILESIZE_W, TILESIZE_H);
   0812 11r00r00      [10] 1392 	ld	de,#_station_large_ew
   0815 21 04 10      [10] 1393 	ld	hl,#0x1004
   0818 E5            [11] 1394 	push	hl
   0819 C5            [11] 1395 	push	bc
   081A D5            [11] 1396 	push	de
   081B CDr00r00      [17] 1397 	call	_cpct_drawSprite
                           1398 ;src/game/world.c:283: break;
   081E C3rACr08      [10] 1399 	jp	00128$
                           1400 ;src/game/world.c:284: case REW:
   0821                    1401 00117$:
                           1402 ;src/game/world.c:285: cpct_drawSprite(rail_ew, p_video, TILESIZE_W, TILESIZE_H);	
   0821 11r00r00      [10] 1403 	ld	de,#_rail_ew
   0824 21 04 10      [10] 1404 	ld	hl,#0x1004
   0827 E5            [11] 1405 	push	hl
   0828 C5            [11] 1406 	push	bc
   0829 D5            [11] 1407 	push	de
   082A CDr00r00      [17] 1408 	call	_cpct_drawSprite
                           1409 ;src/game/world.c:286: break;
   082D C3rACr08      [10] 1410 	jp	00128$
                           1411 ;src/game/world.c:287: case RNS:
   0830                    1412 00118$:
                           1413 ;src/game/world.c:288: cpct_drawSprite(rail_ns, p_video, TILESIZE_W, TILESIZE_H);	
   0830 11r00r00      [10] 1414 	ld	de,#_rail_ns
   0833 21 04 10      [10] 1415 	ld	hl,#0x1004
   0836 E5            [11] 1416 	push	hl
   0837 C5            [11] 1417 	push	bc
   0838 D5            [11] 1418 	push	de
   0839 CDr00r00      [17] 1419 	call	_cpct_drawSprite
                           1420 ;src/game/world.c:289: break;
   083C 18 6E         [12] 1421 	jr	00128$
                           1422 ;src/game/world.c:290: case REN:
   083E                    1423 00119$:
                           1424 ;src/game/world.c:291: cpct_drawSprite(rail_en, p_video, TILESIZE_W, TILESIZE_H);	
   083E 11r00r00      [10] 1425 	ld	de,#_rail_en
   0841 21 04 10      [10] 1426 	ld	hl,#0x1004
   0844 E5            [11] 1427 	push	hl
   0845 C5            [11] 1428 	push	bc
   0846 D5            [11] 1429 	push	de
   0847 CDr00r00      [17] 1430 	call	_cpct_drawSprite
                           1431 ;src/game/world.c:292: break;
   084A 18 60         [12] 1432 	jr	00128$
                           1433 ;src/game/world.c:293: case RES:
   084C                    1434 00120$:
                           1435 ;src/game/world.c:294: cpct_drawSprite(rail_es, p_video, TILESIZE_W, TILESIZE_H);	
   084C 11r00r00      [10] 1436 	ld	de,#_rail_es
   084F 21 04 10      [10] 1437 	ld	hl,#0x1004
   0852 E5            [11] 1438 	push	hl
   0853 C5            [11] 1439 	push	bc
   0854 D5            [11] 1440 	push	de
   0855 CDr00r00      [17] 1441 	call	_cpct_drawSprite
                           1442 ;src/game/world.c:295: break;
   0858 18 52         [12] 1443 	jr	00128$
                           1444 ;src/game/world.c:296: case RWN:
   085A                    1445 00121$:
                           1446 ;src/game/world.c:297: cpct_drawSprite(rail_wn, p_video, TILESIZE_W, TILESIZE_H);	
   085A 11r00r00      [10] 1447 	ld	de,#_rail_wn
   085D 21 04 10      [10] 1448 	ld	hl,#0x1004
   0860 E5            [11] 1449 	push	hl
   0861 C5            [11] 1450 	push	bc
   0862 D5            [11] 1451 	push	de
   0863 CDr00r00      [17] 1452 	call	_cpct_drawSprite
                           1453 ;src/game/world.c:298: break;
   0866 18 44         [12] 1454 	jr	00128$
                           1455 ;src/game/world.c:299: case RWS:
   0868                    1456 00122$:
                           1457 ;src/game/world.c:300: cpct_drawSprite(rail_ws, p_video, TILESIZE_W, TILESIZE_H);	
   0868 11r00r00      [10] 1458 	ld	de,#_rail_ws
   086B 21 04 10      [10] 1459 	ld	hl,#0x1004
   086E E5            [11] 1460 	push	hl
   086F C5            [11] 1461 	push	bc
   0870 D5            [11] 1462 	push	de
   0871 CDr00r00      [17] 1463 	call	_cpct_drawSprite
                           1464 ;src/game/world.c:301: break;
   0874 18 36         [12] 1465 	jr	00128$
                           1466 ;src/game/world.c:302: case REWN:
   0876                    1467 00123$:
                           1468 ;src/game/world.c:303: cpct_drawSprite(rail_ew_n, p_video, TILESIZE_W, TILESIZE_H);	
   0876 11r00r00      [10] 1469 	ld	de,#_rail_ew_n
   0879 21 04 10      [10] 1470 	ld	hl,#0x1004
   087C E5            [11] 1471 	push	hl
   087D C5            [11] 1472 	push	bc
   087E D5            [11] 1473 	push	de
   087F CDr00r00      [17] 1474 	call	_cpct_drawSprite
                           1475 ;src/game/world.c:304: break;
   0882 18 28         [12] 1476 	jr	00128$
                           1477 ;src/game/world.c:305: case REWS:
   0884                    1478 00124$:
                           1479 ;src/game/world.c:306: cpct_drawSprite(rail_ew_s, p_video, TILESIZE_W, TILESIZE_H);	
   0884 11r00r00      [10] 1480 	ld	de,#_rail_ew_s
   0887 21 04 10      [10] 1481 	ld	hl,#0x1004
   088A E5            [11] 1482 	push	hl
   088B C5            [11] 1483 	push	bc
   088C D5            [11] 1484 	push	de
   088D CDr00r00      [17] 1485 	call	_cpct_drawSprite
                           1486 ;src/game/world.c:307: break;
   0890 18 1A         [12] 1487 	jr	00128$
                           1488 ;src/game/world.c:308: case RNSE:
   0892                    1489 00125$:
                           1490 ;src/game/world.c:309: cpct_drawSprite(rail_ns_e, p_video, TILESIZE_W, TILESIZE_H);	
   0892 11r00r00      [10] 1491 	ld	de,#_rail_ns_e
   0895 21 04 10      [10] 1492 	ld	hl,#0x1004
   0898 E5            [11] 1493 	push	hl
   0899 C5            [11] 1494 	push	bc
   089A D5            [11] 1495 	push	de
   089B CDr00r00      [17] 1496 	call	_cpct_drawSprite
                           1497 ;src/game/world.c:310: break;
   089E 18 0C         [12] 1498 	jr	00128$
                           1499 ;src/game/world.c:311: case RNSW:
   08A0                    1500 00126$:
                           1501 ;src/game/world.c:312: cpct_drawSprite(rail_ns_w, p_video, TILESIZE_W, TILESIZE_H);
   08A0 11r00r00      [10] 1502 	ld	de,#_rail_ns_w
   08A3 21 04 10      [10] 1503 	ld	hl,#0x1004
   08A6 E5            [11] 1504 	push	hl
   08A7 C5            [11] 1505 	push	bc
   08A8 D5            [11] 1506 	push	de
   08A9 CDr00r00      [17] 1507 	call	_cpct_drawSprite
                           1508 ;src/game/world.c:314: }
   08AC                    1509 00128$:
   08AC DD E1         [14] 1510 	pop	ix
   08AE C9            [10] 1511 	ret
                           1512 ;src/game/world.c:317: void drawScrolls(u8 x_, u8 y_)
                           1513 ;	---------------------------------
                           1514 ; Function drawScrolls
                           1515 ; ---------------------------------
   08AF                    1516 _drawScrolls::
   08AF DD E5         [15] 1517 	push	ix
   08B1 DD 21 00 00   [14] 1518 	ld	ix,#0
   08B5 DD 39         [15] 1519 	add	ix,sp
   08B7 3B            [ 6] 1520 	dec	sp
                           1521 ;src/game/world.c:323: scrollx = x_* (WIDTH-TILESIZE_W)/(WIDTH-NBTILE_W);
   08B8 DD 4E 04      [19] 1522 	ld	c,4 (ix)
   08BB 06 00         [ 7] 1523 	ld	b,#0x00
   08BD 69            [ 4] 1524 	ld	l, c
   08BE 60            [ 4] 1525 	ld	h, b
   08BF 29            [11] 1526 	add	hl, hl
   08C0 29            [11] 1527 	add	hl, hl
   08C1 29            [11] 1528 	add	hl, hl
   08C2 09            [11] 1529 	add	hl, bc
   08C3 29            [11] 1530 	add	hl, hl
   08C4 09            [11] 1531 	add	hl, bc
   08C5 29            [11] 1532 	add	hl, hl
   08C6 29            [11] 1533 	add	hl, hl
   08C7 01 3C 00      [10] 1534 	ld	bc,#0x003C
   08CA C5            [11] 1535 	push	bc
   08CB E5            [11] 1536 	push	hl
   08CC CDr00r00      [17] 1537 	call	__divsint
   08CF F1            [10] 1538 	pop	af
   08D0 F1            [10] 1539 	pop	af
   08D1 55            [ 4] 1540 	ld	d,l
                           1541 ;src/game/world.c:324: scrolly = y_* (HEIGHT*TILESIZE_W-TILESIZE_H)/(HEIGHT-NBTILE_H);
   08D2 DD 4E 05      [19] 1542 	ld	c,5 (ix)
   08D5 06 00         [ 7] 1543 	ld	b,#0x00
   08D7 69            [ 4] 1544 	ld	l, c
   08D8 60            [ 4] 1545 	ld	h, b
   08D9 29            [11] 1546 	add	hl, hl
   08DA 29            [11] 1547 	add	hl, hl
   08DB 09            [11] 1548 	add	hl, bc
   08DC 29            [11] 1549 	add	hl, hl
   08DD 09            [11] 1550 	add	hl, bc
   08DE 29            [11] 1551 	add	hl, hl
   08DF 29            [11] 1552 	add	hl, hl
   08E0 29            [11] 1553 	add	hl, hl
   08E1 29            [11] 1554 	add	hl, hl
   08E2 D5            [11] 1555 	push	de
   08E3 01 24 00      [10] 1556 	ld	bc,#0x0024
   08E6 C5            [11] 1557 	push	bc
   08E7 E5            [11] 1558 	push	hl
   08E8 CDr00r00      [17] 1559 	call	__divsint
   08EB F1            [10] 1560 	pop	af
   08EC F1            [10] 1561 	pop	af
   08ED D1            [10] 1562 	pop	de
   08EE DD 75 FF      [19] 1563 	ld	-1 (ix),l
                           1564 ;src/game/world.c:326: p_video = cpct_getScreenPtr(SCR_VMEM, scrollx, 0);
   08F1 AF            [ 4] 1565 	xor	a, a
   08F2 F5            [11] 1566 	push	af
   08F3 33            [ 6] 1567 	inc	sp
   08F4 D5            [11] 1568 	push	de
   08F5 33            [ 6] 1569 	inc	sp
   08F6 21 00 C0      [10] 1570 	ld	hl,#0xC000
   08F9 E5            [11] 1571 	push	hl
   08FA CDr00r00      [17] 1572 	call	_cpct_getScreenPtr
                           1573 ;src/game/world.c:327: cpct_drawSolidBox(p_video, cpct_px2byteM1(0,0,0,0), 4, TILESIZE_W);
   08FD E5            [11] 1574 	push	hl
   08FE 21 00 00      [10] 1575 	ld	hl,#0x0000
   0901 E5            [11] 1576 	push	hl
   0902 2E 00         [ 7] 1577 	ld	l, #0x00
   0904 E5            [11] 1578 	push	hl
   0905 CDr00r00      [17] 1579 	call	_cpct_px2byteM1
   0908 F1            [10] 1580 	pop	af
   0909 F1            [10] 1581 	pop	af
   090A 45            [ 4] 1582 	ld	b,l
   090B D1            [10] 1583 	pop	de
   090C 21 04 04      [10] 1584 	ld	hl,#0x0404
   090F E5            [11] 1585 	push	hl
   0910 C5            [11] 1586 	push	bc
   0911 33            [ 6] 1587 	inc	sp
   0912 D5            [11] 1588 	push	de
   0913 CDr00r00      [17] 1589 	call	_cpct_drawSolidBox
   0916 F1            [10] 1590 	pop	af
   0917 F1            [10] 1591 	pop	af
   0918 33            [ 6] 1592 	inc	sp
                           1593 ;src/game/world.c:329: p_video = cpct_getScreenPtr(SCR_VMEM, 0, scrolly);
   0919 DD 7E FF      [19] 1594 	ld	a,-1 (ix)
   091C F5            [11] 1595 	push	af
   091D 33            [ 6] 1596 	inc	sp
   091E AF            [ 4] 1597 	xor	a, a
   091F F5            [11] 1598 	push	af
   0920 33            [ 6] 1599 	inc	sp
   0921 21 00 C0      [10] 1600 	ld	hl,#0xC000
   0924 E5            [11] 1601 	push	hl
   0925 CDr00r00      [17] 1602 	call	_cpct_getScreenPtr
                           1603 ;src/game/world.c:330: cpct_drawSolidBox(p_video, cpct_px2byteM1(0,0,0,0), 1, TILESIZE_H);
   0928 E5            [11] 1604 	push	hl
   0929 21 00 00      [10] 1605 	ld	hl,#0x0000
   092C E5            [11] 1606 	push	hl
   092D 2E 00         [ 7] 1607 	ld	l, #0x00
   092F E5            [11] 1608 	push	hl
   0930 CDr00r00      [17] 1609 	call	_cpct_px2byteM1
   0933 F1            [10] 1610 	pop	af
   0934 F1            [10] 1611 	pop	af
   0935 45            [ 4] 1612 	ld	b,l
   0936 D1            [10] 1613 	pop	de
   0937 21 01 10      [10] 1614 	ld	hl,#0x1001
   093A E5            [11] 1615 	push	hl
   093B C5            [11] 1616 	push	bc
   093C 33            [ 6] 1617 	inc	sp
   093D D5            [11] 1618 	push	de
   093E CDr00r00      [17] 1619 	call	_cpct_drawSolidBox
   0941 F1            [10] 1620 	pop	af
   0942 F1            [10] 1621 	pop	af
   0943 33            [ 6] 1622 	inc	sp
   0944 33            [ 6] 1623 	inc	sp
   0945 DD E1         [14] 1624 	pop	ix
   0947 C9            [10] 1625 	ret
                           1626 ;src/game/world.c:333: void drawWorld(u8 x_, u8 y_)
                           1627 ;	---------------------------------
                           1628 ; Function drawWorld
                           1629 ; ---------------------------------
   0948                    1630 _drawWorld::
                           1631 ;src/game/world.c:338: for(iy=0; iy<NBTILE_H;iy++)
   0948 16 00         [ 7] 1632 	ld	d,#0x00
                           1633 ;src/game/world.c:340: for(ix=0; ix<NBTILE_W;ix++)
   094A                    1634 00109$:
   094A 1E 00         [ 7] 1635 	ld	e,#0x00
   094C                    1636 00103$:
                           1637 ;src/game/world.c:342: drawTile(x_, y_, ix, iy);
   094C D5            [11] 1638 	push	de
   094D D5            [11] 1639 	push	de
   094E 21 07 00      [10] 1640 	ld	hl, #7+0
   0951 39            [11] 1641 	add	hl, sp
   0952 7E            [ 7] 1642 	ld	a, (hl)
   0953 F5            [11] 1643 	push	af
   0954 33            [ 6] 1644 	inc	sp
   0955 21 07 00      [10] 1645 	ld	hl, #7+0
   0958 39            [11] 1646 	add	hl, sp
   0959 7E            [ 7] 1647 	ld	a, (hl)
   095A F5            [11] 1648 	push	af
   095B 33            [ 6] 1649 	inc	sp
   095C CDr87r06      [17] 1650 	call	_drawTile
   095F F1            [10] 1651 	pop	af
   0960 F1            [10] 1652 	pop	af
   0961 D1            [10] 1653 	pop	de
                           1654 ;src/game/world.c:340: for(ix=0; ix<NBTILE_W;ix++)
   0962 1C            [ 4] 1655 	inc	e
   0963 7B            [ 4] 1656 	ld	a,e
   0964 D6 14         [ 7] 1657 	sub	a, #0x14
   0966 38 E4         [12] 1658 	jr	C,00103$
                           1659 ;src/game/world.c:338: for(iy=0; iy<NBTILE_H;iy++)
   0968 14            [ 4] 1660 	inc	d
   0969 7A            [ 4] 1661 	ld	a,d
   096A D6 0C         [ 7] 1662 	sub	a, #0x0C
   096C 38 DC         [12] 1663 	jr	C,00109$
                           1664 ;src/game/world.c:346: drawScrolls(x_, y_);
   096E 21 03 00      [10] 1665 	ld	hl, #3+0
   0971 39            [11] 1666 	add	hl, sp
   0972 7E            [ 7] 1667 	ld	a, (hl)
   0973 F5            [11] 1668 	push	af
   0974 33            [ 6] 1669 	inc	sp
   0975 21 03 00      [10] 1670 	ld	hl, #3+0
   0978 39            [11] 1671 	add	hl, sp
   0979 7E            [ 7] 1672 	ld	a, (hl)
   097A F5            [11] 1673 	push	af
   097B 33            [ 6] 1674 	inc	sp
   097C CDrAFr08      [17] 1675 	call	_drawScrolls
   097F F1            [10] 1676 	pop	af
   0980 C9            [10] 1677 	ret
                           1678 	.area _CODE
                           1679 	.area _INITIALIZER
                           1680 	.area _CABS (ABS)
