                              1 ;--------------------------------------------------------
                              2 ; File Created by SDCC : free open source ANSI-C Compiler
                              3 ; Version 3.6.8 #9946 (Linux)
                              4 ;--------------------------------------------------------
                              5 	.module world
                              6 	.optsdcc -mz80
                              7 	
                              8 ;--------------------------------------------------------
                              9 ; Public variables in this module
                             10 ;--------------------------------------------------------
                             11 	.globl _cpct_setSeed_mxor
                             12 	.globl _cpct_getRandom_mxor_u16
                             13 	.globl _cpct_getRandom_mxor_u8
                             14 	.globl _cpct_getScreenPtr
                             15 	.globl _cpct_count2VSYNC
                             16 	.globl _cpct_drawSolidBox
                             17 	.globl _cpct_drawSprite
                             18 	.globl _cpct_px2byteM1
                             19 	.globl _cpct_getBit
                             20 	.globl _cpct_memset
                             21 	.globl _drawCursor
                             22 	.globl _patternTile
                             23 	.globl _generateWorld
                             24 	.globl _drawTile
                             25 	.globl _drawScrolls
                             26 	.globl _drawWorld
                             27 	.globl _setTrainHeading
                             28 	.globl _setPixel
                             29 	.globl _isPixelBlack
                             30 	.globl _drawTrains
                             31 ;--------------------------------------------------------
                             32 ; special function registers
                             33 ;--------------------------------------------------------
                             34 ;--------------------------------------------------------
                             35 ; ram data
                             36 ;--------------------------------------------------------
                             37 	.area _DATA
                             38 ;--------------------------------------------------------
                             39 ; ram data
                             40 ;--------------------------------------------------------
                             41 	.area _INITIALIZED
                             42 ;--------------------------------------------------------
                             43 ; absolute external ram data
                             44 ;--------------------------------------------------------
                             45 	.area _DABS (ABS)
                             46 ;--------------------------------------------------------
                             47 ; global & static initialisations
                             48 ;--------------------------------------------------------
                             49 	.area _HOME
                             50 	.area _GSINIT
                             51 	.area _GSFINAL
                             52 	.area _GSINIT
                             53 ;--------------------------------------------------------
                             54 ; Home
                             55 ;--------------------------------------------------------
                             56 	.area _HOME
                             57 	.area _HOME
                             58 ;--------------------------------------------------------
                             59 ; code
                             60 ;--------------------------------------------------------
                             61 	.area _CODE
                             62 ;src/game/world.c:3: cpctm_createTransparentMaskTable(g_masktable, 0x0100, M1, 0);
                             63 ;	---------------------------------
                             64 ; Function dummy_cpct_transparentMaskTable0M1_container
                             65 ; ---------------------------------
   0000                      66 _dummy_cpct_transparentMaskTable0M1_container::
                             67 	.area _g_masktable_ (ABS) 
   0100                      68 	.org 0x0100 
   0100                      69 	 _g_masktable::
   0100 FF EE DD CC BB AA    70 	.db 0xFF, 0xEE, 0xDD, 0xCC, 0xBB, 0xAA, 0x99, 0x88 
        99 88
   0108 77 66 55 44 33 22    71 	.db 0x77, 0x66, 0x55, 0x44, 0x33, 0x22, 0x11, 0x00 
        11 00
   0110 EE EE CC CC AA AA    72 	.db 0xEE, 0xEE, 0xCC, 0xCC, 0xAA, 0xAA, 0x88, 0x88 
        88 88
   0118 66 66 44 44 22 22    73 	.db 0x66, 0x66, 0x44, 0x44, 0x22, 0x22, 0x00, 0x00 
        00 00
   0120 DD CC DD CC 99 88    74 	.db 0xDD, 0xCC, 0xDD, 0xCC, 0x99, 0x88, 0x99, 0x88 
        99 88
   0128 55 44 55 44 11 00    75 	.db 0x55, 0x44, 0x55, 0x44, 0x11, 0x00, 0x11, 0x00 
        11 00
   0130 CC CC CC CC 88 88    76 	.db 0xCC, 0xCC, 0xCC, 0xCC, 0x88, 0x88, 0x88, 0x88 
        88 88
   0138 44 44 44 44 00 00    77 	.db 0x44, 0x44, 0x44, 0x44, 0x00, 0x00, 0x00, 0x00 
        00 00
   0140 BB AA 99 88 BB AA    78 	.db 0xBB, 0xAA, 0x99, 0x88, 0xBB, 0xAA, 0x99, 0x88 
        99 88
   0148 33 22 11 00 33 22    79 	.db 0x33, 0x22, 0x11, 0x00, 0x33, 0x22, 0x11, 0x00 
        11 00
   0150 AA AA 88 88 AA AA    80 	.db 0xAA, 0xAA, 0x88, 0x88, 0xAA, 0xAA, 0x88, 0x88 
        88 88
   0158 22 22 00 00 22 22    81 	.db 0x22, 0x22, 0x00, 0x00, 0x22, 0x22, 0x00, 0x00 
        00 00
   0160 99 88 99 88 99 88    82 	.db 0x99, 0x88, 0x99, 0x88, 0x99, 0x88, 0x99, 0x88 
        99 88
   0168 11 00 11 00 11 00    83 	.db 0x11, 0x00, 0x11, 0x00, 0x11, 0x00, 0x11, 0x00 
        11 00
   0170 88 88 88 88 88 88    84 	.db 0x88, 0x88, 0x88, 0x88, 0x88, 0x88, 0x88, 0x88 
        88 88
   0178 00 00 00 00 00 00    85 	.db 0x00, 0x00, 0x00, 0x00, 0x00, 0x00, 0x00, 0x00 
        00 00
   0180 77 66 55 44 33 22    86 	.db 0x77, 0x66, 0x55, 0x44, 0x33, 0x22, 0x11, 0x00 
        11 00
   0188 77 66 55 44 33 22    87 	.db 0x77, 0x66, 0x55, 0x44, 0x33, 0x22, 0x11, 0x00 
        11 00
   0190 66 66 44 44 22 22    88 	.db 0x66, 0x66, 0x44, 0x44, 0x22, 0x22, 0x00, 0x00 
        00 00
   0198 66 66 44 44 22 22    89 	.db 0x66, 0x66, 0x44, 0x44, 0x22, 0x22, 0x00, 0x00 
        00 00
   01A0 55 44 55 44 11 00    90 	.db 0x55, 0x44, 0x55, 0x44, 0x11, 0x00, 0x11, 0x00 
        11 00
   01A8 55 44 55 44 11 00    91 	.db 0x55, 0x44, 0x55, 0x44, 0x11, 0x00, 0x11, 0x00 
        11 00
   01B0 44 44 44 44 00 00    92 	.db 0x44, 0x44, 0x44, 0x44, 0x00, 0x00, 0x00, 0x00 
        00 00
   01B8 44 44 44 44 00 00    93 	.db 0x44, 0x44, 0x44, 0x44, 0x00, 0x00, 0x00, 0x00 
        00 00
   01C0 33 22 11 00 33 22    94 	.db 0x33, 0x22, 0x11, 0x00, 0x33, 0x22, 0x11, 0x00 
        11 00
   01C8 33 22 11 00 33 22    95 	.db 0x33, 0x22, 0x11, 0x00, 0x33, 0x22, 0x11, 0x00 
        11 00
   01D0 22 22 00 00 22 22    96 	.db 0x22, 0x22, 0x00, 0x00, 0x22, 0x22, 0x00, 0x00 
        00 00
   01D8 22 22 00 00 22 22    97 	.db 0x22, 0x22, 0x00, 0x00, 0x22, 0x22, 0x00, 0x00 
        00 00
   01E0 11 00 11 00 11 00    98 	.db 0x11, 0x00, 0x11, 0x00, 0x11, 0x00, 0x11, 0x00 
        11 00
   01E8 11 00 11 00 11 00    99 	.db 0x11, 0x00, 0x11, 0x00, 0x11, 0x00, 0x11, 0x00 
        11 00
   01F0 00 00 00 00 00 00   100 	.db 0x00, 0x00, 0x00, 0x00, 0x00, 0x00, 0x00, 0x00 
        00 00
   01F8 00 00 00 00 00 00   101 	.db 0x00, 0x00, 0x00, 0x00, 0x00, 0x00, 0x00, 0x00 
        00 00
                            102 	.area _CSEG (REL, CON) 
                            103 ;src/game/world.c:5: void drawCursor(u8 x, u8 y, u8 color)
                            104 ;	---------------------------------
                            105 ; Function drawCursor
                            106 ; ---------------------------------
   0000                     107 _drawCursor::
   0000 DD E5         [15]  108 	push	ix
   0002 DD 21 00 00   [14]  109 	ld	ix,#0
   0006 DD 39         [15]  110 	add	ix,sp
   0008 3B            [ 6]  111 	dec	sp
                            112 ;src/game/world.c:8: p_video = cpct_getScreenPtr(SCR_VMEM, x*TILESIZE_W, y*TILESIZE_H);
   0009 DD 7E 05      [19]  113 	ld	a, 5 (ix)
   000C 07            [ 4]  114 	rlca
   000D 07            [ 4]  115 	rlca
   000E 07            [ 4]  116 	rlca
   000F 07            [ 4]  117 	rlca
   0010 E6 F0         [ 7]  118 	and	a, #0xf0
   0012 4F            [ 4]  119 	ld	c, a
   0013 DD 7E 04      [19]  120 	ld	a, 4 (ix)
   0016 87            [ 4]  121 	add	a, a
   0017 87            [ 4]  122 	add	a, a
   0018 47            [ 4]  123 	ld	b, a
   0019 C5            [11]  124 	push	bc
   001A 79            [ 4]  125 	ld	a, c
   001B F5            [11]  126 	push	af
   001C 33            [ 6]  127 	inc	sp
   001D C5            [11]  128 	push	bc
   001E 33            [ 6]  129 	inc	sp
   001F 21 00 C0      [10]  130 	ld	hl, #0xc000
   0022 E5            [11]  131 	push	hl
   0023 CDr00r00      [17]  132 	call	_cpct_getScreenPtr
   0026 EB            [ 4]  133 	ex	de,hl
   0027 C1            [10]  134 	pop	bc
                            135 ;src/game/world.c:10: switch(CURSOR_MODE)
   0028 3E 11         [ 7]  136 	ld	a, #0x11
   002A FD 21r00r00   [14]  137 	ld	iy, #_CURSOR_MODE
   002E FD 96 00      [19]  138 	sub	a, 0 (iy)
   0031 DAr21r02      [10]  139 	jp	C, 00120$
   0034 D5            [11]  140 	push	de
   0035 FD 5E 00      [19]  141 	ld	e, 0 (iy)
   0038 16 00         [ 7]  142 	ld	d, #0x00
   003A 21r42r00      [10]  143 	ld	hl, #00126$
   003D 19            [11]  144 	add	hl, de
   003E 19            [11]  145 	add	hl, de
   003F 19            [11]  146 	add	hl, de
   0040 D1            [10]  147 	pop	de
   0041 E9            [ 4]  148 	jp	(hl)
   0042                     149 00126$:
   0042 C3r78r00      [10]  150 	jp	00101$
   0045 C3r21r02      [10]  151 	jp	00120$
   0048 C3r3Cr01      [10]  152 	jp	00103$
   004B C3r4Br01      [10]  153 	jp	00104$
   004E C3r5Ar01      [10]  154 	jp	00105$
   0051 C3r69r01      [10]  155 	jp	00106$
   0054 C3r78r01      [10]  156 	jp	00107$
   0057 C3r87r01      [10]  157 	jp	00108$
   005A C3r96r01      [10]  158 	jp	00109$
   005D C3rA5r01      [10]  159 	jp	00110$
   0060 C3rB3r01      [10]  160 	jp	00111$
   0063 C3rC1r01      [10]  161 	jp	00112$
   0066 C3rCFr01      [10]  162 	jp	00113$
   0069 C3rDDr01      [10]  163 	jp	00114$
   006C C3rEBr01      [10]  164 	jp	00115$
   006F C3rF9r01      [10]  165 	jp	00116$
   0072 C3r07r02      [10]  166 	jp	00117$
   0075 C3r15r02      [10]  167 	jp	00118$
                            168 ;src/game/world.c:12: case NONE:
   0078                     169 00101$:
                            170 ;src/game/world.c:13: cpct_memset (p_video, cpct_px2byteM1(color,color,color,color), 4);
   0078 C5            [11]  171 	push	bc
   0079 D5            [11]  172 	push	de
   007A DD 66 06      [19]  173 	ld	h, 6 (ix)
   007D DD 6E 06      [19]  174 	ld	l, 6 (ix)
   0080 E5            [11]  175 	push	hl
   0081 DD 66 06      [19]  176 	ld	h, 6 (ix)
   0084 DD 6E 06      [19]  177 	ld	l, 6 (ix)
   0087 E5            [11]  178 	push	hl
   0088 CDr00r00      [17]  179 	call	_cpct_px2byteM1
   008B F1            [10]  180 	pop	af
   008C F1            [10]  181 	pop	af
   008D DD 75 FF      [19]  182 	ld	-1 (ix), l
   0090 D1            [10]  183 	pop	de
   0091 21 04 00      [10]  184 	ld	hl, #0x0004
   0094 E5            [11]  185 	push	hl
   0095 DD 7E FF      [19]  186 	ld	a, -1 (ix)
   0098 F5            [11]  187 	push	af
   0099 33            [ 6]  188 	inc	sp
   009A D5            [11]  189 	push	de
   009B CDr00r00      [17]  190 	call	_cpct_memset
   009E C1            [10]  191 	pop	bc
                            192 ;src/game/world.c:14: p_video = cpct_getScreenPtr(SCR_VMEM, x*TILESIZE_W, y*TILESIZE_H+1);
   009F 51            [ 4]  193 	ld	d, c
   00A0 14            [ 4]  194 	inc	d
   00A1 C5            [11]  195 	push	bc
   00A2 58            [ 4]  196 	ld	e, b
   00A3 D5            [11]  197 	push	de
   00A4 21 00 C0      [10]  198 	ld	hl, #0xc000
   00A7 E5            [11]  199 	push	hl
   00A8 CDr00r00      [17]  200 	call	_cpct_getScreenPtr
   00AB E5            [11]  201 	push	hl
   00AC DD 66 06      [19]  202 	ld	h, 6 (ix)
   00AF DD 6E 06      [19]  203 	ld	l, 6 (ix)
   00B2 E5            [11]  204 	push	hl
   00B3 DD 66 06      [19]  205 	ld	h, 6 (ix)
   00B6 DD 6E 06      [19]  206 	ld	l, 6 (ix)
   00B9 E5            [11]  207 	push	hl
   00BA CDr00r00      [17]  208 	call	_cpct_px2byteM1
   00BD F1            [10]  209 	pop	af
   00BE F1            [10]  210 	pop	af
   00BF 4D            [ 4]  211 	ld	c, l
   00C0 D1            [10]  212 	pop	de
   00C1 F1            [10]  213 	pop	af
   00C2 47            [ 4]  214 	ld	b, a
   00C3 C5            [11]  215 	push	bc
   00C4 21 04 00      [10]  216 	ld	hl, #0x0004
   00C7 E5            [11]  217 	push	hl
   00C8 79            [ 4]  218 	ld	a, c
   00C9 F5            [11]  219 	push	af
   00CA 33            [ 6]  220 	inc	sp
   00CB D5            [11]  221 	push	de
   00CC CDr00r00      [17]  222 	call	_cpct_memset
   00CF C1            [10]  223 	pop	bc
                            224 ;src/game/world.c:18: p_video = cpct_getScreenPtr(SCR_VMEM, x*TILESIZE_W, (y+1)*TILESIZE_H-1);
   00D0 DD 7E 05      [19]  225 	ld	a, 5 (ix)
   00D3 3C            [ 4]  226 	inc	a
   00D4 07            [ 4]  227 	rlca
   00D5 07            [ 4]  228 	rlca
   00D6 07            [ 4]  229 	rlca
   00D7 07            [ 4]  230 	rlca
   00D8 E6 F0         [ 7]  231 	and	a, #0xf0
   00DA 4F            [ 4]  232 	ld	c, a
   00DB 51            [ 4]  233 	ld	d, c
   00DC 15            [ 4]  234 	dec	d
   00DD C5            [11]  235 	push	bc
   00DE 58            [ 4]  236 	ld	e, b
   00DF D5            [11]  237 	push	de
   00E0 21 00 C0      [10]  238 	ld	hl, #0xc000
   00E3 E5            [11]  239 	push	hl
   00E4 CDr00r00      [17]  240 	call	_cpct_getScreenPtr
   00E7 E5            [11]  241 	push	hl
   00E8 DD 66 06      [19]  242 	ld	h, 6 (ix)
   00EB DD 6E 06      [19]  243 	ld	l, 6 (ix)
   00EE E5            [11]  244 	push	hl
   00EF DD 66 06      [19]  245 	ld	h, 6 (ix)
   00F2 DD 6E 06      [19]  246 	ld	l, 6 (ix)
   00F5 E5            [11]  247 	push	hl
   00F6 CDr00r00      [17]  248 	call	_cpct_px2byteM1
   00F9 F1            [10]  249 	pop	af
   00FA F1            [10]  250 	pop	af
   00FB DD 75 FF      [19]  251 	ld	-1 (ix), l
   00FE D1            [10]  252 	pop	de
   00FF 21 04 00      [10]  253 	ld	hl, #0x0004
   0102 E5            [11]  254 	push	hl
   0103 DD 7E FF      [19]  255 	ld	a, -1 (ix)
   0106 F5            [11]  256 	push	af
   0107 33            [ 6]  257 	inc	sp
   0108 D5            [11]  258 	push	de
   0109 CDr00r00      [17]  259 	call	_cpct_memset
   010C C1            [10]  260 	pop	bc
                            261 ;src/game/world.c:20: p_video = cpct_getScreenPtr(SCR_VMEM, x*TILESIZE_W, (y+1)*TILESIZE_H-2);
   010D 51            [ 4]  262 	ld	d, c
   010E 15            [ 4]  263 	dec	d
   010F 15            [ 4]  264 	dec	d
   0110 58            [ 4]  265 	ld	e, b
   0111 D5            [11]  266 	push	de
   0112 21 00 C0      [10]  267 	ld	hl, #0xc000
   0115 E5            [11]  268 	push	hl
   0116 CDr00r00      [17]  269 	call	_cpct_getScreenPtr
                            270 ;src/game/world.c:21: cpct_memset (p_video, cpct_px2byteM1(color,color,color,color), 4);
   0119 E5            [11]  271 	push	hl
   011A DD 66 06      [19]  272 	ld	h, 6 (ix)
   011D DD 6E 06      [19]  273 	ld	l, 6 (ix)
   0120 E5            [11]  274 	push	hl
   0121 DD 66 06      [19]  275 	ld	h, 6 (ix)
   0124 DD 6E 06      [19]  276 	ld	l, 6 (ix)
   0127 E5            [11]  277 	push	hl
   0128 CDr00r00      [17]  278 	call	_cpct_px2byteM1
   012B F1            [10]  279 	pop	af
   012C F1            [10]  280 	pop	af
   012D 55            [ 4]  281 	ld	d, l
   012E C1            [10]  282 	pop	bc
   012F 21 04 00      [10]  283 	ld	hl, #0x0004
   0132 E5            [11]  284 	push	hl
   0133 D5            [11]  285 	push	de
   0134 33            [ 6]  286 	inc	sp
   0135 C5            [11]  287 	push	bc
   0136 CDr00r00      [17]  288 	call	_cpct_memset
                            289 ;src/game/world.c:22: break;
   0139 C3r21r02      [10]  290 	jp	00120$
                            291 ;src/game/world.c:26: case T_SSNS:
   013C                     292 00103$:
                            293 ;src/game/world.c:27: cpct_drawSprite(station_small_ns, p_video, TILESIZE_W, TILESIZE_H);
   013C 21 04 10      [10]  294 	ld	hl, #0x1004
   013F E5            [11]  295 	push	hl
   0140 D5            [11]  296 	push	de
   0141 21r00r00      [10]  297 	ld	hl, #_station_small_ns
   0144 E5            [11]  298 	push	hl
   0145 CDr00r00      [17]  299 	call	_cpct_drawSprite
                            300 ;src/game/world.c:28: break;
   0148 C3r21r02      [10]  301 	jp	00120$
                            302 ;src/game/world.c:29: case T_SSEW:
   014B                     303 00104$:
                            304 ;src/game/world.c:30: cpct_drawSprite(station_small_ew, p_video, TILESIZE_W, TILESIZE_H);
   014B 21 04 10      [10]  305 	ld	hl, #0x1004
   014E E5            [11]  306 	push	hl
   014F D5            [11]  307 	push	de
   0150 21r00r00      [10]  308 	ld	hl, #_station_small_ew
   0153 E5            [11]  309 	push	hl
   0154 CDr00r00      [17]  310 	call	_cpct_drawSprite
                            311 ;src/game/world.c:31: break;
   0157 C3r21r02      [10]  312 	jp	00120$
                            313 ;src/game/world.c:32: case T_SMNS:
   015A                     314 00105$:
                            315 ;src/game/world.c:33: cpct_drawSprite(station_medium_ns, p_video, TILESIZE_W, TILESIZE_H);
   015A 21 04 10      [10]  316 	ld	hl, #0x1004
   015D E5            [11]  317 	push	hl
   015E D5            [11]  318 	push	de
   015F 21r00r00      [10]  319 	ld	hl, #_station_medium_ns
   0162 E5            [11]  320 	push	hl
   0163 CDr00r00      [17]  321 	call	_cpct_drawSprite
                            322 ;src/game/world.c:34: break;
   0166 C3r21r02      [10]  323 	jp	00120$
                            324 ;src/game/world.c:35: case T_SMEW:
   0169                     325 00106$:
                            326 ;src/game/world.c:36: cpct_drawSprite(station_medium_ew, p_video, TILESIZE_W, TILESIZE_H);
   0169 21 04 10      [10]  327 	ld	hl, #0x1004
   016C E5            [11]  328 	push	hl
   016D D5            [11]  329 	push	de
   016E 21r00r00      [10]  330 	ld	hl, #_station_medium_ew
   0171 E5            [11]  331 	push	hl
   0172 CDr00r00      [17]  332 	call	_cpct_drawSprite
                            333 ;src/game/world.c:37: break;
   0175 C3r21r02      [10]  334 	jp	00120$
                            335 ;src/game/world.c:38: case T_SLNS:
   0178                     336 00107$:
                            337 ;src/game/world.c:39: cpct_drawSprite(station_large_ns, p_video, TILESIZE_W, TILESIZE_H);
   0178 21 04 10      [10]  338 	ld	hl, #0x1004
   017B E5            [11]  339 	push	hl
   017C D5            [11]  340 	push	de
   017D 21r00r00      [10]  341 	ld	hl, #_station_large_ns
   0180 E5            [11]  342 	push	hl
   0181 CDr00r00      [17]  343 	call	_cpct_drawSprite
                            344 ;src/game/world.c:40: break;
   0184 C3r21r02      [10]  345 	jp	00120$
                            346 ;src/game/world.c:41: case T_SLEW:
   0187                     347 00108$:
                            348 ;src/game/world.c:42: cpct_drawSprite(station_large_ew, p_video, TILESIZE_W, TILESIZE_H);
   0187 21 04 10      [10]  349 	ld	hl, #0x1004
   018A E5            [11]  350 	push	hl
   018B D5            [11]  351 	push	de
   018C 21r00r00      [10]  352 	ld	hl, #_station_large_ew
   018F E5            [11]  353 	push	hl
   0190 CDr00r00      [17]  354 	call	_cpct_drawSprite
                            355 ;src/game/world.c:43: break;
   0193 C3r21r02      [10]  356 	jp	00120$
                            357 ;src/game/world.c:44: case T_REW:
   0196                     358 00109$:
                            359 ;src/game/world.c:45: cpct_drawSprite(rail_ew, p_video, TILESIZE_W, TILESIZE_H);	
   0196 21 04 10      [10]  360 	ld	hl, #0x1004
   0199 E5            [11]  361 	push	hl
   019A D5            [11]  362 	push	de
   019B 21r00r00      [10]  363 	ld	hl, #_rail_ew
   019E E5            [11]  364 	push	hl
   019F CDr00r00      [17]  365 	call	_cpct_drawSprite
                            366 ;src/game/world.c:46: break;
   01A2 C3r21r02      [10]  367 	jp	00120$
                            368 ;src/game/world.c:47: case T_RNS:
   01A5                     369 00110$:
                            370 ;src/game/world.c:48: cpct_drawSprite(rail_ns, p_video, TILESIZE_W, TILESIZE_H);	
   01A5 21 04 10      [10]  371 	ld	hl, #0x1004
   01A8 E5            [11]  372 	push	hl
   01A9 D5            [11]  373 	push	de
   01AA 21r00r00      [10]  374 	ld	hl, #_rail_ns
   01AD E5            [11]  375 	push	hl
   01AE CDr00r00      [17]  376 	call	_cpct_drawSprite
                            377 ;src/game/world.c:49: break;
   01B1 18 6E         [12]  378 	jr	00120$
                            379 ;src/game/world.c:50: case T_REN:
   01B3                     380 00111$:
                            381 ;src/game/world.c:51: cpct_drawSprite(rail_en, p_video, TILESIZE_W, TILESIZE_H);	
   01B3 21 04 10      [10]  382 	ld	hl, #0x1004
   01B6 E5            [11]  383 	push	hl
   01B7 D5            [11]  384 	push	de
   01B8 21r00r00      [10]  385 	ld	hl, #_rail_en
   01BB E5            [11]  386 	push	hl
   01BC CDr00r00      [17]  387 	call	_cpct_drawSprite
                            388 ;src/game/world.c:52: break;
   01BF 18 60         [12]  389 	jr	00120$
                            390 ;src/game/world.c:53: case T_RES:
   01C1                     391 00112$:
                            392 ;src/game/world.c:54: cpct_drawSprite(rail_es, p_video, TILESIZE_W, TILESIZE_H);	
   01C1 21 04 10      [10]  393 	ld	hl, #0x1004
   01C4 E5            [11]  394 	push	hl
   01C5 D5            [11]  395 	push	de
   01C6 21r00r00      [10]  396 	ld	hl, #_rail_es
   01C9 E5            [11]  397 	push	hl
   01CA CDr00r00      [17]  398 	call	_cpct_drawSprite
                            399 ;src/game/world.c:55: break;
   01CD 18 52         [12]  400 	jr	00120$
                            401 ;src/game/world.c:56: case T_RWN:
   01CF                     402 00113$:
                            403 ;src/game/world.c:57: cpct_drawSprite(rail_wn, p_video, TILESIZE_W, TILESIZE_H);	
   01CF 21 04 10      [10]  404 	ld	hl, #0x1004
   01D2 E5            [11]  405 	push	hl
   01D3 D5            [11]  406 	push	de
   01D4 21r00r00      [10]  407 	ld	hl, #_rail_wn
   01D7 E5            [11]  408 	push	hl
   01D8 CDr00r00      [17]  409 	call	_cpct_drawSprite
                            410 ;src/game/world.c:58: break;
   01DB 18 44         [12]  411 	jr	00120$
                            412 ;src/game/world.c:59: case T_RWS:
   01DD                     413 00114$:
                            414 ;src/game/world.c:60: cpct_drawSprite(rail_ws, p_video, TILESIZE_W, TILESIZE_H);	
   01DD 21 04 10      [10]  415 	ld	hl, #0x1004
   01E0 E5            [11]  416 	push	hl
   01E1 D5            [11]  417 	push	de
   01E2 21r00r00      [10]  418 	ld	hl, #_rail_ws
   01E5 E5            [11]  419 	push	hl
   01E6 CDr00r00      [17]  420 	call	_cpct_drawSprite
                            421 ;src/game/world.c:61: break;
   01E9 18 36         [12]  422 	jr	00120$
                            423 ;src/game/world.c:62: case T_REWN:
   01EB                     424 00115$:
                            425 ;src/game/world.c:63: cpct_drawSprite(rail_ew_n, p_video, TILESIZE_W, TILESIZE_H);	
   01EB 21 04 10      [10]  426 	ld	hl, #0x1004
   01EE E5            [11]  427 	push	hl
   01EF D5            [11]  428 	push	de
   01F0 21r00r00      [10]  429 	ld	hl, #_rail_ew_n
   01F3 E5            [11]  430 	push	hl
   01F4 CDr00r00      [17]  431 	call	_cpct_drawSprite
                            432 ;src/game/world.c:64: break;
   01F7 18 28         [12]  433 	jr	00120$
                            434 ;src/game/world.c:65: case T_REWS:
   01F9                     435 00116$:
                            436 ;src/game/world.c:66: cpct_drawSprite(rail_ew_s, p_video, TILESIZE_W, TILESIZE_H);	
   01F9 21 04 10      [10]  437 	ld	hl, #0x1004
   01FC E5            [11]  438 	push	hl
   01FD D5            [11]  439 	push	de
   01FE 21r00r00      [10]  440 	ld	hl, #_rail_ew_s
   0201 E5            [11]  441 	push	hl
   0202 CDr00r00      [17]  442 	call	_cpct_drawSprite
                            443 ;src/game/world.c:67: break;
   0205 18 1A         [12]  444 	jr	00120$
                            445 ;src/game/world.c:68: case T_RNSE:
   0207                     446 00117$:
                            447 ;src/game/world.c:69: cpct_drawSprite(rail_ns_e, p_video, TILESIZE_W, TILESIZE_H);	
   0207 21 04 10      [10]  448 	ld	hl, #0x1004
   020A E5            [11]  449 	push	hl
   020B D5            [11]  450 	push	de
   020C 21r00r00      [10]  451 	ld	hl, #_rail_ns_e
   020F E5            [11]  452 	push	hl
   0210 CDr00r00      [17]  453 	call	_cpct_drawSprite
                            454 ;src/game/world.c:70: break;
   0213 18 0C         [12]  455 	jr	00120$
                            456 ;src/game/world.c:71: case T_RNSW:
   0215                     457 00118$:
                            458 ;src/game/world.c:72: cpct_drawSprite(rail_ns_w, p_video, TILESIZE_W, TILESIZE_H);
   0215 21 04 10      [10]  459 	ld	hl, #0x1004
   0218 E5            [11]  460 	push	hl
   0219 D5            [11]  461 	push	de
   021A 21r00r00      [10]  462 	ld	hl, #_rail_ns_w
   021D E5            [11]  463 	push	hl
   021E CDr00r00      [17]  464 	call	_cpct_drawSprite
                            465 ;src/game/world.c:74: }
   0221                     466 00120$:
   0221 33            [ 6]  467 	inc	sp
   0222 DD E1         [14]  468 	pop	ix
   0224 C9            [10]  469 	ret
                            470 ;src/game/world.c:77: void patternTile(u8 tileType, int index, u8 nBitsX, u8 nBitsY, u8 *pattern)
                            471 ;	---------------------------------
                            472 ; Function patternTile
                            473 ; ---------------------------------
   0225                     474 _patternTile::
   0225 DD E5         [15]  475 	push	ix
   0227 DD 21 00 00   [14]  476 	ld	ix,#0
   022B DD 39         [15]  477 	add	ix,sp
   022D 21 F7 FF      [10]  478 	ld	hl, #-9
   0230 39            [11]  479 	add	hl, sp
   0231 F9            [ 6]  480 	ld	sp, hl
                            481 ;src/game/world.c:82: for(iy=0; iy<nBitsY; iy++)
   0232 DD 7E 04      [19]  482 	ld	a, 4 (ix)
   0235 D6 08         [ 7]  483 	sub	a, #0x08
   0237 20 04         [12]  484 	jr	NZ,00153$
   0239 3E 01         [ 7]  485 	ld	a,#0x01
   023B 18 01         [12]  486 	jr	00154$
   023D                     487 00153$:
   023D AF            [ 4]  488 	xor	a,a
   023E                     489 00154$:
   023E DD 77 FF      [19]  490 	ld	-1 (ix), a
   0241 DD 7E 04      [19]  491 	ld	a, 4 (ix)
   0244 D6 02         [ 7]  492 	sub	a, #0x02
   0246 20 04         [12]  493 	jr	NZ,00155$
   0248 3E 01         [ 7]  494 	ld	a,#0x01
   024A 18 01         [12]  495 	jr	00156$
   024C                     496 00155$:
   024C AF            [ 4]  497 	xor	a,a
   024D                     498 00156$:
   024D DD 77 FC      [19]  499 	ld	-4 (ix), a
   0250 1E 00         [ 7]  500 	ld	e, #0x00
   0252                     501 00115$:
   0252 7B            [ 4]  502 	ld	a, e
   0253 DD 96 08      [19]  503 	sub	a, 8 (ix)
   0256 D2r0Ar03      [10]  504 	jp	NC, 00117$
                            505 ;src/game/world.c:84: for(ix=0; ix<nBitsX; ix++)
   0259 D5            [11]  506 	push	de
   025A 16 00         [ 7]  507 	ld	d,#0x00
   025C 6B            [ 4]  508 	ld	l, e
   025D 62            [ 4]  509 	ld	h, d
   025E 29            [11]  510 	add	hl, hl
   025F 29            [11]  511 	add	hl, hl
   0260 19            [11]  512 	add	hl, de
   0261 29            [11]  513 	add	hl, hl
   0262 29            [11]  514 	add	hl, hl
   0263 29            [11]  515 	add	hl, hl
   0264 29            [11]  516 	add	hl, hl
   0265 D1            [10]  517 	pop	de
   0266 4D            [ 4]  518 	ld	c, l
   0267 44            [ 4]  519 	ld	b, h
   0268 DD 7E 05      [19]  520 	ld	a, 5 (ix)
   026B 81            [ 4]  521 	add	a, c
   026C DD 77 F8      [19]  522 	ld	-8 (ix), a
   026F DD 7E 06      [19]  523 	ld	a, 6 (ix)
   0272 88            [ 4]  524 	adc	a, b
   0273 DD 77 F9      [19]  525 	ld	-7 (ix), a
   0276 D5            [11]  526 	push	de
   0277 DD 66 07      [19]  527 	ld	h, 7 (ix)
   027A 2E 00         [ 7]  528 	ld	l, #0x00
   027C 55            [ 4]  529 	ld	d, l
   027D 06 08         [ 7]  530 	ld	b, #0x08
   027F                     531 00157$:
   027F 29            [11]  532 	add	hl, hl
   0280 30 01         [12]  533 	jr	NC,00158$
   0282 19            [11]  534 	add	hl, de
   0283                     535 00158$:
   0283 10 FA         [13]  536 	djnz	00157$
   0285 D1            [10]  537 	pop	de
   0286 DD 75 FA      [19]  538 	ld	-6 (ix), l
   0289 DD 74 FB      [19]  539 	ld	-5 (ix), h
   028C 16 00         [ 7]  540 	ld	d, #0x00
   028E                     541 00112$:
   028E 7A            [ 4]  542 	ld	a, d
   028F DD 96 07      [19]  543 	sub	a, 7 (ix)
   0292 30 72         [12]  544 	jr	NC,00116$
                            545 ;src/game/world.c:86: if(cpct_getBit (pattern, iy*nBitsX+ix)!=0 && index+iy*WIDTH+ix < WIDTH*HEIGHT)
   0294 DD 72 FD      [19]  546 	ld	-3 (ix), d
   0297 DD 36 FE 00   [19]  547 	ld	-2 (ix), #0x00
   029B DD 7E FD      [19]  548 	ld	a, -3 (ix)
   029E DD 86 FA      [19]  549 	add	a, -6 (ix)
   02A1 4F            [ 4]  550 	ld	c, a
   02A2 DD 7E FE      [19]  551 	ld	a, -2 (ix)
   02A5 DD 8E FB      [19]  552 	adc	a, -5 (ix)
   02A8 47            [ 4]  553 	ld	b, a
   02A9 DD 6E 09      [19]  554 	ld	l,9 (ix)
   02AC DD 66 0A      [19]  555 	ld	h,10 (ix)
   02AF D5            [11]  556 	push	de
   02B0 C5            [11]  557 	push	bc
   02B1 E5            [11]  558 	push	hl
   02B2 CDr00r00      [17]  559 	call	_cpct_getBit
   02B5 DD 75 F7      [19]  560 	ld	-9 (ix), l
   02B8 D1            [10]  561 	pop	de
   02B9 DD 7E F7      [19]  562 	ld	a, -9 (ix)
   02BC B7            [ 4]  563 	or	a, a
   02BD 28 44         [12]  564 	jr	Z,00113$
   02BF DD 7E F8      [19]  565 	ld	a, -8 (ix)
   02C2 DD 86 FD      [19]  566 	add	a, -3 (ix)
   02C5 4F            [ 4]  567 	ld	c, a
   02C6 DD 7E F9      [19]  568 	ld	a, -7 (ix)
   02C9 DD 8E FE      [19]  569 	adc	a, -2 (ix)
   02CC 47            [ 4]  570 	ld	b,a
   02CD EE 80         [ 7]  571 	xor	a, #0x80
   02CF D6 8F         [ 7]  572 	sub	a, #0x8f
   02D1 30 30         [12]  573 	jr	NC,00113$
                            574 ;src/game/world.c:88: if(tileType == FOREST)
   02D3 DD 7E FF      [19]  575 	ld	a, -1 (ix)
   02D6 B7            [ 4]  576 	or	a, a
   02D7 28 0A         [12]  577 	jr	Z,00104$
                            578 ;src/game/world.c:89: p_world[index+iy*WIDTH+ix] = tileType;
   02D9 21r00r00      [10]  579 	ld	hl, #_p_world
   02DC 09            [11]  580 	add	hl, bc
   02DD DD 7E 04      [19]  581 	ld	a, 4 (ix)
   02E0 77            [ 7]  582 	ld	(hl), a
   02E1 18 20         [12]  583 	jr	00113$
   02E3                     584 00104$:
                            585 ;src/game/world.c:90: else if(tileType==DWELLINGS1)
   02E3 DD 7E FC      [19]  586 	ld	a, -4 (ix)
   02E6 B7            [ 4]  587 	or	a, a
   02E7 28 1A         [12]  588 	jr	Z,00113$
                            589 ;src/game/world.c:91: p_world[index+iy*WIDTH+ix] = (u8)cpct_getRandom_mxor_u8 ()%3+2;
   02E9 21r00r00      [10]  590 	ld	hl, #_p_world
   02EC 09            [11]  591 	add	hl, bc
   02ED E5            [11]  592 	push	hl
   02EE D5            [11]  593 	push	de
   02EF CDr00r00      [17]  594 	call	_cpct_getRandom_mxor_u8
   02F2 45            [ 4]  595 	ld	b, l
   02F3 3E 03         [ 7]  596 	ld	a, #0x03
   02F5 F5            [11]  597 	push	af
   02F6 33            [ 6]  598 	inc	sp
   02F7 C5            [11]  599 	push	bc
   02F8 33            [ 6]  600 	inc	sp
   02F9 CDr00r00      [17]  601 	call	__moduchar
   02FC F1            [10]  602 	pop	af
   02FD 4D            [ 4]  603 	ld	c, l
   02FE D1            [10]  604 	pop	de
   02FF E1            [10]  605 	pop	hl
   0300 0C            [ 4]  606 	inc	c
   0301 0C            [ 4]  607 	inc	c
   0302 71            [ 7]  608 	ld	(hl), c
   0303                     609 00113$:
                            610 ;src/game/world.c:84: for(ix=0; ix<nBitsX; ix++)
   0303 14            [ 4]  611 	inc	d
   0304 18 88         [12]  612 	jr	00112$
   0306                     613 00116$:
                            614 ;src/game/world.c:82: for(iy=0; iy<nBitsY; iy++)
   0306 1C            [ 4]  615 	inc	e
   0307 C3r52r02      [10]  616 	jp	00115$
   030A                     617 00117$:
   030A DD F9         [10]  618 	ld	sp, ix
   030C DD E1         [14]  619 	pop	ix
   030E C9            [10]  620 	ret
                            621 ;src/game/world.c:98: void generateWorld()
                            622 ;	---------------------------------
                            623 ; Function generateWorld
                            624 ; ---------------------------------
   030F                     625 _generateWorld::
   030F DD E5         [15]  626 	push	ix
   0311 DD 21 00 00   [14]  627 	ld	ix,#0
   0315 DD 39         [15]  628 	add	ix,sp
   0317 21 E4 FF      [10]  629 	ld	hl, #-28
   031A 39            [11]  630 	add	hl, sp
   031B F9            [ 6]  631 	ld	sp, hl
                            632 ;src/game/world.c:105: CURSOR_MODE = NONE;
   031C 21r00r00      [10]  633 	ld	hl,#_CURSOR_MODE + 0
   031F 36 00         [10]  634 	ld	(hl), #0x00
                            635 ;src/game/world.c:108: cpct_setSeed_mxor ((u32)cpct_count2VSYNC());
   0321 CDr00r00      [17]  636 	call	_cpct_count2VSYNC
   0324 11 00 00      [10]  637 	ld	de,#0x0000
   0327 CDr00r00      [17]  638 	call	_cpct_setSeed_mxor
                            639 ;src/game/world.c:112: for(iy=0; iy<HEIGHT*WIDTH;iy++)
   032A 01 00 00      [10]  640 	ld	bc, #0x0000
   032D                     641 00119$:
                            642 ;src/game/world.c:114: p_world[iy] =  cpct_getRandom_mxor_u16()%2;
   032D 21r00r00      [10]  643 	ld	hl, #_p_world
   0330 09            [11]  644 	add	hl, bc
   0331 E5            [11]  645 	push	hl
   0332 C5            [11]  646 	push	bc
   0333 CDr00r00      [17]  647 	call	_cpct_getRandom_mxor_u16
   0336 5D            [ 4]  648 	ld	e, l
   0337 C1            [10]  649 	pop	bc
   0338 E1            [10]  650 	pop	hl
   0339 7B            [ 4]  651 	ld	a, e
   033A E6 01         [ 7]  652 	and	a, #0x01
   033C 77            [ 7]  653 	ld	(hl), a
                            654 ;src/game/world.c:112: for(iy=0; iy<HEIGHT*WIDTH;iy++)
   033D 03            [ 6]  655 	inc	bc
   033E 78            [ 4]  656 	ld	a, b
   033F EE 80         [ 7]  657 	xor	a, #0x80
   0341 D6 8F         [ 7]  658 	sub	a, #0x8f
   0343 38 E8         [12]  659 	jr	C,00119$
                            660 ;src/game/world.c:119: for(ix=0; ix<NBFOREST; ix++)
   0345 21 04 00      [10]  661 	ld	hl, #0x0004
   0348 39            [11]  662 	add	hl, sp
   0349 DD 75 F8      [19]  663 	ld	-8 (ix), l
   034C DD 74 F9      [19]  664 	ld	-7 (ix), h
   034F 01 00 00      [10]  665 	ld	bc, #0x0000
   0352                     666 00121$:
                            667 ;src/game/world.c:121: iy = cpct_getRandom_mxor_u16()%(WIDTH*HEIGHT);
   0352 C5            [11]  668 	push	bc
   0353 CDr00r00      [17]  669 	call	_cpct_getRandom_mxor_u16
   0356 11 00 0F      [10]  670 	ld	de, #0x0f00
   0359 D5            [11]  671 	push	de
   035A E5            [11]  672 	push	hl
   035B CDr00r00      [17]  673 	call	__moduint
   035E F1            [10]  674 	pop	af
   035F E3            [19]  675 	ex	(sp),hl
   0360 CDr00r00      [17]  676 	call	_cpct_getRandom_mxor_u16
   0363 D1            [10]  677 	pop	de
   0364 C1            [10]  678 	pop	bc
   0365 7D            [ 4]  679 	ld	a, l
   0366 E6 03         [ 7]  680 	and	a, #0x03
   0368 6F            [ 4]  681 	ld	l, a
   0369 26 00         [ 7]  682 	ld	h, #0x00
                            683 ;src/game/world.c:127: p_forest[1] = 0b11000111;
   036B DD 7E F8      [19]  684 	ld	a, -8 (ix)
   036E C6 01         [ 7]  685 	add	a, #0x01
   0370 DD 77 FE      [19]  686 	ld	-2 (ix), a
   0373 DD 7E F9      [19]  687 	ld	a, -7 (ix)
   0376 CE 00         [ 7]  688 	adc	a, #0x00
   0378 DD 77 FF      [19]  689 	ld	-1 (ix), a
                            690 ;src/game/world.c:128: p_forest[2] = 0b11011110;
   037B DD 7E F8      [19]  691 	ld	a, -8 (ix)
   037E C6 02         [ 7]  692 	add	a, #0x02
   0380 DD 77 F6      [19]  693 	ld	-10 (ix), a
   0383 DD 7E F9      [19]  694 	ld	a, -7 (ix)
   0386 CE 00         [ 7]  695 	adc	a, #0x00
   0388 DD 77 F7      [19]  696 	ld	-9 (ix), a
                            697 ;src/game/world.c:129: p_forest[3] = 0b01111110;
   038B DD 7E F8      [19]  698 	ld	a, -8 (ix)
   038E C6 03         [ 7]  699 	add	a, #0x03
   0390 DD 77 F0      [19]  700 	ld	-16 (ix), a
   0393 DD 7E F9      [19]  701 	ld	a, -7 (ix)
   0396 CE 00         [ 7]  702 	adc	a, #0x00
   0398 DD 77 F1      [19]  703 	ld	-15 (ix), a
                            704 ;src/game/world.c:130: p_forest[4] = 0b11111110; 
   039B DD 7E F8      [19]  705 	ld	a, -8 (ix)
   039E C6 04         [ 7]  706 	add	a, #0x04
   03A0 DD 77 F2      [19]  707 	ld	-14 (ix), a
   03A3 DD 7E F9      [19]  708 	ld	a, -7 (ix)
   03A6 CE 00         [ 7]  709 	adc	a, #0x00
   03A8 DD 77 F3      [19]  710 	ld	-13 (ix), a
                            711 ;src/game/world.c:131: p_forest[5] = 0b01111111;
   03AB DD 7E F8      [19]  712 	ld	a, -8 (ix)
   03AE C6 05         [ 7]  713 	add	a, #0x05
   03B0 DD 77 FC      [19]  714 	ld	-4 (ix), a
   03B3 DD 7E F9      [19]  715 	ld	a, -7 (ix)
   03B6 CE 00         [ 7]  716 	adc	a, #0x00
   03B8 DD 77 FD      [19]  717 	ld	-3 (ix), a
                            718 ;src/game/world.c:132: p_forest[6] = 0b11101111;
   03BB DD 7E F8      [19]  719 	ld	a, -8 (ix)
   03BE C6 06         [ 7]  720 	add	a, #0x06
   03C0 DD 77 FA      [19]  721 	ld	-6 (ix), a
   03C3 DD 7E F9      [19]  722 	ld	a, -7 (ix)
   03C6 CE 00         [ 7]  723 	adc	a, #0x00
   03C8 DD 77 FB      [19]  724 	ld	-5 (ix), a
                            725 ;src/game/world.c:133: p_forest[7] = 0b11001111;
   03CB DD 7E F8      [19]  726 	ld	a, -8 (ix)
   03CE C6 07         [ 7]  727 	add	a, #0x07
   03D0 DD 77 F4      [19]  728 	ld	-12 (ix), a
   03D3 DD 7E F9      [19]  729 	ld	a, -7 (ix)
   03D6 CE 00         [ 7]  730 	adc	a, #0x00
   03D8 DD 77 F5      [19]  731 	ld	-11 (ix), a
                            732 ;src/game/world.c:123: switch(cpct_getRandom_mxor_u16()%4)
   03DB 7D            [ 4]  733 	ld	a, l
   03DC B7            [ 4]  734 	or	a, a
   03DD B4            [ 4]  735 	or	a, h
   03DE 28 16         [12]  736 	jr	Z,00102$
   03E0 7D            [ 4]  737 	ld	a, l
   03E1 3D            [ 4]  738 	dec	a
   03E2 B4            [ 4]  739 	or	a, h
   03E3 28 54         [12]  740 	jr	Z,00103$
   03E5 7D            [ 4]  741 	ld	a, l
   03E6 D6 02         [ 7]  742 	sub	a, #0x02
   03E8 B4            [ 4]  743 	or	a, h
   03E9 CAr7Cr04      [10]  744 	jp	Z,00104$
   03EC 7D            [ 4]  745 	ld	a, l
   03ED D6 03         [ 7]  746 	sub	a, #0x03
   03EF B4            [ 4]  747 	or	a, h
   03F0 CArBEr04      [10]  748 	jp	Z,00105$
   03F3 C3rFEr04      [10]  749 	jp	00106$
                            750 ;src/game/world.c:125: case 0:
   03F6                     751 00102$:
                            752 ;src/game/world.c:126: p_forest[0] = 0b10000100;
   03F6 DD 6E F8      [19]  753 	ld	l,-8 (ix)
   03F9 DD 66 F9      [19]  754 	ld	h,-7 (ix)
   03FC 36 84         [10]  755 	ld	(hl), #0x84
                            756 ;src/game/world.c:127: p_forest[1] = 0b11000111;
   03FE DD 6E FE      [19]  757 	ld	l,-2 (ix)
   0401 DD 66 FF      [19]  758 	ld	h,-1 (ix)
   0404 36 C7         [10]  759 	ld	(hl), #0xc7
                            760 ;src/game/world.c:128: p_forest[2] = 0b11011110;
   0406 DD 6E F6      [19]  761 	ld	l,-10 (ix)
   0409 DD 66 F7      [19]  762 	ld	h,-9 (ix)
   040C 36 DE         [10]  763 	ld	(hl), #0xde
                            764 ;src/game/world.c:129: p_forest[3] = 0b01111110;
   040E DD 6E F0      [19]  765 	ld	l,-16 (ix)
   0411 DD 66 F1      [19]  766 	ld	h,-15 (ix)
   0414 36 7E         [10]  767 	ld	(hl), #0x7e
                            768 ;src/game/world.c:130: p_forest[4] = 0b11111110; 
   0416 DD 6E F2      [19]  769 	ld	l,-14 (ix)
   0419 DD 66 F3      [19]  770 	ld	h,-13 (ix)
   041C 36 FE         [10]  771 	ld	(hl), #0xfe
                            772 ;src/game/world.c:131: p_forest[5] = 0b01111111;
   041E DD 6E FC      [19]  773 	ld	l,-4 (ix)
   0421 DD 66 FD      [19]  774 	ld	h,-3 (ix)
   0424 36 7F         [10]  775 	ld	(hl), #0x7f
                            776 ;src/game/world.c:132: p_forest[6] = 0b11101111;
   0426 DD 6E FA      [19]  777 	ld	l,-6 (ix)
   0429 DD 66 FB      [19]  778 	ld	h,-5 (ix)
   042C 36 EF         [10]  779 	ld	(hl), #0xef
                            780 ;src/game/world.c:133: p_forest[7] = 0b11001111;
   042E DD 6E F4      [19]  781 	ld	l,-12 (ix)
   0431 DD 66 F5      [19]  782 	ld	h,-11 (ix)
   0434 36 CF         [10]  783 	ld	(hl), #0xcf
                            784 ;src/game/world.c:134: break;
   0436 C3rFEr04      [10]  785 	jp	00106$
                            786 ;src/game/world.c:135: case 1:
   0439                     787 00103$:
                            788 ;src/game/world.c:136: p_forest[0] = 0b00001100;
   0439 DD 6E F8      [19]  789 	ld	l,-8 (ix)
   043C DD 66 F9      [19]  790 	ld	h,-7 (ix)
   043F 36 0C         [10]  791 	ld	(hl), #0x0c
                            792 ;src/game/world.c:137: p_forest[1] = 0b11111000;
   0441 DD 6E FE      [19]  793 	ld	l,-2 (ix)
   0444 DD 66 FF      [19]  794 	ld	h,-1 (ix)
   0447 36 F8         [10]  795 	ld	(hl), #0xf8
                            796 ;src/game/world.c:138: p_forest[2] = 0b00111111;
   0449 DD 6E F6      [19]  797 	ld	l,-10 (ix)
   044C DD 66 F7      [19]  798 	ld	h,-9 (ix)
   044F 36 3F         [10]  799 	ld	(hl), #0x3f
                            800 ;src/game/world.c:139: p_forest[3] = 0b01111110;
   0451 DD 6E F0      [19]  801 	ld	l,-16 (ix)
   0454 DD 66 F1      [19]  802 	ld	h,-15 (ix)
   0457 36 7E         [10]  803 	ld	(hl), #0x7e
                            804 ;src/game/world.c:140: p_forest[4] = 0b11111110; 
   0459 DD 6E F2      [19]  805 	ld	l,-14 (ix)
   045C DD 66 F3      [19]  806 	ld	h,-13 (ix)
   045F 36 FE         [10]  807 	ld	(hl), #0xfe
                            808 ;src/game/world.c:141: p_forest[5] = 0b01011111;
   0461 DD 6E FC      [19]  809 	ld	l,-4 (ix)
   0464 DD 66 FD      [19]  810 	ld	h,-3 (ix)
   0467 36 5F         [10]  811 	ld	(hl), #0x5f
                            812 ;src/game/world.c:142: p_forest[6] = 0b11001111;
   0469 DD 6E FA      [19]  813 	ld	l,-6 (ix)
   046C DD 66 FB      [19]  814 	ld	h,-5 (ix)
   046F 36 CF         [10]  815 	ld	(hl), #0xcf
                            816 ;src/game/world.c:143: p_forest[7] = 0b10001100;
   0471 DD 6E F4      [19]  817 	ld	l,-12 (ix)
   0474 DD 66 F5      [19]  818 	ld	h,-11 (ix)
   0477 36 8C         [10]  819 	ld	(hl), #0x8c
                            820 ;src/game/world.c:144: break;
   0479 C3rFEr04      [10]  821 	jp	00106$
                            822 ;src/game/world.c:145: case 2:
   047C                     823 00104$:
                            824 ;src/game/world.c:146: p_forest[0] = 0b00110000;
   047C DD 6E F8      [19]  825 	ld	l,-8 (ix)
   047F DD 66 F9      [19]  826 	ld	h,-7 (ix)
   0482 36 30         [10]  827 	ld	(hl), #0x30
                            828 ;src/game/world.c:147: p_forest[1] = 0b11110100;
   0484 DD 6E FE      [19]  829 	ld	l,-2 (ix)
   0487 DD 66 FF      [19]  830 	ld	h,-1 (ix)
   048A 36 F4         [10]  831 	ld	(hl), #0xf4
                            832 ;src/game/world.c:148: p_forest[2] = 0b11111111;
   048C DD 6E F6      [19]  833 	ld	l,-10 (ix)
   048F DD 66 F7      [19]  834 	ld	h,-9 (ix)
   0492 36 FF         [10]  835 	ld	(hl), #0xff
                            836 ;src/game/world.c:149: p_forest[3] = 0b11111111;
   0494 DD 6E F0      [19]  837 	ld	l,-16 (ix)
   0497 DD 66 F1      [19]  838 	ld	h,-15 (ix)
   049A 36 FF         [10]  839 	ld	(hl), #0xff
                            840 ;src/game/world.c:150: p_forest[4] = 0b01111100;
   049C DD 6E F2      [19]  841 	ld	l,-14 (ix)
   049F DD 66 F3      [19]  842 	ld	h,-13 (ix)
   04A2 36 7C         [10]  843 	ld	(hl), #0x7c
                            844 ;src/game/world.c:151: p_forest[5] = 0b01111110;
   04A4 DD 6E FC      [19]  845 	ld	l,-4 (ix)
   04A7 DD 66 FD      [19]  846 	ld	h,-3 (ix)
   04AA 36 7E         [10]  847 	ld	(hl), #0x7e
                            848 ;src/game/world.c:152: p_forest[6] = 0b00111110;
   04AC DD 6E FA      [19]  849 	ld	l,-6 (ix)
   04AF DD 66 FB      [19]  850 	ld	h,-5 (ix)
   04B2 36 3E         [10]  851 	ld	(hl), #0x3e
                            852 ;src/game/world.c:153: p_forest[7] = 0b00011000;
   04B4 DD 6E F4      [19]  853 	ld	l,-12 (ix)
   04B7 DD 66 F5      [19]  854 	ld	h,-11 (ix)
   04BA 36 18         [10]  855 	ld	(hl), #0x18
                            856 ;src/game/world.c:154: break;
   04BC 18 40         [12]  857 	jr	00106$
                            858 ;src/game/world.c:155: case 3:
   04BE                     859 00105$:
                            860 ;src/game/world.c:156: p_forest[0] = 0b11000000; 
   04BE DD 6E F8      [19]  861 	ld	l,-8 (ix)
   04C1 DD 66 F9      [19]  862 	ld	h,-7 (ix)
   04C4 36 C0         [10]  863 	ld	(hl), #0xc0
                            864 ;src/game/world.c:157: p_forest[1] = 0b11100111;
   04C6 DD 6E FE      [19]  865 	ld	l,-2 (ix)
   04C9 DD 66 FF      [19]  866 	ld	h,-1 (ix)
   04CC 36 E7         [10]  867 	ld	(hl), #0xe7
                            868 ;src/game/world.c:158: p_forest[2] = 0b01111110;
   04CE DD 6E F6      [19]  869 	ld	l,-10 (ix)
   04D1 DD 66 F7      [19]  870 	ld	h,-9 (ix)
   04D4 36 7E         [10]  871 	ld	(hl), #0x7e
                            872 ;src/game/world.c:159: p_forest[3] = 0b01111110;
   04D6 DD 6E F0      [19]  873 	ld	l,-16 (ix)
   04D9 DD 66 F1      [19]  874 	ld	h,-15 (ix)
   04DC 36 7E         [10]  875 	ld	(hl), #0x7e
                            876 ;src/game/world.c:160: p_forest[4] = 0b11111110;
   04DE DD 6E F2      [19]  877 	ld	l,-14 (ix)
   04E1 DD 66 F3      [19]  878 	ld	h,-13 (ix)
   04E4 36 FE         [10]  879 	ld	(hl), #0xfe
                            880 ;src/game/world.c:161: p_forest[5] = 0b11111100;
   04E6 DD 6E FC      [19]  881 	ld	l,-4 (ix)
   04E9 DD 66 FD      [19]  882 	ld	h,-3 (ix)
   04EC 36 FC         [10]  883 	ld	(hl), #0xfc
                            884 ;src/game/world.c:162: p_forest[6] = 0b01111000;
   04EE DD 6E FA      [19]  885 	ld	l,-6 (ix)
   04F1 DD 66 FB      [19]  886 	ld	h,-5 (ix)
   04F4 36 78         [10]  887 	ld	(hl), #0x78
                            888 ;src/game/world.c:163: p_forest[7] = 0b00110000;
   04F6 DD 6E F4      [19]  889 	ld	l,-12 (ix)
   04F9 DD 66 F5      [19]  890 	ld	h,-11 (ix)
   04FC 36 30         [10]  891 	ld	(hl), #0x30
                            892 ;src/game/world.c:165: }
   04FE                     893 00106$:
                            894 ;src/game/world.c:166: patternTile(FOREST, iy, 8, 8, p_forest);
   04FE DD 6E F8      [19]  895 	ld	l,-8 (ix)
   0501 DD 66 F9      [19]  896 	ld	h,-7 (ix)
   0504 C5            [11]  897 	push	bc
   0505 E5            [11]  898 	push	hl
   0506 21 08 08      [10]  899 	ld	hl, #0x0808
   0509 E5            [11]  900 	push	hl
   050A D5            [11]  901 	push	de
   050B 3E 08         [ 7]  902 	ld	a, #0x08
   050D F5            [11]  903 	push	af
   050E 33            [ 6]  904 	inc	sp
   050F CDr25r02      [17]  905 	call	_patternTile
   0512 21 07 00      [10]  906 	ld	hl, #7
   0515 39            [11]  907 	add	hl, sp
   0516 F9            [ 6]  908 	ld	sp, hl
   0517 C1            [10]  909 	pop	bc
                            910 ;src/game/world.c:119: for(ix=0; ix<NBFOREST; ix++)
   0518 03            [ 6]  911 	inc	bc
   0519 79            [ 4]  912 	ld	a, c
   051A D6 32         [ 7]  913 	sub	a, #0x32
   051C 78            [ 4]  914 	ld	a, b
   051D 17            [ 4]  915 	rla
   051E 3F            [ 4]  916 	ccf
   051F 1F            [ 4]  917 	rra
   0520 DE 80         [ 7]  918 	sbc	a, #0x80
   0522 DAr52r03      [10]  919 	jp	C, 00121$
                            920 ;src/game/world.c:172: for(ix=0; ix<NBFARM; ix++)
   0525 01 3C 00      [10]  921 	ld	bc, #0x003c
   0528                     922 00125$:
                            923 ;src/game/world.c:174: iy = cpct_getRandom_mxor_u16()%(WIDTH*HEIGHT)%(WIDTH*HEIGHT);
   0528 C5            [11]  924 	push	bc
   0529 CDr00r00      [17]  925 	call	_cpct_getRandom_mxor_u16
   052C 11 00 0F      [10]  926 	ld	de, #0x0f00
   052F D5            [11]  927 	push	de
   0530 E5            [11]  928 	push	hl
   0531 CDr00r00      [17]  929 	call	__moduint
   0534 F1            [10]  930 	pop	af
   0535 F1            [10]  931 	pop	af
   0536 11 00 0F      [10]  932 	ld	de, #0x0f00
   0539 D5            [11]  933 	push	de
   053A E5            [11]  934 	push	hl
   053B CDr00r00      [17]  935 	call	__moduint
   053E F1            [10]  936 	pop	af
   053F F1            [10]  937 	pop	af
   0540 C1            [10]  938 	pop	bc
                            939 ;src/game/world.c:175: p_world[iy] = cpct_rand()%2+5;
   0541 11r00r00      [10]  940 	ld	de, #_p_world
   0544 19            [11]  941 	add	hl, de
   0545 E5            [11]  942 	push	hl
   0546 C5            [11]  943 	push	bc
   0547 CDr00r00      [17]  944 	call	_cpct_getRandom_mxor_u8
   054A 7D            [ 4]  945 	ld	a, l
   054B C1            [10]  946 	pop	bc
   054C E1            [10]  947 	pop	hl
   054D E6 01         [ 7]  948 	and	a, #0x01
   054F C6 05         [ 7]  949 	add	a, #0x05
   0551 77            [ 7]  950 	ld	(hl), a
   0552 0B            [ 6]  951 	dec	bc
                            952 ;src/game/world.c:172: for(ix=0; ix<NBFARM; ix++)
   0553 78            [ 4]  953 	ld	a, b
   0554 B1            [ 4]  954 	or	a,c
   0555 20 D1         [12]  955 	jr	NZ,00125$
                            956 ;src/game/world.c:180: for(ix=0; ix<NBURBAN; ix++)
   0557 01 14 00      [10]  957 	ld	bc, #0x0014
   055A                     958 00128$:
                            959 ;src/game/world.c:182: iy = cpct_getRandom_mxor_u16()%(WIDTH*HEIGHT);
   055A C5            [11]  960 	push	bc
   055B CDr00r00      [17]  961 	call	_cpct_getRandom_mxor_u16
   055E 11 00 0F      [10]  962 	ld	de, #0x0f00
   0561 D5            [11]  963 	push	de
   0562 E5            [11]  964 	push	hl
   0563 CDr00r00      [17]  965 	call	__moduint
   0566 F1            [10]  966 	pop	af
   0567 F1            [10]  967 	pop	af
   0568 C1            [10]  968 	pop	bc
                            969 ;src/game/world.c:183: p_world[iy] = cpct_rand()%3+2;
   0569 11r00r00      [10]  970 	ld	de, #_p_world
   056C 19            [11]  971 	add	hl, de
   056D E5            [11]  972 	push	hl
   056E C5            [11]  973 	push	bc
   056F CDr00r00      [17]  974 	call	_cpct_getRandom_mxor_u8
   0572 55            [ 4]  975 	ld	d, l
   0573 3E 03         [ 7]  976 	ld	a, #0x03
   0575 F5            [11]  977 	push	af
   0576 33            [ 6]  978 	inc	sp
   0577 D5            [11]  979 	push	de
   0578 33            [ 6]  980 	inc	sp
   0579 CDr00r00      [17]  981 	call	__moduchar
   057C F1            [10]  982 	pop	af
   057D 5D            [ 4]  983 	ld	e, l
   057E C1            [10]  984 	pop	bc
   057F E1            [10]  985 	pop	hl
   0580 1C            [ 4]  986 	inc	e
   0581 1C            [ 4]  987 	inc	e
   0582 73            [ 7]  988 	ld	(hl), e
   0583 0B            [ 6]  989 	dec	bc
                            990 ;src/game/world.c:180: for(ix=0; ix<NBURBAN; ix++)
   0584 78            [ 4]  991 	ld	a, b
   0585 B1            [ 4]  992 	or	a,c
   0586 20 D2         [12]  993 	jr	NZ,00128$
                            994 ;src/game/world.c:186: for(ix=0; ix<NBURBAN; ix++)
   0588 21 02 00      [10]  995 	ld	hl, #0x0002
   058B 39            [11]  996 	add	hl, sp
   058C 4D            [ 4]  997 	ld	c, l
   058D 44            [ 4]  998 	ld	b, h
   058E 21 00 00      [10]  999 	ld	hl, #0x0000
   0591 E3            [19] 1000 	ex	(sp), hl
   0592                    1001 00129$:
                           1002 ;src/game/world.c:188: iy = cpct_getRandom_mxor_u16()%(WIDTH*HEIGHT);
   0592 C5            [11] 1003 	push	bc
   0593 CDr00r00      [17] 1004 	call	_cpct_getRandom_mxor_u16
   0596 11 00 0F      [10] 1005 	ld	de, #0x0f00
   0599 D5            [11] 1006 	push	de
   059A E5            [11] 1007 	push	hl
   059B CDr00r00      [17] 1008 	call	__moduint
   059E F1            [10] 1009 	pop	af
   059F F1            [10] 1010 	pop	af
   05A0 C1            [10] 1011 	pop	bc
   05A1 DD 75 F4      [19] 1012 	ld	-12 (ix), l
   05A4 DD 74 F5      [19] 1013 	ld	-11 (ix), h
                           1014 ;src/game/world.c:190: switch(cpct_rand()%6)
   05A7 C5            [11] 1015 	push	bc
   05A8 CDr00r00      [17] 1016 	call	_cpct_getRandom_mxor_u8
   05AB 55            [ 4] 1017 	ld	d, l
   05AC 3E 06         [ 7] 1018 	ld	a, #0x06
   05AE F5            [11] 1019 	push	af
   05AF 33            [ 6] 1020 	inc	sp
   05B0 D5            [11] 1021 	push	de
   05B1 33            [ 6] 1022 	inc	sp
   05B2 CDr00r00      [17] 1023 	call	__moduchar
   05B5 F1            [10] 1024 	pop	af
   05B6 5D            [ 4] 1025 	ld	e, l
   05B7 C1            [10] 1026 	pop	bc
   05B8 3E 05         [ 7] 1027 	ld	a, #0x05
   05BA 93            [ 4] 1028 	sub	a, e
   05BB 38 6A         [12] 1029 	jr	C,00116$
                           1030 ;src/game/world.c:194: p_cities[1] = 0b01000110; // 01100010;
   05BD 21 01 00      [10] 1031 	ld	hl, #0x0001
   05C0 09            [11] 1032 	add	hl,bc
   05C1 DD 75 FA      [19] 1033 	ld	-6 (ix), l
   05C4 DD 74 FB      [19] 1034 	ld	-5 (ix), h
                           1035 ;src/game/world.c:190: switch(cpct_rand()%6)
   05C7 16 00         [ 7] 1036 	ld	d, #0x00
   05C9 21rCFr05      [10] 1037 	ld	hl, #00211$
   05CC 19            [11] 1038 	add	hl, de
   05CD 19            [11] 1039 	add	hl, de
                           1040 ;src/game/world.c:192: case 0:
   05CE E9            [ 4] 1041 	jp	(hl)
   05CF                    1042 00211$:
   05CF 18 0A         [12] 1043 	jr	00110$
   05D1 18 15         [12] 1044 	jr	00111$
   05D3 18 20         [12] 1045 	jr	00112$
   05D5 18 2B         [12] 1046 	jr	00113$
   05D7 18 36         [12] 1047 	jr	00114$
   05D9 18 41         [12] 1048 	jr	00115$
   05DB                    1049 00110$:
                           1050 ;src/game/world.c:193: p_cities[0] = 0b01110010; // 01001110;
   05DB 3E 72         [ 7] 1051 	ld	a, #0x72
   05DD 02            [ 7] 1052 	ld	(bc), a
                           1053 ;src/game/world.c:194: p_cities[1] = 0b01000110; // 01100010;
   05DE DD 6E FA      [19] 1054 	ld	l,-6 (ix)
   05E1 DD 66 FB      [19] 1055 	ld	h,-5 (ix)
   05E4 36 46         [10] 1056 	ld	(hl), #0x46
                           1057 ;src/game/world.c:195: break;
   05E6 18 3F         [12] 1058 	jr	00116$
                           1059 ;src/game/world.c:197: case 1:
   05E8                    1060 00111$:
                           1061 ;src/game/world.c:198: p_cities[0] = 0b01100000; // 00000110;
   05E8 3E 60         [ 7] 1062 	ld	a, #0x60
   05EA 02            [ 7] 1063 	ld	(bc), a
                           1064 ;src/game/world.c:199: p_cities[1] = 0b00000110; // 01100000;
   05EB DD 6E FA      [19] 1065 	ld	l,-6 (ix)
   05EE DD 66 FB      [19] 1066 	ld	h,-5 (ix)
   05F1 36 06         [10] 1067 	ld	(hl), #0x06
                           1068 ;src/game/world.c:200: break;
   05F3 18 32         [12] 1069 	jr	00116$
                           1070 ;src/game/world.c:202: case 2:
   05F5                    1071 00112$:
                           1072 ;src/game/world.c:203: p_cities[0] = 0b00010000; // 00001000;
   05F5 3E 10         [ 7] 1073 	ld	a, #0x10
   05F7 02            [ 7] 1074 	ld	(bc), a
                           1075 ;src/game/world.c:204: p_cities[1] = 0b00000110; // 01100000;
   05F8 DD 6E FA      [19] 1076 	ld	l,-6 (ix)
   05FB DD 66 FB      [19] 1077 	ld	h,-5 (ix)
   05FE 36 06         [10] 1078 	ld	(hl), #0x06
                           1079 ;src/game/world.c:205: break;
   0600 18 25         [12] 1080 	jr	00116$
                           1081 ;src/game/world.c:207: case 3:
   0602                    1082 00113$:
                           1083 ;src/game/world.c:208: p_cities[0] = 0b11000000; // 00000011;
   0602 3E C0         [ 7] 1084 	ld	a, #0xc0
   0604 02            [ 7] 1085 	ld	(bc), a
                           1086 ;src/game/world.c:209: p_cities[1] = 0b00110001; // 10001100;
   0605 DD 6E FA      [19] 1087 	ld	l,-6 (ix)
   0608 DD 66 FB      [19] 1088 	ld	h,-5 (ix)
   060B 36 31         [10] 1089 	ld	(hl), #0x31
                           1090 ;src/game/world.c:210: break;
   060D 18 18         [12] 1091 	jr	00116$
                           1092 ;src/game/world.c:212: case 4:
   060F                    1093 00114$:
                           1094 ;src/game/world.c:213: p_cities[0] = 0b11000100; // 00100011;
   060F 3E C4         [ 7] 1095 	ld	a, #0xc4
   0611 02            [ 7] 1096 	ld	(bc), a
                           1097 ;src/game/world.c:214: p_cities[1] = 0b00001110; // 01110000;
   0612 DD 6E FA      [19] 1098 	ld	l,-6 (ix)
   0615 DD 66 FB      [19] 1099 	ld	h,-5 (ix)
   0618 36 0E         [10] 1100 	ld	(hl), #0x0e
                           1101 ;src/game/world.c:215: break;
   061A 18 0B         [12] 1102 	jr	00116$
                           1103 ;src/game/world.c:217: case 5:
   061C                    1104 00115$:
                           1105 ;src/game/world.c:218: p_cities[0] = 0b01000000; // 00000010;
   061C 3E 40         [ 7] 1106 	ld	a, #0x40
   061E 02            [ 7] 1107 	ld	(bc), a
                           1108 ;src/game/world.c:219: p_cities[1] = 0b01001110; // 01110010;
   061F DD 6E FA      [19] 1109 	ld	l,-6 (ix)
   0622 DD 66 FB      [19] 1110 	ld	h,-5 (ix)
   0625 36 4E         [10] 1111 	ld	(hl), #0x4e
                           1112 ;src/game/world.c:221: }
   0627                    1113 00116$:
                           1114 ;src/game/world.c:223: patternTile(DWELLINGS1, iy, 4, 4, p_cities);
   0627 59            [ 4] 1115 	ld	e, c
   0628 50            [ 4] 1116 	ld	d, b
   0629 C5            [11] 1117 	push	bc
   062A D5            [11] 1118 	push	de
   062B 21 04 04      [10] 1119 	ld	hl, #0x0404
   062E E5            [11] 1120 	push	hl
   062F DD 6E F4      [19] 1121 	ld	l,-12 (ix)
   0632 DD 66 F5      [19] 1122 	ld	h,-11 (ix)
   0635 E5            [11] 1123 	push	hl
   0636 3E 02         [ 7] 1124 	ld	a, #0x02
   0638 F5            [11] 1125 	push	af
   0639 33            [ 6] 1126 	inc	sp
   063A CDr25r02      [17] 1127 	call	_patternTile
   063D 21 07 00      [10] 1128 	ld	hl, #7
   0640 39            [11] 1129 	add	hl, sp
   0641 F9            [ 6] 1130 	ld	sp, hl
   0642 C1            [10] 1131 	pop	bc
                           1132 ;src/game/world.c:186: for(ix=0; ix<NBURBAN; ix++)
   0643 DD 34 E4      [23] 1133 	inc	-28 (ix)
   0646 20 03         [12] 1134 	jr	NZ,00212$
   0648 DD 34 E5      [23] 1135 	inc	-27 (ix)
   064B                    1136 00212$:
   064B DD 7E E4      [19] 1137 	ld	a, -28 (ix)
   064E D6 14         [ 7] 1138 	sub	a, #0x14
   0650 DD 7E E5      [19] 1139 	ld	a, -27 (ix)
   0653 17            [ 4] 1140 	rla
   0654 3F            [ 4] 1141 	ccf
   0655 1F            [ 4] 1142 	rra
   0656 DE 80         [ 7] 1143 	sbc	a, #0x80
   0658 DAr92r05      [10] 1144 	jp	C, 00129$
                           1145 ;src/game/world.c:228: for(ix=0; ix<NBLIVESTOCK; ix++)
   065B 01 13 00      [10] 1146 	ld	bc, #0x0013
   065E                    1147 00133$:
                           1148 ;src/game/world.c:230: iy = cpct_getRandom_mxor_u16()%(WIDTH*HEIGHT);
   065E C5            [11] 1149 	push	bc
   065F CDr00r00      [17] 1150 	call	_cpct_getRandom_mxor_u16
   0662 11 00 0F      [10] 1151 	ld	de, #0x0f00
   0665 D5            [11] 1152 	push	de
   0666 E5            [11] 1153 	push	hl
   0667 CDr00r00      [17] 1154 	call	__moduint
   066A F1            [10] 1155 	pop	af
   066B F1            [10] 1156 	pop	af
   066C C1            [10] 1157 	pop	bc
                           1158 ;src/game/world.c:231: p_world[iy] = LIVESTOCK;
   066D 11r00r00      [10] 1159 	ld	de, #_p_world
   0670 19            [11] 1160 	add	hl, de
   0671 36 09         [10] 1161 	ld	(hl), #0x09
   0673 0B            [ 6] 1162 	dec	bc
                           1163 ;src/game/world.c:228: for(ix=0; ix<NBLIVESTOCK; ix++)
   0674 78            [ 4] 1164 	ld	a, b
   0675 B1            [ 4] 1165 	or	a,c
   0676 20 E6         [12] 1166 	jr	NZ,00133$
   0678 DD F9         [10] 1167 	ld	sp, ix
   067A DD E1         [14] 1168 	pop	ix
   067C C9            [10] 1169 	ret
                           1170 ;src/game/world.c:235: void drawTile(u8 x_, u8 y_, u8 ix, u8 iy)
                           1171 ;	---------------------------------
                           1172 ; Function drawTile
                           1173 ; ---------------------------------
   067D                    1174 _drawTile::
   067D DD E5         [15] 1175 	push	ix
   067F DD 21 00 00   [14] 1176 	ld	ix,#0
   0683 DD 39         [15] 1177 	add	ix,sp
                           1178 ;src/game/world.c:238: int adress = (y_+iy)*WIDTH+x_+ix;
   0685 DD 4E 05      [19] 1179 	ld	c, 5 (ix)
   0688 06 00         [ 7] 1180 	ld	b, #0x00
   068A DD 6E 07      [19] 1181 	ld	l, 7 (ix)
   068D 26 00         [ 7] 1182 	ld	h, #0x00
   068F 09            [11] 1183 	add	hl, bc
   0690 4D            [ 4] 1184 	ld	c, l
   0691 44            [ 4] 1185 	ld	b, h
   0692 29            [11] 1186 	add	hl, hl
   0693 29            [11] 1187 	add	hl, hl
   0694 09            [11] 1188 	add	hl, bc
   0695 29            [11] 1189 	add	hl, hl
   0696 29            [11] 1190 	add	hl, hl
   0697 29            [11] 1191 	add	hl, hl
   0698 29            [11] 1192 	add	hl, hl
   0699 DD 4E 04      [19] 1193 	ld	c, 4 (ix)
   069C 06 00         [ 7] 1194 	ld	b, #0x00
   069E 09            [11] 1195 	add	hl, bc
   069F DD 4E 06      [19] 1196 	ld	c, 6 (ix)
   06A2 06 00         [ 7] 1197 	ld	b, #0x00
   06A4 09            [11] 1198 	add	hl,bc
   06A5 5D            [ 4] 1199 	ld	e, l
   06A6 54            [ 4] 1200 	ld	d, h
                           1201 ;src/game/world.c:240: p_video = cpct_getScreenPtr(SCR_VMEM, ix*TILESIZE_W, iy*TILESIZE_H);
   06A7 DD 7E 07      [19] 1202 	ld	a, 7 (ix)
   06AA 07            [ 4] 1203 	rlca
   06AB 07            [ 4] 1204 	rlca
   06AC 07            [ 4] 1205 	rlca
   06AD 07            [ 4] 1206 	rlca
   06AE E6 F0         [ 7] 1207 	and	a, #0xf0
   06B0 67            [ 4] 1208 	ld	h, a
   06B1 DD 7E 06      [19] 1209 	ld	a, 6 (ix)
   06B4 87            [ 4] 1210 	add	a, a
   06B5 87            [ 4] 1211 	add	a, a
   06B6 47            [ 4] 1212 	ld	b, a
   06B7 D5            [11] 1213 	push	de
   06B8 E5            [11] 1214 	push	hl
   06B9 33            [ 6] 1215 	inc	sp
   06BA C5            [11] 1216 	push	bc
   06BB 33            [ 6] 1217 	inc	sp
   06BC 21 00 C0      [10] 1218 	ld	hl, #0xc000
   06BF E5            [11] 1219 	push	hl
   06C0 CDr00r00      [17] 1220 	call	_cpct_getScreenPtr
   06C3 4D            [ 4] 1221 	ld	c, l
   06C4 44            [ 4] 1222 	ld	b, h
   06C5 D1            [10] 1223 	pop	de
                           1224 ;src/game/world.c:242: switch(p_world[adress])
   06C6 21r00r00      [10] 1225 	ld	hl, #_p_world+0
   06C9 19            [11] 1226 	add	hl, de
   06CA 5E            [ 7] 1227 	ld	e, (hl)
   06CB 3E 19         [ 7] 1228 	ld	a, #0x19
   06CD 93            [ 4] 1229 	sub	a, e
   06CE DArA3r08      [10] 1230 	jp	C, 00128$
   06D1 16 00         [ 7] 1231 	ld	d, #0x00
   06D3 21rDAr06      [10] 1232 	ld	hl, #00134$
   06D6 19            [11] 1233 	add	hl, de
   06D7 19            [11] 1234 	add	hl, de
   06D8 19            [11] 1235 	add	hl, de
   06D9 E9            [ 4] 1236 	jp	(hl)
   06DA                    1237 00134$:
   06DA C3r28r07      [10] 1238 	jp	00101$
   06DD C3r37r07      [10] 1239 	jp	00102$
   06E0 C3r46r07      [10] 1240 	jp	00103$
   06E3 C3r55r07      [10] 1241 	jp	00104$
   06E6 C3r64r07      [10] 1242 	jp	00105$
   06E9 C3r73r07      [10] 1243 	jp	00106$
   06EC C3r82r07      [10] 1244 	jp	00107$
   06EF C3r91r07      [10] 1245 	jp	00108$
   06F2 C3rA0r07      [10] 1246 	jp	00109$
   06F5 C3rAFr07      [10] 1247 	jp	00110$
   06F8 C3rBEr07      [10] 1248 	jp	00111$
   06FB C3rCDr07      [10] 1249 	jp	00112$
   06FE C3rDCr07      [10] 1250 	jp	00113$
   0701 C3rEBr07      [10] 1251 	jp	00114$
   0704 C3rFAr07      [10] 1252 	jp	00115$
   0707 C3r09r08      [10] 1253 	jp	00116$
   070A C3r18r08      [10] 1254 	jp	00117$
   070D C3r27r08      [10] 1255 	jp	00118$
   0710 C3r35r08      [10] 1256 	jp	00119$
   0713 C3r43r08      [10] 1257 	jp	00120$
   0716 C3r51r08      [10] 1258 	jp	00121$
   0719 C3r5Fr08      [10] 1259 	jp	00122$
   071C C3r6Dr08      [10] 1260 	jp	00123$
   071F C3r7Br08      [10] 1261 	jp	00124$
   0722 C3r89r08      [10] 1262 	jp	00125$
   0725 C3r97r08      [10] 1263 	jp	00126$
                           1264 ;src/game/world.c:244: case GRASS1:
   0728                    1265 00101$:
                           1266 ;src/game/world.c:245: cpct_drawSprite(grass1, p_video, TILESIZE_W, TILESIZE_H);
   0728 21 04 10      [10] 1267 	ld	hl, #0x1004
   072B E5            [11] 1268 	push	hl
   072C C5            [11] 1269 	push	bc
   072D 21r00r00      [10] 1270 	ld	hl, #_grass1
   0730 E5            [11] 1271 	push	hl
   0731 CDr00r00      [17] 1272 	call	_cpct_drawSprite
                           1273 ;src/game/world.c:246: break;
   0734 C3rA3r08      [10] 1274 	jp	00128$
                           1275 ;src/game/world.c:247: case GRASS2:
   0737                    1276 00102$:
                           1277 ;src/game/world.c:248: cpct_drawSprite(grass2, p_video, TILESIZE_W, TILESIZE_H);
   0737 21 04 10      [10] 1278 	ld	hl, #0x1004
   073A E5            [11] 1279 	push	hl
   073B C5            [11] 1280 	push	bc
   073C 21r00r00      [10] 1281 	ld	hl, #_grass2
   073F E5            [11] 1282 	push	hl
   0740 CDr00r00      [17] 1283 	call	_cpct_drawSprite
                           1284 ;src/game/world.c:249: break;
   0743 C3rA3r08      [10] 1285 	jp	00128$
                           1286 ;src/game/world.c:250: case DWELLINGS1:
   0746                    1287 00103$:
                           1288 ;src/game/world.c:251: cpct_drawSprite(dwellings1, p_video, TILESIZE_W, TILESIZE_H);
   0746 21 04 10      [10] 1289 	ld	hl, #0x1004
   0749 E5            [11] 1290 	push	hl
   074A C5            [11] 1291 	push	bc
   074B 21r00r00      [10] 1292 	ld	hl, #_dwellings1
   074E E5            [11] 1293 	push	hl
   074F CDr00r00      [17] 1294 	call	_cpct_drawSprite
                           1295 ;src/game/world.c:252: break;
   0752 C3rA3r08      [10] 1296 	jp	00128$
                           1297 ;src/game/world.c:253: case DWELLINGS2:
   0755                    1298 00104$:
                           1299 ;src/game/world.c:254: cpct_drawSprite(dwellings2, p_video, TILESIZE_W, TILESIZE_H);
   0755 21 04 10      [10] 1300 	ld	hl, #0x1004
   0758 E5            [11] 1301 	push	hl
   0759 C5            [11] 1302 	push	bc
   075A 21r00r00      [10] 1303 	ld	hl, #_dwellings2
   075D E5            [11] 1304 	push	hl
   075E CDr00r00      [17] 1305 	call	_cpct_drawSprite
                           1306 ;src/game/world.c:255: break;
   0761 C3rA3r08      [10] 1307 	jp	00128$
                           1308 ;src/game/world.c:256: case DWELLINGS3:
   0764                    1309 00105$:
                           1310 ;src/game/world.c:257: cpct_drawSprite(dwellings3, p_video, TILESIZE_W, TILESIZE_H);
   0764 21 04 10      [10] 1311 	ld	hl, #0x1004
   0767 E5            [11] 1312 	push	hl
   0768 C5            [11] 1313 	push	bc
   0769 21r00r00      [10] 1314 	ld	hl, #_dwellings3
   076C E5            [11] 1315 	push	hl
   076D CDr00r00      [17] 1316 	call	_cpct_drawSprite
                           1317 ;src/game/world.c:258: break;
   0770 C3rA3r08      [10] 1318 	jp	00128$
                           1319 ;src/game/world.c:259: case FARM1:
   0773                    1320 00106$:
                           1321 ;src/game/world.c:260: cpct_drawSprite(farm1, p_video, TILESIZE_W, TILESIZE_H);
   0773 21 04 10      [10] 1322 	ld	hl, #0x1004
   0776 E5            [11] 1323 	push	hl
   0777 C5            [11] 1324 	push	bc
   0778 21r00r00      [10] 1325 	ld	hl, #_farm1
   077B E5            [11] 1326 	push	hl
   077C CDr00r00      [17] 1327 	call	_cpct_drawSprite
                           1328 ;src/game/world.c:261: break;
   077F C3rA3r08      [10] 1329 	jp	00128$
                           1330 ;src/game/world.c:262: case FARM2:
   0782                    1331 00107$:
                           1332 ;src/game/world.c:263: cpct_drawSprite(farm2, p_video, TILESIZE_W, TILESIZE_H);
   0782 21 04 10      [10] 1333 	ld	hl, #0x1004
   0785 E5            [11] 1334 	push	hl
   0786 C5            [11] 1335 	push	bc
   0787 21r00r00      [10] 1336 	ld	hl, #_farm2
   078A E5            [11] 1337 	push	hl
   078B CDr00r00      [17] 1338 	call	_cpct_drawSprite
                           1339 ;src/game/world.c:264: break;
   078E C3rA3r08      [10] 1340 	jp	00128$
                           1341 ;src/game/world.c:265: case WATER:
   0791                    1342 00108$:
                           1343 ;src/game/world.c:266: cpct_drawSprite(water, p_video, TILESIZE_W, TILESIZE_H);
   0791 21 04 10      [10] 1344 	ld	hl, #0x1004
   0794 E5            [11] 1345 	push	hl
   0795 C5            [11] 1346 	push	bc
   0796 21r00r00      [10] 1347 	ld	hl, #_water
   0799 E5            [11] 1348 	push	hl
   079A CDr00r00      [17] 1349 	call	_cpct_drawSprite
                           1350 ;src/game/world.c:267: break;
   079D C3rA3r08      [10] 1351 	jp	00128$
                           1352 ;src/game/world.c:268: case FOREST:
   07A0                    1353 00109$:
                           1354 ;src/game/world.c:269: cpct_drawSprite(forest, p_video, TILESIZE_W, TILESIZE_H);
   07A0 21 04 10      [10] 1355 	ld	hl, #0x1004
   07A3 E5            [11] 1356 	push	hl
   07A4 C5            [11] 1357 	push	bc
   07A5 21r00r00      [10] 1358 	ld	hl, #_forest
   07A8 E5            [11] 1359 	push	hl
   07A9 CDr00r00      [17] 1360 	call	_cpct_drawSprite
                           1361 ;src/game/world.c:270: break;
   07AC C3rA3r08      [10] 1362 	jp	00128$
                           1363 ;src/game/world.c:271: case LIVESTOCK:
   07AF                    1364 00110$:
                           1365 ;src/game/world.c:272: cpct_drawSprite(livestock, p_video, TILESIZE_W, TILESIZE_H);
   07AF 21 04 10      [10] 1366 	ld	hl, #0x1004
   07B2 E5            [11] 1367 	push	hl
   07B3 C5            [11] 1368 	push	bc
   07B4 21r00r00      [10] 1369 	ld	hl, #_livestock
   07B7 E5            [11] 1370 	push	hl
   07B8 CDr00r00      [17] 1371 	call	_cpct_drawSprite
                           1372 ;src/game/world.c:273: break;
   07BB C3rA3r08      [10] 1373 	jp	00128$
                           1374 ;src/game/world.c:274: case SSNS:
   07BE                    1375 00111$:
                           1376 ;src/game/world.c:275: cpct_drawSprite(station_small_ns, p_video, TILESIZE_W, TILESIZE_H);
   07BE 21 04 10      [10] 1377 	ld	hl, #0x1004
   07C1 E5            [11] 1378 	push	hl
   07C2 C5            [11] 1379 	push	bc
   07C3 21r00r00      [10] 1380 	ld	hl, #_station_small_ns
   07C6 E5            [11] 1381 	push	hl
   07C7 CDr00r00      [17] 1382 	call	_cpct_drawSprite
                           1383 ;src/game/world.c:276: break;
   07CA C3rA3r08      [10] 1384 	jp	00128$
                           1385 ;src/game/world.c:277: case SSEW:
   07CD                    1386 00112$:
                           1387 ;src/game/world.c:278: cpct_drawSprite(station_small_ew, p_video, TILESIZE_W, TILESIZE_H);
   07CD 21 04 10      [10] 1388 	ld	hl, #0x1004
   07D0 E5            [11] 1389 	push	hl
   07D1 C5            [11] 1390 	push	bc
   07D2 21r00r00      [10] 1391 	ld	hl, #_station_small_ew
   07D5 E5            [11] 1392 	push	hl
   07D6 CDr00r00      [17] 1393 	call	_cpct_drawSprite
                           1394 ;src/game/world.c:279: break;
   07D9 C3rA3r08      [10] 1395 	jp	00128$
                           1396 ;src/game/world.c:280: case SMNS:
   07DC                    1397 00113$:
                           1398 ;src/game/world.c:281: cpct_drawSprite(station_medium_ns, p_video, TILESIZE_W, TILESIZE_H);
   07DC 21 04 10      [10] 1399 	ld	hl, #0x1004
   07DF E5            [11] 1400 	push	hl
   07E0 C5            [11] 1401 	push	bc
   07E1 21r00r00      [10] 1402 	ld	hl, #_station_medium_ns
   07E4 E5            [11] 1403 	push	hl
   07E5 CDr00r00      [17] 1404 	call	_cpct_drawSprite
                           1405 ;src/game/world.c:282: break;
   07E8 C3rA3r08      [10] 1406 	jp	00128$
                           1407 ;src/game/world.c:283: case SMEW:
   07EB                    1408 00114$:
                           1409 ;src/game/world.c:284: cpct_drawSprite(station_medium_ew, p_video, TILESIZE_W, TILESIZE_H);
   07EB 21 04 10      [10] 1410 	ld	hl, #0x1004
   07EE E5            [11] 1411 	push	hl
   07EF C5            [11] 1412 	push	bc
   07F0 21r00r00      [10] 1413 	ld	hl, #_station_medium_ew
   07F3 E5            [11] 1414 	push	hl
   07F4 CDr00r00      [17] 1415 	call	_cpct_drawSprite
                           1416 ;src/game/world.c:285: break;
   07F7 C3rA3r08      [10] 1417 	jp	00128$
                           1418 ;src/game/world.c:286: case SLNS:
   07FA                    1419 00115$:
                           1420 ;src/game/world.c:287: cpct_drawSprite(station_large_ns, p_video, TILESIZE_W, TILESIZE_H);
   07FA 21 04 10      [10] 1421 	ld	hl, #0x1004
   07FD E5            [11] 1422 	push	hl
   07FE C5            [11] 1423 	push	bc
   07FF 21r00r00      [10] 1424 	ld	hl, #_station_large_ns
   0802 E5            [11] 1425 	push	hl
   0803 CDr00r00      [17] 1426 	call	_cpct_drawSprite
                           1427 ;src/game/world.c:288: break;
   0806 C3rA3r08      [10] 1428 	jp	00128$
                           1429 ;src/game/world.c:289: case SLEW:
   0809                    1430 00116$:
                           1431 ;src/game/world.c:290: cpct_drawSprite(station_large_ew, p_video, TILESIZE_W, TILESIZE_H);
   0809 21 04 10      [10] 1432 	ld	hl, #0x1004
   080C E5            [11] 1433 	push	hl
   080D C5            [11] 1434 	push	bc
   080E 21r00r00      [10] 1435 	ld	hl, #_station_large_ew
   0811 E5            [11] 1436 	push	hl
   0812 CDr00r00      [17] 1437 	call	_cpct_drawSprite
                           1438 ;src/game/world.c:291: break;
   0815 C3rA3r08      [10] 1439 	jp	00128$
                           1440 ;src/game/world.c:292: case REW:
   0818                    1441 00117$:
                           1442 ;src/game/world.c:293: cpct_drawSprite(rail_ew, p_video, TILESIZE_W, TILESIZE_H);	
   0818 21 04 10      [10] 1443 	ld	hl, #0x1004
   081B E5            [11] 1444 	push	hl
   081C C5            [11] 1445 	push	bc
   081D 21r00r00      [10] 1446 	ld	hl, #_rail_ew
   0820 E5            [11] 1447 	push	hl
   0821 CDr00r00      [17] 1448 	call	_cpct_drawSprite
                           1449 ;src/game/world.c:294: break;
   0824 C3rA3r08      [10] 1450 	jp	00128$
                           1451 ;src/game/world.c:295: case RNS:
   0827                    1452 00118$:
                           1453 ;src/game/world.c:296: cpct_drawSprite(rail_ns, p_video, TILESIZE_W, TILESIZE_H);	
   0827 21 04 10      [10] 1454 	ld	hl, #0x1004
   082A E5            [11] 1455 	push	hl
   082B C5            [11] 1456 	push	bc
   082C 21r00r00      [10] 1457 	ld	hl, #_rail_ns
   082F E5            [11] 1458 	push	hl
   0830 CDr00r00      [17] 1459 	call	_cpct_drawSprite
                           1460 ;src/game/world.c:297: break;
   0833 18 6E         [12] 1461 	jr	00128$
                           1462 ;src/game/world.c:298: case REN:
   0835                    1463 00119$:
                           1464 ;src/game/world.c:299: cpct_drawSprite(rail_en, p_video, TILESIZE_W, TILESIZE_H);	
   0835 21 04 10      [10] 1465 	ld	hl, #0x1004
   0838 E5            [11] 1466 	push	hl
   0839 C5            [11] 1467 	push	bc
   083A 21r00r00      [10] 1468 	ld	hl, #_rail_en
   083D E5            [11] 1469 	push	hl
   083E CDr00r00      [17] 1470 	call	_cpct_drawSprite
                           1471 ;src/game/world.c:300: break;
   0841 18 60         [12] 1472 	jr	00128$
                           1473 ;src/game/world.c:301: case RES:
   0843                    1474 00120$:
                           1475 ;src/game/world.c:302: cpct_drawSprite(rail_es, p_video, TILESIZE_W, TILESIZE_H);	
   0843 21 04 10      [10] 1476 	ld	hl, #0x1004
   0846 E5            [11] 1477 	push	hl
   0847 C5            [11] 1478 	push	bc
   0848 21r00r00      [10] 1479 	ld	hl, #_rail_es
   084B E5            [11] 1480 	push	hl
   084C CDr00r00      [17] 1481 	call	_cpct_drawSprite
                           1482 ;src/game/world.c:303: break;
   084F 18 52         [12] 1483 	jr	00128$
                           1484 ;src/game/world.c:304: case RWN:
   0851                    1485 00121$:
                           1486 ;src/game/world.c:305: cpct_drawSprite(rail_wn, p_video, TILESIZE_W, TILESIZE_H);	
   0851 21 04 10      [10] 1487 	ld	hl, #0x1004
   0854 E5            [11] 1488 	push	hl
   0855 C5            [11] 1489 	push	bc
   0856 21r00r00      [10] 1490 	ld	hl, #_rail_wn
   0859 E5            [11] 1491 	push	hl
   085A CDr00r00      [17] 1492 	call	_cpct_drawSprite
                           1493 ;src/game/world.c:306: break;
   085D 18 44         [12] 1494 	jr	00128$
                           1495 ;src/game/world.c:307: case RWS:
   085F                    1496 00122$:
                           1497 ;src/game/world.c:308: cpct_drawSprite(rail_ws, p_video, TILESIZE_W, TILESIZE_H);	
   085F 21 04 10      [10] 1498 	ld	hl, #0x1004
   0862 E5            [11] 1499 	push	hl
   0863 C5            [11] 1500 	push	bc
   0864 21r00r00      [10] 1501 	ld	hl, #_rail_ws
   0867 E5            [11] 1502 	push	hl
   0868 CDr00r00      [17] 1503 	call	_cpct_drawSprite
                           1504 ;src/game/world.c:309: break;
   086B 18 36         [12] 1505 	jr	00128$
                           1506 ;src/game/world.c:310: case REWN:
   086D                    1507 00123$:
                           1508 ;src/game/world.c:311: cpct_drawSprite(rail_ew_n, p_video, TILESIZE_W, TILESIZE_H);	
   086D 21 04 10      [10] 1509 	ld	hl, #0x1004
   0870 E5            [11] 1510 	push	hl
   0871 C5            [11] 1511 	push	bc
   0872 21r00r00      [10] 1512 	ld	hl, #_rail_ew_n
   0875 E5            [11] 1513 	push	hl
   0876 CDr00r00      [17] 1514 	call	_cpct_drawSprite
                           1515 ;src/game/world.c:312: break;
   0879 18 28         [12] 1516 	jr	00128$
                           1517 ;src/game/world.c:313: case REWS:
   087B                    1518 00124$:
                           1519 ;src/game/world.c:314: cpct_drawSprite(rail_ew_s, p_video, TILESIZE_W, TILESIZE_H);	
   087B 21 04 10      [10] 1520 	ld	hl, #0x1004
   087E E5            [11] 1521 	push	hl
   087F C5            [11] 1522 	push	bc
   0880 21r00r00      [10] 1523 	ld	hl, #_rail_ew_s
   0883 E5            [11] 1524 	push	hl
   0884 CDr00r00      [17] 1525 	call	_cpct_drawSprite
                           1526 ;src/game/world.c:315: break;
   0887 18 1A         [12] 1527 	jr	00128$
                           1528 ;src/game/world.c:316: case RNSE:
   0889                    1529 00125$:
                           1530 ;src/game/world.c:317: cpct_drawSprite(rail_ns_e, p_video, TILESIZE_W, TILESIZE_H);	
   0889 21 04 10      [10] 1531 	ld	hl, #0x1004
   088C E5            [11] 1532 	push	hl
   088D C5            [11] 1533 	push	bc
   088E 21r00r00      [10] 1534 	ld	hl, #_rail_ns_e
   0891 E5            [11] 1535 	push	hl
   0892 CDr00r00      [17] 1536 	call	_cpct_drawSprite
                           1537 ;src/game/world.c:318: break;
   0895 18 0C         [12] 1538 	jr	00128$
                           1539 ;src/game/world.c:319: case RNSW:
   0897                    1540 00126$:
                           1541 ;src/game/world.c:320: cpct_drawSprite(rail_ns_w, p_video, TILESIZE_W, TILESIZE_H);
   0897 21 04 10      [10] 1542 	ld	hl, #0x1004
   089A E5            [11] 1543 	push	hl
   089B C5            [11] 1544 	push	bc
   089C 21r00r00      [10] 1545 	ld	hl, #_rail_ns_w
   089F E5            [11] 1546 	push	hl
   08A0 CDr00r00      [17] 1547 	call	_cpct_drawSprite
                           1548 ;src/game/world.c:322: }
   08A3                    1549 00128$:
   08A3 DD E1         [14] 1550 	pop	ix
   08A5 C9            [10] 1551 	ret
                           1552 ;src/game/world.c:325: void drawScrolls(u8 x_, u8 y_)
                           1553 ;	---------------------------------
                           1554 ; Function drawScrolls
                           1555 ; ---------------------------------
   08A6                    1556 _drawScrolls::
   08A6 DD E5         [15] 1557 	push	ix
   08A8 DD 21 00 00   [14] 1558 	ld	ix,#0
   08AC DD 39         [15] 1559 	add	ix,sp
                           1560 ;src/game/world.c:331: scrollx = x_* (WIDTH-TILESIZE_W)/(WIDTH-NBTILE_W);
   08AE DD 4E 04      [19] 1561 	ld	c,4 (ix)
   08B1 06 00         [ 7] 1562 	ld	b,#0x00
   08B3 69            [ 4] 1563 	ld	l, c
   08B4 60            [ 4] 1564 	ld	h, b
   08B5 29            [11] 1565 	add	hl, hl
   08B6 29            [11] 1566 	add	hl, hl
   08B7 29            [11] 1567 	add	hl, hl
   08B8 09            [11] 1568 	add	hl, bc
   08B9 29            [11] 1569 	add	hl, hl
   08BA 09            [11] 1570 	add	hl, bc
   08BB 29            [11] 1571 	add	hl, hl
   08BC 29            [11] 1572 	add	hl, hl
   08BD 01 3C 00      [10] 1573 	ld	bc, #0x003c
   08C0 C5            [11] 1574 	push	bc
   08C1 E5            [11] 1575 	push	hl
   08C2 CDr00r00      [17] 1576 	call	__divsint
   08C5 F1            [10] 1577 	pop	af
   08C6 F1            [10] 1578 	pop	af
   08C7 55            [ 4] 1579 	ld	d, l
                           1580 ;src/game/world.c:332: scrolly = y_* (HEIGHT*TILESIZE_W-TILESIZE_H)/(HEIGHT-NBTILE_H);
   08C8 DD 4E 05      [19] 1581 	ld	c,5 (ix)
   08CB 06 00         [ 7] 1582 	ld	b,#0x00
   08CD 69            [ 4] 1583 	ld	l, c
   08CE 60            [ 4] 1584 	ld	h, b
   08CF 29            [11] 1585 	add	hl, hl
   08D0 29            [11] 1586 	add	hl, hl
   08D1 09            [11] 1587 	add	hl, bc
   08D2 29            [11] 1588 	add	hl, hl
   08D3 09            [11] 1589 	add	hl, bc
   08D4 29            [11] 1590 	add	hl, hl
   08D5 29            [11] 1591 	add	hl, hl
   08D6 29            [11] 1592 	add	hl, hl
   08D7 29            [11] 1593 	add	hl, hl
   08D8 D5            [11] 1594 	push	de
   08D9 01 24 00      [10] 1595 	ld	bc, #0x0024
   08DC C5            [11] 1596 	push	bc
   08DD E5            [11] 1597 	push	hl
   08DE CDr00r00      [17] 1598 	call	__divsint
   08E1 F1            [10] 1599 	pop	af
   08E2 F1            [10] 1600 	pop	af
   08E3 45            [ 4] 1601 	ld	b, l
   08E4 D1            [10] 1602 	pop	de
                           1603 ;src/game/world.c:334: p_video = cpct_getScreenPtr(SCR_VMEM, scrollx, 0);
   08E5 C5            [11] 1604 	push	bc
   08E6 AF            [ 4] 1605 	xor	a, a
   08E7 F5            [11] 1606 	push	af
   08E8 33            [ 6] 1607 	inc	sp
   08E9 D5            [11] 1608 	push	de
   08EA 33            [ 6] 1609 	inc	sp
   08EB 21 00 C0      [10] 1610 	ld	hl, #0xc000
   08EE E5            [11] 1611 	push	hl
   08EF CDr00r00      [17] 1612 	call	_cpct_getScreenPtr
   08F2 C1            [10] 1613 	pop	bc
                           1614 ;src/game/world.c:335: cpct_drawSolidBox(p_video, cpct_px2byteM1(0,0,0,0), 4, TILESIZE_W);
   08F3 E5            [11] 1615 	push	hl
   08F4 C5            [11] 1616 	push	bc
   08F5 11 00 00      [10] 1617 	ld	de, #0x0000
   08F8 D5            [11] 1618 	push	de
   08F9 11 00 00      [10] 1619 	ld	de, #0x0000
   08FC D5            [11] 1620 	push	de
   08FD CDr00r00      [17] 1621 	call	_cpct_px2byteM1
   0900 F1            [10] 1622 	pop	af
   0901 F1            [10] 1623 	pop	af
   0902 4D            [ 4] 1624 	ld	c, l
   0903 F1            [10] 1625 	pop	af
   0904 47            [ 4] 1626 	ld	b, a
   0905 E1            [10] 1627 	pop	hl
   0906 C5            [11] 1628 	push	bc
   0907 11 04 04      [10] 1629 	ld	de, #0x0404
   090A D5            [11] 1630 	push	de
   090B 79            [ 4] 1631 	ld	a, c
   090C F5            [11] 1632 	push	af
   090D 33            [ 6] 1633 	inc	sp
   090E E5            [11] 1634 	push	hl
   090F CDr00r00      [17] 1635 	call	_cpct_drawSolidBox
   0912 F1            [10] 1636 	pop	af
   0913 F1            [10] 1637 	pop	af
   0914 33            [ 6] 1638 	inc	sp
   0915 33            [ 6] 1639 	inc	sp
   0916 AF            [ 4] 1640 	xor	a, a
   0917 F5            [11] 1641 	push	af
   0918 33            [ 6] 1642 	inc	sp
   0919 21 00 C0      [10] 1643 	ld	hl, #0xc000
   091C E5            [11] 1644 	push	hl
   091D CDr00r00      [17] 1645 	call	_cpct_getScreenPtr
                           1646 ;src/game/world.c:338: cpct_drawSolidBox(p_video, cpct_px2byteM1(0,0,0,0), 1, TILESIZE_H);
   0920 E5            [11] 1647 	push	hl
   0921 21 00 00      [10] 1648 	ld	hl, #0x0000
   0924 E5            [11] 1649 	push	hl
   0925 2E 00         [ 7] 1650 	ld	l, #0x00
   0927 E5            [11] 1651 	push	hl
   0928 CDr00r00      [17] 1652 	call	_cpct_px2byteM1
   092B F1            [10] 1653 	pop	af
   092C F1            [10] 1654 	pop	af
   092D 55            [ 4] 1655 	ld	d, l
   092E C1            [10] 1656 	pop	bc
   092F 21 01 10      [10] 1657 	ld	hl, #0x1001
   0932 E5            [11] 1658 	push	hl
   0933 D5            [11] 1659 	push	de
   0934 33            [ 6] 1660 	inc	sp
   0935 C5            [11] 1661 	push	bc
   0936 CDr00r00      [17] 1662 	call	_cpct_drawSolidBox
   0939 F1            [10] 1663 	pop	af
   093A F1            [10] 1664 	pop	af
   093B 33            [ 6] 1665 	inc	sp
   093C DD E1         [14] 1666 	pop	ix
   093E C9            [10] 1667 	ret
                           1668 ;src/game/world.c:341: void drawWorld(u8 x_, u8 y_)
                           1669 ;	---------------------------------
                           1670 ; Function drawWorld
                           1671 ; ---------------------------------
   093F                    1672 _drawWorld::
                           1673 ;src/game/world.c:346: for(iy=0; iy<NBTILE_H;iy++)
   093F 0E 00         [ 7] 1674 	ld	c, #0x00
                           1675 ;src/game/world.c:348: for(ix=0; ix<NBTILE_W;ix++)
   0941                    1676 00109$:
   0941 06 00         [ 7] 1677 	ld	b, #0x00
   0943                    1678 00103$:
                           1679 ;src/game/world.c:350: drawTile(x_, y_, ix, iy);
   0943 C5            [11] 1680 	push	bc
   0944 79            [ 4] 1681 	ld	a, c
   0945 F5            [11] 1682 	push	af
   0946 33            [ 6] 1683 	inc	sp
   0947 C5            [11] 1684 	push	bc
   0948 33            [ 6] 1685 	inc	sp
   0949 21 07 00      [10] 1686 	ld	hl, #7+0
   094C 39            [11] 1687 	add	hl, sp
   094D 7E            [ 7] 1688 	ld	a, (hl)
   094E F5            [11] 1689 	push	af
   094F 33            [ 6] 1690 	inc	sp
   0950 21 07 00      [10] 1691 	ld	hl, #7+0
   0953 39            [11] 1692 	add	hl, sp
   0954 7E            [ 7] 1693 	ld	a, (hl)
   0955 F5            [11] 1694 	push	af
   0956 33            [ 6] 1695 	inc	sp
   0957 CDr7Dr06      [17] 1696 	call	_drawTile
   095A F1            [10] 1697 	pop	af
   095B F1            [10] 1698 	pop	af
   095C C1            [10] 1699 	pop	bc
                           1700 ;src/game/world.c:348: for(ix=0; ix<NBTILE_W;ix++)
   095D 04            [ 4] 1701 	inc	b
   095E 78            [ 4] 1702 	ld	a, b
   095F D6 14         [ 7] 1703 	sub	a, #0x14
   0961 38 E0         [12] 1704 	jr	C,00103$
                           1705 ;src/game/world.c:346: for(iy=0; iy<NBTILE_H;iy++)
   0963 0C            [ 4] 1706 	inc	c
   0964 79            [ 4] 1707 	ld	a, c
   0965 D6 0C         [ 7] 1708 	sub	a, #0x0c
   0967 38 D8         [12] 1709 	jr	C,00109$
                           1710 ;src/game/world.c:354: drawScrolls(x_, y_);
   0969 21 03 00      [10] 1711 	ld	hl, #3+0
   096C 39            [11] 1712 	add	hl, sp
   096D 7E            [ 7] 1713 	ld	a, (hl)
   096E F5            [11] 1714 	push	af
   096F 33            [ 6] 1715 	inc	sp
   0970 21 03 00      [10] 1716 	ld	hl, #3+0
   0973 39            [11] 1717 	add	hl, sp
   0974 7E            [ 7] 1718 	ld	a, (hl)
   0975 F5            [11] 1719 	push	af
   0976 33            [ 6] 1720 	inc	sp
   0977 CDrA6r08      [17] 1721 	call	_drawScrolls
   097A F1            [10] 1722 	pop	af
   097B C9            [10] 1723 	ret
                           1724 ;src/game/world.c:361: void setTrainHeading(u8 i)
                           1725 ;	---------------------------------
                           1726 ; Function setTrainHeading
                           1727 ; ---------------------------------
   097C                    1728 _setTrainHeading::
   097C DD E5         [15] 1729 	push	ix
   097E DD 21 00 00   [14] 1730 	ld	ix,#0
   0982 DD 39         [15] 1731 	add	ix,sp
                           1732 ;src/game/world.c:365: switch(p_world[trainList[i].posY*WIDTH+trainList[i].posX])
   0984 DD 4E 04      [19] 1733 	ld	c,4 (ix)
   0987 06 00         [ 7] 1734 	ld	b,#0x00
   0989 69            [ 4] 1735 	ld	l, c
   098A 60            [ 4] 1736 	ld	h, b
   098B 29            [11] 1737 	add	hl, hl
   098C 29            [11] 1738 	add	hl, hl
   098D 09            [11] 1739 	add	hl, bc
   098E 29            [11] 1740 	add	hl, hl
   098F 09            [11] 1741 	add	hl, bc
   0990 4D            [ 4] 1742 	ld	c, l
   0991 44            [ 4] 1743 	ld	b, h
   0992 FD 21r00r00   [14] 1744 	ld	iy, #_trainList
   0996 FD 7E 00      [19] 1745 	ld	a, 0 (iy)
   0999 81            [ 4] 1746 	add	a, c
   099A 5F            [ 4] 1747 	ld	e, a
   099B FD 7E 01      [19] 1748 	ld	a, 1 (iy)
   099E 88            [ 4] 1749 	adc	a, b
   099F 57            [ 4] 1750 	ld	d, a
   09A0 6B            [ 4] 1751 	ld	l, e
   09A1 62            [ 4] 1752 	ld	h, d
   09A2 01 05 00      [10] 1753 	ld	bc, #0x0005
   09A5 09            [11] 1754 	add	hl, bc
   09A6 4E            [ 7] 1755 	ld	c, (hl)
   09A7 06 00         [ 7] 1756 	ld	b,#0x00
   09A9 69            [ 4] 1757 	ld	l, c
   09AA 60            [ 4] 1758 	ld	h, b
   09AB 29            [11] 1759 	add	hl, hl
   09AC 29            [11] 1760 	add	hl, hl
   09AD 09            [11] 1761 	add	hl, bc
   09AE 29            [11] 1762 	add	hl, hl
   09AF 29            [11] 1763 	add	hl, hl
   09B0 29            [11] 1764 	add	hl, hl
   09B1 29            [11] 1765 	add	hl, hl
   09B2 4D            [ 4] 1766 	ld	c, l
   09B3 44            [ 4] 1767 	ld	b, h
   09B4 6B            [ 4] 1768 	ld	l, e
   09B5 62            [ 4] 1769 	ld	h, d
   09B6 23            [ 6] 1770 	inc	hl
   09B7 23            [ 6] 1771 	inc	hl
   09B8 23            [ 6] 1772 	inc	hl
   09B9 23            [ 6] 1773 	inc	hl
   09BA 6E            [ 7] 1774 	ld	l, (hl)
   09BB 26 00         [ 7] 1775 	ld	h, #0x00
   09BD 09            [11] 1776 	add	hl, bc
   09BE 01r00r00      [10] 1777 	ld	bc, #_p_world
   09C1 09            [11] 1778 	add	hl, bc
   09C2 4E            [ 7] 1779 	ld	c, (hl)
                           1780 ;src/game/world.c:368: if(trainList[i].heading==1) trainList[i].heading=2;
   09C3 21 06 00      [10] 1781 	ld	hl, #0x0006
   09C6 19            [11] 1782 	add	hl, de
                           1783 ;src/game/world.c:365: switch(p_world[trainList[i].posY*WIDTH+trainList[i].posX])
   09C7 79            [ 4] 1784 	ld	a,c
   09C8 FE 12         [ 7] 1785 	cp	a,#0x12
   09CA 28 0E         [12] 1786 	jr	Z,00101$
   09CC FE 13         [ 7] 1787 	cp	a,#0x13
   09CE 28 1A         [12] 1788 	jr	Z,00107$
   09D0 FE 14         [ 7] 1789 	cp	a,#0x14
   09D2 28 26         [12] 1790 	jr	Z,00113$
   09D4 D6 15         [ 7] 1791 	sub	a, #0x15
   09D6 28 32         [12] 1792 	jr	Z,00119$
   09D8 18 3E         [12] 1793 	jr	00126$
                           1794 ;src/game/world.c:367: case REN:
   09DA                    1795 00101$:
                           1796 ;src/game/world.c:368: if(trainList[i].heading==1) trainList[i].heading=2;
   09DA 7E            [ 7] 1797 	ld	a, (hl)
   09DB FE 01         [ 7] 1798 	cp	a, #0x01
   09DD 20 04         [12] 1799 	jr	NZ,00105$
   09DF 36 02         [10] 1800 	ld	(hl), #0x02
   09E1 18 35         [12] 1801 	jr	00126$
   09E3                    1802 00105$:
                           1803 ;src/game/world.c:369: else if(trainList[i].heading==3) trainList[i].heading=0;
   09E3 D6 03         [ 7] 1804 	sub	a,#0x03
   09E5 20 31         [12] 1805 	jr	NZ,00126$
   09E7 77            [ 7] 1806 	ld	(hl),a
                           1807 ;src/game/world.c:370: break;
   09E8 18 2E         [12] 1808 	jr	00126$
                           1809 ;src/game/world.c:372: case RES:
   09EA                    1810 00107$:
                           1811 ;src/game/world.c:373: if(trainList[i].heading==1) trainList[i].heading=3;
   09EA 7E            [ 7] 1812 	ld	a, (hl)
   09EB FE 01         [ 7] 1813 	cp	a, #0x01
   09ED 20 04         [12] 1814 	jr	NZ,00111$
   09EF 36 03         [10] 1815 	ld	(hl), #0x03
   09F1 18 25         [12] 1816 	jr	00126$
   09F3                    1817 00111$:
                           1818 ;src/game/world.c:374: else if(trainList[i].heading==2) trainList[i].heading=0;
   09F3 D6 02         [ 7] 1819 	sub	a,#0x02
   09F5 20 21         [12] 1820 	jr	NZ,00126$
   09F7 77            [ 7] 1821 	ld	(hl),a
                           1822 ;src/game/world.c:375: break;
   09F8 18 1E         [12] 1823 	jr	00126$
                           1824 ;src/game/world.c:377: case RWN:
   09FA                    1825 00113$:
                           1826 ;src/game/world.c:378: if(trainList[i].heading==0) trainList[i].heading=2;   
   09FA 7E            [ 7] 1827 	ld	a, (hl)
   09FB B7            [ 4] 1828 	or	a, a
   09FC 20 04         [12] 1829 	jr	NZ,00117$
   09FE 36 02         [10] 1830 	ld	(hl), #0x02
   0A00 18 16         [12] 1831 	jr	00126$
   0A02                    1832 00117$:
                           1833 ;src/game/world.c:379: else if(trainList[i].heading==3) trainList[i].heading=1;
   0A02 D6 03         [ 7] 1834 	sub	a, #0x03
   0A04 20 12         [12] 1835 	jr	NZ,00126$
   0A06 36 01         [10] 1836 	ld	(hl), #0x01
                           1837 ;src/game/world.c:380: break;
   0A08 18 0E         [12] 1838 	jr	00126$
                           1839 ;src/game/world.c:382: case RWS:
   0A0A                    1840 00119$:
                           1841 ;src/game/world.c:383: if(trainList[i].heading==0) trainList[i].heading=3;
   0A0A 7E            [ 7] 1842 	ld	a, (hl)
   0A0B B7            [ 4] 1843 	or	a, a
   0A0C 20 04         [12] 1844 	jr	NZ,00123$
   0A0E 36 03         [10] 1845 	ld	(hl), #0x03
   0A10 18 06         [12] 1846 	jr	00126$
   0A12                    1847 00123$:
                           1848 ;src/game/world.c:384: else if(trainList[i].heading==2) trainList[i].heading=1;
   0A12 D6 02         [ 7] 1849 	sub	a, #0x02
   0A14 20 02         [12] 1850 	jr	NZ,00126$
   0A16 36 01         [10] 1851 	ld	(hl), #0x01
                           1852 ;src/game/world.c:386: }
   0A18                    1853 00126$:
   0A18 DD E1         [14] 1854 	pop	ix
   0A1A C9            [10] 1855 	ret
                           1856 ;src/game/world.c:389: void setPixel(int nX, unsigned char nY, unsigned char nColor)
                           1857 ;	---------------------------------
                           1858 ; Function setPixel
                           1859 ; ---------------------------------
   0A1B                    1860 _setPixel::
   0A1B DD E5         [15] 1861 	push	ix
   0A1D DD 21 00 00   [14] 1862 	ld	ix,#0
   0A21 DD 39         [15] 1863 	add	ix,sp
   0A23 F5            [11] 1864 	push	af
                           1865 ;src/game/world.c:394: int nPixel = nX % 4;
   0A24 21 04 00      [10] 1866 	ld	hl, #0x0004
   0A27 E5            [11] 1867 	push	hl
   0A28 DD 6E 04      [19] 1868 	ld	l,4 (ix)
   0A2B DD 66 05      [19] 1869 	ld	h,5 (ix)
   0A2E E5            [11] 1870 	push	hl
   0A2F CDr00r00      [17] 1871 	call	__modsint
   0A32 F1            [10] 1872 	pop	af
   0A33 F1            [10] 1873 	pop	af
   0A34 EB            [ 4] 1874 	ex	de,hl
                           1875 ;src/game/world.c:395: unsigned char *pAddress = (unsigned char *)((unsigned int)(0xC000 + ((nY / 8) * 80) + ((nY % 8) * 2048) + (nX / 4)));
   0A35 DD 7E 06      [19] 1876 	ld	a, 6 (ix)
   0A38 0F            [ 4] 1877 	rrca
   0A39 0F            [ 4] 1878 	rrca
   0A3A 0F            [ 4] 1879 	rrca
   0A3B E6 1F         [ 7] 1880 	and	a, #0x1f
   0A3D 4F            [ 4] 1881 	ld	c,a
   0A3E 06 00         [ 7] 1882 	ld	b,#0x00
   0A40 69            [ 4] 1883 	ld	l, c
   0A41 60            [ 4] 1884 	ld	h, b
   0A42 29            [11] 1885 	add	hl, hl
   0A43 29            [11] 1886 	add	hl, hl
   0A44 09            [11] 1887 	add	hl, bc
   0A45 29            [11] 1888 	add	hl, hl
   0A46 29            [11] 1889 	add	hl, hl
   0A47 29            [11] 1890 	add	hl, hl
   0A48 29            [11] 1891 	add	hl, hl
   0A49 01 00 C0      [10] 1892 	ld	bc, #0xc000
   0A4C 09            [11] 1893 	add	hl, bc
   0A4D DD 7E 06      [19] 1894 	ld	a, 6 (ix)
   0A50 E6 07         [ 7] 1895 	and	a, #0x07
   0A52 07            [ 4] 1896 	rlca
   0A53 07            [ 4] 1897 	rlca
   0A54 07            [ 4] 1898 	rlca
   0A55 E6 F8         [ 7] 1899 	and	a, #0xf8
   0A57 47            [ 4] 1900 	ld	b, a
   0A58 0E 00         [ 7] 1901 	ld	c, #0x00
   0A5A 09            [11] 1902 	add	hl, bc
   0A5B DD 4E 04      [19] 1903 	ld	c,4 (ix)
   0A5E DD 46 05      [19] 1904 	ld	b,5 (ix)
   0A61 CB 78         [ 8] 1905 	bit	7, b
   0A63 28 03         [12] 1906 	jr	Z,00128$
   0A65 03            [ 6] 1907 	inc	bc
   0A66 03            [ 6] 1908 	inc	bc
   0A67 03            [ 6] 1909 	inc	bc
   0A68                    1910 00128$:
   0A68 CB 28         [ 8] 1911 	sra	b
   0A6A CB 19         [ 8] 1912 	rr	c
   0A6C CB 28         [ 8] 1913 	sra	b
   0A6E CB 19         [ 8] 1914 	rr	c
   0A70 09            [11] 1915 	add	hl, bc
                           1916 ;src/game/world.c:399: *pAddress &= 119;
   0A71 4E            [ 7] 1917 	ld	c, (hl)
                           1918 ;src/game/world.c:401: if(nColor & 1)
   0A72 DD 7E 07      [19] 1919 	ld	a, 7 (ix)
   0A75 E6 01         [ 7] 1920 	and	a, #0x01
   0A77 DD 77 FE      [19] 1921 	ld	-2 (ix), a
                           1922 ;src/game/world.c:403: if(nColor & 2)
   0A7A DD 7E 07      [19] 1923 	ld	a, 7 (ix)
   0A7D E6 02         [ 7] 1924 	and	a, #0x02
   0A7F DD 77 FF      [19] 1925 	ld	-1 (ix), a
                           1926 ;src/game/world.c:397: if(nPixel == 0)
   0A82 7A            [ 4] 1927 	ld	a, d
   0A83 B3            [ 4] 1928 	or	a,e
   0A84 20 18         [12] 1929 	jr	NZ,00124$
                           1930 ;src/game/world.c:399: *pAddress &= 119;
   0A86 79            [ 4] 1931 	ld	a, c
   0A87 E6 77         [ 7] 1932 	and	a, #0x77
   0A89 77            [ 7] 1933 	ld	(hl), a
                           1934 ;src/game/world.c:401: if(nColor & 1)
   0A8A DD 7E FE      [19] 1935 	ld	a, -2 (ix)
   0A8D B7            [ 4] 1936 	or	a, a
   0A8E 28 03         [12] 1937 	jr	Z,00102$
                           1938 ;src/game/world.c:402: *pAddress |= 128;
   0A90 CB FE         [15] 1939 	set	7, (hl)
   0A92 7E            [ 7] 1940 	ld	a, (hl)
   0A93                    1941 00102$:
                           1942 ;src/game/world.c:403: if(nColor & 2)
   0A93 DD 7E FF      [19] 1943 	ld	a, -1 (ix)
   0A96 B7            [ 4] 1944 	or	a, a
   0A97 28 56         [12] 1945 	jr	Z,00126$
                           1946 ;src/game/world.c:404: *pAddress |= 8;
   0A99 CB DE         [15] 1947 	set	3, (hl)
   0A9B 7E            [ 7] 1948 	ld	a, (hl)
   0A9C 18 51         [12] 1949 	jr	00126$
   0A9E                    1950 00124$:
                           1951 ;src/game/world.c:406: else if(nPixel == 1)
   0A9E 7B            [ 4] 1952 	ld	a, e
   0A9F 3D            [ 4] 1953 	dec	a
   0AA0 B2            [ 4] 1954 	or	a, d
   0AA1 20 18         [12] 1955 	jr	NZ,00121$
                           1956 ;src/game/world.c:408: *pAddress &= 187;
   0AA3 79            [ 4] 1957 	ld	a, c
   0AA4 E6 BB         [ 7] 1958 	and	a, #0xbb
   0AA6 77            [ 7] 1959 	ld	(hl), a
                           1960 ;src/game/world.c:410: if(nColor & 1)
   0AA7 DD 7E FE      [19] 1961 	ld	a, -2 (ix)
   0AAA B7            [ 4] 1962 	or	a, a
   0AAB 28 03         [12] 1963 	jr	Z,00106$
                           1964 ;src/game/world.c:411: *pAddress |= 64;
   0AAD CB F6         [15] 1965 	set	6, (hl)
   0AAF 7E            [ 7] 1966 	ld	a, (hl)
   0AB0                    1967 00106$:
                           1968 ;src/game/world.c:412: if(nColor & 2)
   0AB0 DD 7E FF      [19] 1969 	ld	a, -1 (ix)
   0AB3 B7            [ 4] 1970 	or	a, a
   0AB4 28 39         [12] 1971 	jr	Z,00126$
                           1972 ;src/game/world.c:413: *pAddress |= 4;
   0AB6 CB D6         [15] 1973 	set	2, (hl)
   0AB8 7E            [ 7] 1974 	ld	a, (hl)
   0AB9 18 34         [12] 1975 	jr	00126$
   0ABB                    1976 00121$:
                           1977 ;src/game/world.c:415: else if(nPixel == 2)
   0ABB 7B            [ 4] 1978 	ld	a, e
   0ABC D6 02         [ 7] 1979 	sub	a, #0x02
   0ABE B2            [ 4] 1980 	or	a, d
   0ABF 20 18         [12] 1981 	jr	NZ,00118$
                           1982 ;src/game/world.c:417: *pAddress &= 221;
   0AC1 79            [ 4] 1983 	ld	a, c
   0AC2 E6 DD         [ 7] 1984 	and	a, #0xdd
   0AC4 77            [ 7] 1985 	ld	(hl), a
                           1986 ;src/game/world.c:419: if(nColor & 1)
   0AC5 DD 7E FE      [19] 1987 	ld	a, -2 (ix)
   0AC8 B7            [ 4] 1988 	or	a, a
   0AC9 28 03         [12] 1989 	jr	Z,00110$
                           1990 ;src/game/world.c:420: *pAddress |= 32;
   0ACB CB EE         [15] 1991 	set	5, (hl)
   0ACD 7E            [ 7] 1992 	ld	a, (hl)
   0ACE                    1993 00110$:
                           1994 ;src/game/world.c:421: if(nColor & 2)
   0ACE DD 7E FF      [19] 1995 	ld	a, -1 (ix)
   0AD1 B7            [ 4] 1996 	or	a, a
   0AD2 28 1B         [12] 1997 	jr	Z,00126$
                           1998 ;src/game/world.c:422: *pAddress |= 2;
   0AD4 CB CE         [15] 1999 	set	1, (hl)
   0AD6 7E            [ 7] 2000 	ld	a, (hl)
   0AD7 18 16         [12] 2001 	jr	00126$
   0AD9                    2002 00118$:
                           2003 ;src/game/world.c:426: *pAddress &= 238;
   0AD9 79            [ 4] 2004 	ld	a, c
   0ADA E6 EE         [ 7] 2005 	and	a, #0xee
   0ADC 77            [ 7] 2006 	ld	(hl), a
                           2007 ;src/game/world.c:428: if(nColor & 1)
   0ADD DD 7E FE      [19] 2008 	ld	a, -2 (ix)
   0AE0 B7            [ 4] 2009 	or	a, a
   0AE1 28 03         [12] 2010 	jr	Z,00114$
                           2011 ;src/game/world.c:429: *pAddress |= 16;
   0AE3 CB E6         [15] 2012 	set	4, (hl)
   0AE5 7E            [ 7] 2013 	ld	a, (hl)
   0AE6                    2014 00114$:
                           2015 ;src/game/world.c:430: if(nColor & 2)
   0AE6 DD 7E FF      [19] 2016 	ld	a, -1 (ix)
   0AE9 B7            [ 4] 2017 	or	a, a
   0AEA 28 03         [12] 2018 	jr	Z,00126$
                           2019 ;src/game/world.c:431: *pAddress |= 1;
   0AEC CB C6         [15] 2020 	set	0, (hl)
   0AEE 7E            [ 7] 2021 	ld	a, (hl)
   0AEF                    2022 00126$:
   0AEF DD F9         [10] 2023 	ld	sp, ix
   0AF1 DD E1         [14] 2024 	pop	ix
   0AF3 C9            [10] 2025 	ret
                           2026 ;src/game/world.c:435: u8 isPixelBlack(int nX, unsigned char nY)
                           2027 ;	---------------------------------
                           2028 ; Function isPixelBlack
                           2029 ; ---------------------------------
   0AF4                    2030 _isPixelBlack::
   0AF4 DD E5         [15] 2031 	push	ix
   0AF6 DD 21 00 00   [14] 2032 	ld	ix,#0
   0AFA DD 39         [15] 2033 	add	ix,sp
                           2034 ;src/game/world.c:438: int nPixel = nX % 4;
   0AFC 21 04 00      [10] 2035 	ld	hl, #0x0004
   0AFF E5            [11] 2036 	push	hl
   0B00 DD 6E 04      [19] 2037 	ld	l,4 (ix)
   0B03 DD 66 05      [19] 2038 	ld	h,5 (ix)
   0B06 E5            [11] 2039 	push	hl
   0B07 CDr00r00      [17] 2040 	call	__modsint
   0B0A F1            [10] 2041 	pop	af
   0B0B F1            [10] 2042 	pop	af
   0B0C 4D            [ 4] 2043 	ld	c, l
   0B0D 44            [ 4] 2044 	ld	b, h
                           2045 ;src/game/world.c:441: unsigned char *pAddress = (unsigned char *)((unsigned int)(0xC000 + ((nY / 8) * 80) + ((nY % 8) * 2048) + (nX / 4)));
   0B0E DD 7E 06      [19] 2046 	ld	a, 6 (ix)
   0B11 0F            [ 4] 2047 	rrca
   0B12 0F            [ 4] 2048 	rrca
   0B13 0F            [ 4] 2049 	rrca
   0B14 E6 1F         [ 7] 2050 	and	a, #0x1f
   0B16 5F            [ 4] 2051 	ld	e,a
   0B17 16 00         [ 7] 2052 	ld	d,#0x00
   0B19 6B            [ 4] 2053 	ld	l, e
   0B1A 62            [ 4] 2054 	ld	h, d
   0B1B 29            [11] 2055 	add	hl, hl
   0B1C 29            [11] 2056 	add	hl, hl
   0B1D 19            [11] 2057 	add	hl, de
   0B1E 29            [11] 2058 	add	hl, hl
   0B1F 29            [11] 2059 	add	hl, hl
   0B20 29            [11] 2060 	add	hl, hl
   0B21 29            [11] 2061 	add	hl, hl
   0B22 11 00 C0      [10] 2062 	ld	de, #0xc000
   0B25 19            [11] 2063 	add	hl, de
   0B26 DD 7E 06      [19] 2064 	ld	a, 6 (ix)
   0B29 E6 07         [ 7] 2065 	and	a, #0x07
   0B2B 07            [ 4] 2066 	rlca
   0B2C 07            [ 4] 2067 	rlca
   0B2D 07            [ 4] 2068 	rlca
   0B2E E6 F8         [ 7] 2069 	and	a, #0xf8
   0B30 57            [ 4] 2070 	ld	d, a
   0B31 1E 00         [ 7] 2071 	ld	e, #0x00
   0B33 19            [11] 2072 	add	hl, de
   0B34 DD 5E 04      [19] 2073 	ld	e,4 (ix)
   0B37 DD 56 05      [19] 2074 	ld	d,5 (ix)
   0B3A CB 7A         [ 8] 2075 	bit	7, d
   0B3C 28 03         [12] 2076 	jr	Z,00118$
   0B3E 13            [ 6] 2077 	inc	de
   0B3F 13            [ 6] 2078 	inc	de
   0B40 13            [ 6] 2079 	inc	de
   0B41                    2080 00118$:
   0B41 CB 2A         [ 8] 2081 	sra	d
   0B43 CB 1B         [ 8] 2082 	rr	e
   0B45 CB 2A         [ 8] 2083 	sra	d
   0B47 CB 1B         [ 8] 2084 	rr	e
   0B49 19            [11] 2085 	add	hl, de
                           2086 ;src/game/world.c:444: if(nPixel == 0 && !(*pAddress & 136)) 
   0B4A 78            [ 4] 2087 	ld	a, b
   0B4B B1            [ 4] 2088 	or	a,c
   0B4C 20 09         [12] 2089 	jr	NZ,00113$
   0B4E 7E            [ 7] 2090 	ld	a, (hl)
   0B4F E6 88         [ 7] 2091 	and	a, #0x88
   0B51 20 04         [12] 2092 	jr	NZ,00113$
                           2093 ;src/game/world.c:445: return 1;
   0B53 2E 01         [ 7] 2094 	ld	l, #0x01
   0B55 18 2E         [12] 2095 	jr	00116$
   0B57                    2096 00113$:
                           2097 ;src/game/world.c:446: else if(nPixel == 1 && !(*pAddress & 68))
   0B57 79            [ 4] 2098 	ld	a, c
   0B58 3D            [ 4] 2099 	dec	a
   0B59 B0            [ 4] 2100 	or	a, b
   0B5A 20 09         [12] 2101 	jr	NZ,00109$
   0B5C 7E            [ 7] 2102 	ld	a, (hl)
   0B5D E6 44         [ 7] 2103 	and	a, #0x44
   0B5F 20 04         [12] 2104 	jr	NZ,00109$
                           2105 ;src/game/world.c:447: return 1;
   0B61 2E 01         [ 7] 2106 	ld	l, #0x01
   0B63 18 20         [12] 2107 	jr	00116$
   0B65                    2108 00109$:
                           2109 ;src/game/world.c:448: else if(nPixel == 2 && !(*pAddress & 34))
   0B65 79            [ 4] 2110 	ld	a, c
   0B66 D6 02         [ 7] 2111 	sub	a, #0x02
   0B68 B0            [ 4] 2112 	or	a, b
   0B69 20 09         [12] 2113 	jr	NZ,00105$
   0B6B 7E            [ 7] 2114 	ld	a, (hl)
   0B6C E6 22         [ 7] 2115 	and	a, #0x22
   0B6E 20 04         [12] 2116 	jr	NZ,00105$
                           2117 ;src/game/world.c:449: return 1;
   0B70 2E 01         [ 7] 2118 	ld	l, #0x01
   0B72 18 11         [12] 2119 	jr	00116$
   0B74                    2120 00105$:
                           2121 ;src/game/world.c:450: else if(nPixel == 3 && !(*pAddress & 17))
   0B74 79            [ 4] 2122 	ld	a, c
   0B75 D6 03         [ 7] 2123 	sub	a, #0x03
   0B77 B0            [ 4] 2124 	or	a, b
   0B78 20 09         [12] 2125 	jr	NZ,00110$
   0B7A 7E            [ 7] 2126 	ld	a, (hl)
   0B7B E6 11         [ 7] 2127 	and	a, #0x11
   0B7D 20 04         [12] 2128 	jr	NZ,00110$
                           2129 ;src/game/world.c:451: return 1;
   0B7F 2E 01         [ 7] 2130 	ld	l, #0x01
   0B81 18 02         [12] 2131 	jr	00116$
   0B83                    2132 00110$:
                           2133 ;src/game/world.c:453: return 0;
   0B83 2E 00         [ 7] 2134 	ld	l, #0x00
   0B85                    2135 00116$:
   0B85 DD E1         [14] 2136 	pop	ix
   0B87 C9            [10] 2137 	ret
                           2138 ;src/game/world.c:456: void drawTrains(u8 x_, u8 y_)
                           2139 ;	---------------------------------
                           2140 ; Function drawTrains
                           2141 ; ---------------------------------
   0B88                    2142 _drawTrains::
   0B88 DD E5         [15] 2143 	push	ix
   0B8A DD 21 00 00   [14] 2144 	ld	ix,#0
   0B8E DD 39         [15] 2145 	add	ix,sp
   0B90 21 F6 FF      [10] 2146 	ld	hl, #-10
   0B93 39            [11] 2147 	add	hl, sp
   0B94 F9            [ 6] 2148 	ld	sp, hl
                           2149 ;src/game/world.c:464: for(i=0; i<nbTrainList; i++)
   0B95 DD 7E 05      [19] 2150 	ld	a, 5 (ix)
   0B98 07            [ 4] 2151 	rlca
   0B99 07            [ 4] 2152 	rlca
   0B9A 07            [ 4] 2153 	rlca
   0B9B 07            [ 4] 2154 	rlca
   0B9C E6 F0         [ 7] 2155 	and	a, #0xf0
   0B9E DD 77 FB      [19] 2156 	ld	-5 (ix), a
   0BA1 DD 36 F8 00   [19] 2157 	ld	-8 (ix), #0x00
   0BA5                    2158 00126$:
   0BA5 21r00r00      [10] 2159 	ld	hl, #_nbTrainList
   0BA8 DD 7E F8      [19] 2160 	ld	a, -8 (ix)
   0BAB 96            [ 7] 2161 	sub	a, (hl)
   0BAC D2rEBr0F      [10] 2162 	jp	NC, 00128$
                           2163 ;src/game/world.c:473: setPixel(trainList[i].animX-x_*TILESIZE_H,trainList[i].animY-y_*TILESIZE_H, 3);
   0BAF DD 4E F8      [19] 2164 	ld	c,-8 (ix)
   0BB2 06 00         [ 7] 2165 	ld	b,#0x00
   0BB4 69            [ 4] 2166 	ld	l, c
   0BB5 60            [ 4] 2167 	ld	h, b
   0BB6 29            [11] 2168 	add	hl, hl
   0BB7 29            [11] 2169 	add	hl, hl
   0BB8 09            [11] 2170 	add	hl, bc
   0BB9 29            [11] 2171 	add	hl, hl
   0BBA 09            [11] 2172 	add	hl, bc
   0BBB DD 75 F9      [19] 2173 	ld	-7 (ix), l
   0BBE DD 74 FA      [19] 2174 	ld	-6 (ix), h
   0BC1 FD 2Ar00r00   [20] 2175 	ld	iy, (_trainList)
   0BC5 DD 5E F9      [19] 2176 	ld	e,-7 (ix)
   0BC8 DD 56 FA      [19] 2177 	ld	d,-6 (ix)
   0BCB FD 19         [15] 2178 	add	iy, de
   0BCD FD E5         [15] 2179 	push	iy
   0BCF E1            [10] 2180 	pop	hl
   0BD0 11 08 00      [10] 2181 	ld	de, #0x0008
   0BD3 19            [11] 2182 	add	hl, de
   0BD4 7E            [ 7] 2183 	ld	a, (hl)
   0BD5 DD 96 FB      [19] 2184 	sub	a, -5 (ix)
   0BD8 DD 77 FC      [19] 2185 	ld	-4 (ix), a
   0BDB FD E5         [15] 2186 	push	iy
   0BDD E1            [10] 2187 	pop	hl
   0BDE 11 07 00      [10] 2188 	ld	de, #0x0007
   0BE1 19            [11] 2189 	add	hl, de
   0BE2 4E            [ 7] 2190 	ld	c, (hl)
   0BE3 06 00         [ 7] 2191 	ld	b, #0x00
   0BE5 DD 6E 04      [19] 2192 	ld	l, 4 (ix)
   0BE8 26 00         [ 7] 2193 	ld	h, #0x00
   0BEA 29            [11] 2194 	add	hl, hl
   0BEB 29            [11] 2195 	add	hl, hl
   0BEC 29            [11] 2196 	add	hl, hl
   0BED 29            [11] 2197 	add	hl, hl
   0BEE EB            [ 4] 2198 	ex	de,hl
   0BEF 79            [ 4] 2199 	ld	a, c
   0BF0 93            [ 4] 2200 	sub	a, e
   0BF1 4F            [ 4] 2201 	ld	c, a
   0BF2 78            [ 4] 2202 	ld	a, b
   0BF3 9A            [ 4] 2203 	sbc	a, d
   0BF4 47            [ 4] 2204 	ld	b, a
   0BF5 D5            [11] 2205 	push	de
   0BF6 3E 03         [ 7] 2206 	ld	a, #0x03
   0BF8 F5            [11] 2207 	push	af
   0BF9 33            [ 6] 2208 	inc	sp
   0BFA DD 7E FC      [19] 2209 	ld	a, -4 (ix)
   0BFD F5            [11] 2210 	push	af
   0BFE 33            [ 6] 2211 	inc	sp
   0BFF C5            [11] 2212 	push	bc
   0C00 CDr1Br0A      [17] 2213 	call	_setPixel
   0C03 F1            [10] 2214 	pop	af
   0C04 F1            [10] 2215 	pop	af
   0C05 D1            [10] 2216 	pop	de
                           2217 ;src/game/world.c:474: setPixel(trainList[i].animOldX-x_*TILESIZE_H,trainList[i].animOldY-y_*TILESIZE_H, 2);
   0C06 FD 2Ar00r00   [20] 2218 	ld	iy, (_trainList)
   0C0A DD 4E F9      [19] 2219 	ld	c,-7 (ix)
   0C0D DD 46 FA      [19] 2220 	ld	b,-6 (ix)
   0C10 FD 09         [15] 2221 	add	iy, bc
   0C12 FD E5         [15] 2222 	push	iy
   0C14 E1            [10] 2223 	pop	hl
   0C15 01 0A 00      [10] 2224 	ld	bc, #0x000a
   0C18 09            [11] 2225 	add	hl, bc
   0C19 7E            [ 7] 2226 	ld	a, (hl)
   0C1A DD 96 FB      [19] 2227 	sub	a, -5 (ix)
   0C1D 4F            [ 4] 2228 	ld	c, a
   0C1E FD 6E 09      [19] 2229 	ld	l, 9 (iy)
   0C21 26 00         [ 7] 2230 	ld	h, #0x00
   0C23 BF            [ 4] 2231 	cp	a, a
   0C24 ED 52         [15] 2232 	sbc	hl, de
   0C26 D5            [11] 2233 	push	de
   0C27 06 02         [ 7] 2234 	ld	b, #0x02
   0C29 C5            [11] 2235 	push	bc
   0C2A E5            [11] 2236 	push	hl
   0C2B CDr1Br0A      [17] 2237 	call	_setPixel
   0C2E F1            [10] 2238 	pop	af
   0C2F F1            [10] 2239 	pop	af
   0C30 D1            [10] 2240 	pop	de
                           2241 ;src/game/world.c:477: oldTrainX = trainList[i].animOldX;
   0C31 FD 21r00r00   [14] 2242 	ld	iy, #_trainList
   0C35 FD 7E 00      [19] 2243 	ld	a, 0 (iy)
   0C38 DD 86 F9      [19] 2244 	add	a, -7 (ix)
   0C3B 4F            [ 4] 2245 	ld	c, a
   0C3C FD 7E 01      [19] 2246 	ld	a, 1 (iy)
   0C3F DD 8E FA      [19] 2247 	adc	a, -6 (ix)
   0C42 47            [ 4] 2248 	ld	b, a
   0C43 FD 21 09 00   [14] 2249 	ld	iy, #0x0009
   0C47 FD 09         [15] 2250 	add	iy, bc
   0C49 FD 7E 00      [19] 2251 	ld	a, 0 (iy)
   0C4C DD 77 F7      [19] 2252 	ld	-9 (ix), a
                           2253 ;src/game/world.c:478: oldTrainY = trainList[i].animOldY;
   0C4F 69            [ 4] 2254 	ld	l, c
   0C50 60            [ 4] 2255 	ld	h, b
   0C51 C5            [11] 2256 	push	bc
   0C52 01 0A 00      [10] 2257 	ld	bc, #0x000a
   0C55 09            [11] 2258 	add	hl, bc
   0C56 C1            [10] 2259 	pop	bc
   0C57 7E            [ 7] 2260 	ld	a, (hl)
   0C58 DD 77 F6      [19] 2261 	ld	-10 (ix), a
                           2262 ;src/game/world.c:479: trainList[i].animOldX = trainList[i].animX;
   0C5B 69            [ 4] 2263 	ld	l, c
   0C5C 60            [ 4] 2264 	ld	h, b
   0C5D 01 07 00      [10] 2265 	ld	bc, #0x0007
   0C60 09            [11] 2266 	add	hl, bc
   0C61 4E            [ 7] 2267 	ld	c, (hl)
   0C62 FD 71 00      [19] 2268 	ld	0 (iy), c
                           2269 ;src/game/world.c:480: trainList[i].animOldY = trainList[i].animY;
   0C65 FD 21r00r00   [14] 2270 	ld	iy, #_trainList
   0C69 FD 7E 00      [19] 2271 	ld	a, 0 (iy)
   0C6C DD 86 F9      [19] 2272 	add	a, -7 (ix)
   0C6F 6F            [ 4] 2273 	ld	l, a
   0C70 FD 7E 01      [19] 2274 	ld	a, 1 (iy)
   0C73 DD 8E FA      [19] 2275 	adc	a, -6 (ix)
   0C76 67            [ 4] 2276 	ld	h, a
   0C77 7D            [ 4] 2277 	ld	a, l
   0C78 C6 0A         [ 7] 2278 	add	a, #0x0a
   0C7A 4F            [ 4] 2279 	ld	c, a
   0C7B 7C            [ 4] 2280 	ld	a, h
   0C7C CE 00         [ 7] 2281 	adc	a, #0x00
   0C7E 47            [ 4] 2282 	ld	b, a
   0C7F E5            [11] 2283 	push	hl
   0C80 FD E1         [14] 2284 	pop	iy
   0C82 FD 7E 08      [19] 2285 	ld	a, 8 (iy)
   0C85 02            [ 7] 2286 	ld	(bc), a
                           2287 ;src/game/world.c:483: if( isPixelBlack(trainList[i].animX-x_*TILESIZE_H +1,trainList[i].animY-y_*TILESIZE_H) )
   0C86 FD 2Ar00r00   [20] 2288 	ld	iy, (_trainList)
   0C8A DD 4E F9      [19] 2289 	ld	c,-7 (ix)
   0C8D DD 46 FA      [19] 2290 	ld	b,-6 (ix)
   0C90 FD 09         [15] 2291 	add	iy, bc
   0C92 FD E5         [15] 2292 	push	iy
   0C94 E1            [10] 2293 	pop	hl
   0C95 01 08 00      [10] 2294 	ld	bc, #0x0008
   0C98 09            [11] 2295 	add	hl, bc
   0C99 7E            [ 7] 2296 	ld	a, (hl)
   0C9A DD 96 FB      [19] 2297 	sub	a, -5 (ix)
   0C9D 4F            [ 4] 2298 	ld	c, a
   0C9E FD 6E 07      [19] 2299 	ld	l, 7 (iy)
   0CA1 26 00         [ 7] 2300 	ld	h, #0x00
   0CA3 BF            [ 4] 2301 	cp	a, a
   0CA4 ED 52         [15] 2302 	sbc	hl, de
   0CA6 23            [ 6] 2303 	inc	hl
   0CA7 D5            [11] 2304 	push	de
   0CA8 79            [ 4] 2305 	ld	a, c
   0CA9 F5            [11] 2306 	push	af
   0CAA 33            [ 6] 2307 	inc	sp
   0CAB E5            [11] 2308 	push	hl
   0CAC CDrF4r0A      [17] 2309 	call	_isPixelBlack
   0CAF F1            [10] 2310 	pop	af
   0CB0 33            [ 6] 2311 	inc	sp
   0CB1 DD 75 FC      [19] 2312 	ld	-4 (ix), l
   0CB4 D1            [10] 2313 	pop	de
                           2314 ;src/game/world.c:473: setPixel(trainList[i].animX-x_*TILESIZE_H,trainList[i].animY-y_*TILESIZE_H, 3);
   0CB5 FD 21r00r00   [14] 2315 	ld	iy, #_trainList
   0CB9 FD 7E 00      [19] 2316 	ld	a, 0 (iy)
   0CBC DD 86 F9      [19] 2317 	add	a, -7 (ix)
   0CBF 4F            [ 4] 2318 	ld	c, a
   0CC0 FD 7E 01      [19] 2319 	ld	a, 1 (iy)
   0CC3 DD 8E FA      [19] 2320 	adc	a, -6 (ix)
   0CC6 47            [ 4] 2321 	ld	b, a
                           2322 ;src/game/world.c:484: trainList[i].animX+=1;
   0CC7 21 07 00      [10] 2323 	ld	hl, #0x0007
   0CCA 09            [11] 2324 	add	hl,bc
   0CCB DD 75 FE      [19] 2325 	ld	-2 (ix), l
   0CCE DD 74 FF      [19] 2326 	ld	-1 (ix), h
   0CD1 7E            [ 7] 2327 	ld	a, (hl)
   0CD2 DD 77 FD      [19] 2328 	ld	-3 (ix), a
                           2329 ;src/game/world.c:483: if( isPixelBlack(trainList[i].animX-x_*TILESIZE_H +1,trainList[i].animY-y_*TILESIZE_H) )
   0CD5 DD 7E FC      [19] 2330 	ld	a, -4 (ix)
   0CD8 B7            [ 4] 2331 	or	a, a
   0CD9 28 0E         [12] 2332 	jr	Z,00122$
                           2333 ;src/game/world.c:484: trainList[i].animX+=1;
   0CDB DD 4E FD      [19] 2334 	ld	c, -3 (ix)
   0CDE 0C            [ 4] 2335 	inc	c
   0CDF DD 6E FE      [19] 2336 	ld	l,-2 (ix)
   0CE2 DD 66 FF      [19] 2337 	ld	h,-1 (ix)
   0CE5 71            [ 7] 2338 	ld	(hl), c
   0CE6 C3r6Br0F      [10] 2339 	jp	00123$
   0CE9                    2340 00122$:
                           2341 ;src/game/world.c:485: else if( isPixelBlack(trainList[i].animX-x_*TILESIZE_H -1,trainList[i].animY-y_*TILESIZE_H) )
   0CE9 C5            [11] 2342 	push	bc
   0CEA FD E1         [14] 2343 	pop	iy
   0CEC FD 7E 08      [19] 2344 	ld	a, 8 (iy)
   0CEF DD 96 FB      [19] 2345 	sub	a, -5 (ix)
   0CF2 4F            [ 4] 2346 	ld	c, a
   0CF3 DD 6E FD      [19] 2347 	ld	l, -3 (ix)
   0CF6 26 00         [ 7] 2348 	ld	h, #0x00
   0CF8 BF            [ 4] 2349 	cp	a, a
   0CF9 ED 52         [15] 2350 	sbc	hl, de
   0CFB 2B            [ 6] 2351 	dec	hl
   0CFC D5            [11] 2352 	push	de
   0CFD 79            [ 4] 2353 	ld	a, c
   0CFE F5            [11] 2354 	push	af
   0CFF 33            [ 6] 2355 	inc	sp
   0D00 E5            [11] 2356 	push	hl
   0D01 CDrF4r0A      [17] 2357 	call	_isPixelBlack
   0D04 F1            [10] 2358 	pop	af
   0D05 33            [ 6] 2359 	inc	sp
   0D06 45            [ 4] 2360 	ld	b, l
   0D07 D1            [10] 2361 	pop	de
                           2362 ;src/game/world.c:473: setPixel(trainList[i].animX-x_*TILESIZE_H,trainList[i].animY-y_*TILESIZE_H, 3);
   0D08 FD 21r00r00   [14] 2363 	ld	iy, #_trainList
   0D0C FD 7E 00      [19] 2364 	ld	a, 0 (iy)
   0D0F DD 86 F9      [19] 2365 	add	a, -7 (ix)
   0D12 DD 77 FE      [19] 2366 	ld	-2 (ix), a
   0D15 FD 7E 01      [19] 2367 	ld	a, 1 (iy)
   0D18 DD 8E FA      [19] 2368 	adc	a, -6 (ix)
   0D1B DD 77 FF      [19] 2369 	ld	-1 (ix), a
                           2370 ;src/game/world.c:484: trainList[i].animX+=1;
   0D1E FD 21 07 00   [14] 2371 	ld	iy, #0x0007
   0D22 C5            [11] 2372 	push	bc
   0D23 DD 4E FE      [19] 2373 	ld	c,-2 (ix)
   0D26 DD 46 FF      [19] 2374 	ld	b,-1 (ix)
   0D29 FD 09         [15] 2375 	add	iy, bc
   0D2B C1            [10] 2376 	pop	bc
   0D2C FD 4E 00      [19] 2377 	ld	c, 0 (iy)
                           2378 ;src/game/world.c:485: else if( isPixelBlack(trainList[i].animX-x_*TILESIZE_H -1,trainList[i].animY-y_*TILESIZE_H) )
   0D2F 78            [ 4] 2379 	ld	a, b
   0D30 B7            [ 4] 2380 	or	a, a
   0D31 28 07         [12] 2381 	jr	Z,00119$
                           2382 ;src/game/world.c:486: trainList[i].animX-=1;
   0D33 0D            [ 4] 2383 	dec	c
   0D34 FD 71 00      [19] 2384 	ld	0 (iy), c
   0D37 C3r6Br0F      [10] 2385 	jp	00123$
   0D3A                    2386 00119$:
                           2387 ;src/game/world.c:487: else if( isPixelBlack(trainList[i].animX-x_*TILESIZE_H, trainList[i].animY-y_*TILESIZE_H + 1) )
   0D3A DD 6E FE      [19] 2388 	ld	l,-2 (ix)
   0D3D DD 66 FF      [19] 2389 	ld	h,-1 (ix)
   0D40 C5            [11] 2390 	push	bc
   0D41 01 08 00      [10] 2391 	ld	bc, #0x0008
   0D44 09            [11] 2392 	add	hl, bc
   0D45 C1            [10] 2393 	pop	bc
   0D46 6E            [ 7] 2394 	ld	l, (hl)
   0D47 7D            [ 4] 2395 	ld	a, l
   0D48 DD 96 FB      [19] 2396 	sub	a, -5 (ix)
   0D4B 67            [ 4] 2397 	ld	h, a
   0D4C 24            [ 4] 2398 	inc	h
   0D4D 06 00         [ 7] 2399 	ld	b, #0x00
   0D4F 79            [ 4] 2400 	ld	a, c
   0D50 93            [ 4] 2401 	sub	a, e
   0D51 4F            [ 4] 2402 	ld	c, a
   0D52 78            [ 4] 2403 	ld	a, b
   0D53 9A            [ 4] 2404 	sbc	a, d
   0D54 47            [ 4] 2405 	ld	b, a
   0D55 D5            [11] 2406 	push	de
   0D56 E5            [11] 2407 	push	hl
   0D57 33            [ 6] 2408 	inc	sp
   0D58 C5            [11] 2409 	push	bc
   0D59 CDrF4r0A      [17] 2410 	call	_isPixelBlack
   0D5C F1            [10] 2411 	pop	af
   0D5D 33            [ 6] 2412 	inc	sp
   0D5E 45            [ 4] 2413 	ld	b, l
   0D5F D1            [10] 2414 	pop	de
                           2415 ;src/game/world.c:473: setPixel(trainList[i].animX-x_*TILESIZE_H,trainList[i].animY-y_*TILESIZE_H, 3);
   0D60 FD 21r00r00   [14] 2416 	ld	iy, #_trainList
   0D64 FD 7E 00      [19] 2417 	ld	a, 0 (iy)
   0D67 DD 86 F9      [19] 2418 	add	a, -7 (ix)
   0D6A DD 77 FE      [19] 2419 	ld	-2 (ix), a
   0D6D FD 7E 01      [19] 2420 	ld	a, 1 (iy)
   0D70 DD 8E FA      [19] 2421 	adc	a, -6 (ix)
   0D73 DD 77 FF      [19] 2422 	ld	-1 (ix), a
                           2423 ;src/game/world.c:485: else if( isPixelBlack(trainList[i].animX-x_*TILESIZE_H -1,trainList[i].animY-y_*TILESIZE_H) )
   0D76 DD 7E FE      [19] 2424 	ld	a, -2 (ix)
   0D79 C6 08         [ 7] 2425 	add	a, #0x08
   0D7B 6F            [ 4] 2426 	ld	l, a
   0D7C DD 7E FF      [19] 2427 	ld	a, -1 (ix)
   0D7F CE 00         [ 7] 2428 	adc	a, #0x00
   0D81 67            [ 4] 2429 	ld	h, a
                           2430 ;src/game/world.c:488: trainList[i].animY+=1;
   0D82 4E            [ 7] 2431 	ld	c, (hl)
                           2432 ;src/game/world.c:487: else if( isPixelBlack(trainList[i].animX-x_*TILESIZE_H, trainList[i].animY-y_*TILESIZE_H + 1) )
   0D83 78            [ 4] 2433 	ld	a, b
   0D84 B7            [ 4] 2434 	or	a, a
   0D85 28 05         [12] 2435 	jr	Z,00116$
                           2436 ;src/game/world.c:488: trainList[i].animY+=1;
   0D87 0C            [ 4] 2437 	inc	c
   0D88 71            [ 7] 2438 	ld	(hl), c
   0D89 C3r6Br0F      [10] 2439 	jp	00123$
   0D8C                    2440 00116$:
                           2441 ;src/game/world.c:489: else if( isPixelBlack(trainList[i].animX-x_*TILESIZE_H,trainList[i].animY-y_*TILESIZE_H - 1) )
   0D8C 79            [ 4] 2442 	ld	a, c
   0D8D DD 96 FB      [19] 2443 	sub	a, -5 (ix)
   0D90 4F            [ 4] 2444 	ld	c, a
   0D91 0D            [ 4] 2445 	dec	c
   0D92 DD 6E FE      [19] 2446 	ld	l,-2 (ix)
   0D95 DD 66 FF      [19] 2447 	ld	h,-1 (ix)
   0D98 C5            [11] 2448 	push	bc
   0D99 01 07 00      [10] 2449 	ld	bc, #0x0007
   0D9C 09            [11] 2450 	add	hl, bc
   0D9D C1            [10] 2451 	pop	bc
   0D9E 6E            [ 7] 2452 	ld	l, (hl)
   0D9F 26 00         [ 7] 2453 	ld	h, #0x00
   0DA1 BF            [ 4] 2454 	cp	a, a
   0DA2 ED 52         [15] 2455 	sbc	hl, de
   0DA4 D5            [11] 2456 	push	de
   0DA5 79            [ 4] 2457 	ld	a, c
   0DA6 F5            [11] 2458 	push	af
   0DA7 33            [ 6] 2459 	inc	sp
   0DA8 E5            [11] 2460 	push	hl
   0DA9 CDrF4r0A      [17] 2461 	call	_isPixelBlack
   0DAC F1            [10] 2462 	pop	af
   0DAD 33            [ 6] 2463 	inc	sp
   0DAE 4D            [ 4] 2464 	ld	c, l
   0DAF D1            [10] 2465 	pop	de
                           2466 ;src/game/world.c:473: setPixel(trainList[i].animX-x_*TILESIZE_H,trainList[i].animY-y_*TILESIZE_H, 3);
   0DB0 FD 21r00r00   [14] 2467 	ld	iy, #_trainList
   0DB4 FD 7E 00      [19] 2468 	ld	a, 0 (iy)
   0DB7 DD 86 F9      [19] 2469 	add	a, -7 (ix)
   0DBA DD 77 FE      [19] 2470 	ld	-2 (ix), a
   0DBD FD 7E 01      [19] 2471 	ld	a, 1 (iy)
   0DC0 DD 8E FA      [19] 2472 	adc	a, -6 (ix)
   0DC3 DD 77 FF      [19] 2473 	ld	-1 (ix), a
                           2474 ;src/game/world.c:485: else if( isPixelBlack(trainList[i].animX-x_*TILESIZE_H -1,trainList[i].animY-y_*TILESIZE_H) )
   0DC6 FD 21 08 00   [14] 2475 	ld	iy, #0x0008
   0DCA C5            [11] 2476 	push	bc
   0DCB DD 4E FE      [19] 2477 	ld	c,-2 (ix)
   0DCE DD 46 FF      [19] 2478 	ld	b,-1 (ix)
   0DD1 FD 09         [15] 2479 	add	iy, bc
   0DD3 C1            [10] 2480 	pop	bc
                           2481 ;src/game/world.c:488: trainList[i].animY+=1;
   0DD4 FD 6E 00      [19] 2482 	ld	l, 0 (iy)
                           2483 ;src/game/world.c:489: else if( isPixelBlack(trainList[i].animX-x_*TILESIZE_H,trainList[i].animY-y_*TILESIZE_H - 1) )
   0DD7 79            [ 4] 2484 	ld	a, c
   0DD8 B7            [ 4] 2485 	or	a, a
   0DD9 28 07         [12] 2486 	jr	Z,00113$
                           2487 ;src/game/world.c:490: trainList[i].animY-=1;
   0DDB 2D            [ 4] 2488 	dec	l
   0DDC FD 75 00      [19] 2489 	ld	0 (iy), l
   0DDF C3r6Br0F      [10] 2490 	jp	00123$
   0DE2                    2491 00113$:
                           2492 ;src/game/world.c:491: else if( isPixelBlack(trainList[i].animX-x_*TILESIZE_H+1,trainList[i].animY-y_*TILESIZE_H + 1) )
   0DE2 7D            [ 4] 2493 	ld	a, l
   0DE3 DD 96 FB      [19] 2494 	sub	a, -5 (ix)
   0DE6 4F            [ 4] 2495 	ld	c, a
   0DE7 0C            [ 4] 2496 	inc	c
   0DE8 DD 6E FE      [19] 2497 	ld	l,-2 (ix)
   0DEB DD 66 FF      [19] 2498 	ld	h,-1 (ix)
   0DEE C5            [11] 2499 	push	bc
   0DEF 01 07 00      [10] 2500 	ld	bc, #0x0007
   0DF2 09            [11] 2501 	add	hl, bc
   0DF3 C1            [10] 2502 	pop	bc
   0DF4 6E            [ 7] 2503 	ld	l, (hl)
   0DF5 26 00         [ 7] 2504 	ld	h, #0x00
   0DF7 BF            [ 4] 2505 	cp	a, a
   0DF8 ED 52         [15] 2506 	sbc	hl, de
   0DFA 23            [ 6] 2507 	inc	hl
   0DFB D5            [11] 2508 	push	de
   0DFC 79            [ 4] 2509 	ld	a, c
   0DFD F5            [11] 2510 	push	af
   0DFE 33            [ 6] 2511 	inc	sp
   0DFF E5            [11] 2512 	push	hl
   0E00 CDrF4r0A      [17] 2513 	call	_isPixelBlack
   0E03 F1            [10] 2514 	pop	af
   0E04 33            [ 6] 2515 	inc	sp
   0E05 DD 75 FD      [19] 2516 	ld	-3 (ix), l
   0E08 D1            [10] 2517 	pop	de
                           2518 ;src/game/world.c:473: setPixel(trainList[i].animX-x_*TILESIZE_H,trainList[i].animY-y_*TILESIZE_H, 3);
   0E09 FD 21r00r00   [14] 2519 	ld	iy, #_trainList
   0E0D FD 7E 00      [19] 2520 	ld	a, 0 (iy)
   0E10 DD 86 F9      [19] 2521 	add	a, -7 (ix)
   0E13 4F            [ 4] 2522 	ld	c, a
   0E14 FD 7E 01      [19] 2523 	ld	a, 1 (iy)
   0E17 DD 8E FA      [19] 2524 	adc	a, -6 (ix)
   0E1A 47            [ 4] 2525 	ld	b, a
                           2526 ;src/game/world.c:484: trainList[i].animX+=1;
   0E1B 21 07 00      [10] 2527 	ld	hl, #0x0007
   0E1E 09            [11] 2528 	add	hl, bc
   0E1F 7E            [ 7] 2529 	ld	a, (hl)
   0E20 DD 77 FE      [19] 2530 	ld	-2 (ix), a
                           2531 ;src/game/world.c:491: else if( isPixelBlack(trainList[i].animX-x_*TILESIZE_H+1,trainList[i].animY-y_*TILESIZE_H + 1) )
   0E23 DD 7E FD      [19] 2532 	ld	a, -3 (ix)
   0E26 B7            [ 4] 2533 	or	a, a
   0E27 28 1D         [12] 2534 	jr	Z,00110$
                           2535 ;src/game/world.c:493: trainList[i].animX+=1;
   0E29 DD 4E FE      [19] 2536 	ld	c, -2 (ix)
   0E2C 0C            [ 4] 2537 	inc	c
   0E2D 71            [ 7] 2538 	ld	(hl), c
                           2539 ;src/game/world.c:494: trainList[i].animY+=1;
   0E2E FD 7E 00      [19] 2540 	ld	a, 0 (iy)
   0E31 DD 86 F9      [19] 2541 	add	a, -7 (ix)
   0E34 4F            [ 4] 2542 	ld	c, a
   0E35 FD 7E 01      [19] 2543 	ld	a, 1 (iy)
   0E38 DD 8E FA      [19] 2544 	adc	a, -6 (ix)
   0E3B 47            [ 4] 2545 	ld	b, a
   0E3C 21 08 00      [10] 2546 	ld	hl, #0x0008
   0E3F 09            [11] 2547 	add	hl, bc
   0E40 4E            [ 7] 2548 	ld	c, (hl)
   0E41 0C            [ 4] 2549 	inc	c
   0E42 71            [ 7] 2550 	ld	(hl), c
   0E43 C3r6Br0F      [10] 2551 	jp	00123$
   0E46                    2552 00110$:
                           2553 ;src/game/world.c:496: else if( isPixelBlack(trainList[i].animX-x_*TILESIZE_H+1,trainList[i].animY-y_*TILESIZE_H - 1) )
   0E46 69            [ 4] 2554 	ld	l, c
   0E47 60            [ 4] 2555 	ld	h, b
   0E48 01 08 00      [10] 2556 	ld	bc, #0x0008
   0E4B 09            [11] 2557 	add	hl, bc
   0E4C 7E            [ 7] 2558 	ld	a, (hl)
   0E4D DD 96 FB      [19] 2559 	sub	a, -5 (ix)
   0E50 4F            [ 4] 2560 	ld	c, a
   0E51 0D            [ 4] 2561 	dec	c
   0E52 DD 6E FE      [19] 2562 	ld	l, -2 (ix)
   0E55 26 00         [ 7] 2563 	ld	h, #0x00
   0E57 BF            [ 4] 2564 	cp	a, a
   0E58 ED 52         [15] 2565 	sbc	hl, de
   0E5A 23            [ 6] 2566 	inc	hl
   0E5B D5            [11] 2567 	push	de
   0E5C 79            [ 4] 2568 	ld	a, c
   0E5D F5            [11] 2569 	push	af
   0E5E 33            [ 6] 2570 	inc	sp
   0E5F E5            [11] 2571 	push	hl
   0E60 CDrF4r0A      [17] 2572 	call	_isPixelBlack
   0E63 F1            [10] 2573 	pop	af
   0E64 33            [ 6] 2574 	inc	sp
   0E65 DD 75 FD      [19] 2575 	ld	-3 (ix), l
   0E68 D1            [10] 2576 	pop	de
                           2577 ;src/game/world.c:473: setPixel(trainList[i].animX-x_*TILESIZE_H,trainList[i].animY-y_*TILESIZE_H, 3);
   0E69 FD 21r00r00   [14] 2578 	ld	iy, #_trainList
   0E6D FD 7E 00      [19] 2579 	ld	a, 0 (iy)
   0E70 DD 86 F9      [19] 2580 	add	a, -7 (ix)
   0E73 4F            [ 4] 2581 	ld	c, a
   0E74 FD 7E 01      [19] 2582 	ld	a, 1 (iy)
   0E77 DD 8E FA      [19] 2583 	adc	a, -6 (ix)
   0E7A 47            [ 4] 2584 	ld	b, a
                           2585 ;src/game/world.c:484: trainList[i].animX+=1;
   0E7B FD 21 07 00   [14] 2586 	ld	iy, #0x0007
   0E7F FD 09         [15] 2587 	add	iy, bc
   0E81 FD 7E 00      [19] 2588 	ld	a, 0 (iy)
   0E84 DD 77 FE      [19] 2589 	ld	-2 (ix), a
                           2590 ;src/game/world.c:496: else if( isPixelBlack(trainList[i].animX-x_*TILESIZE_H+1,trainList[i].animY-y_*TILESIZE_H - 1) )
   0E87 DD 7E FD      [19] 2591 	ld	a, -3 (ix)
   0E8A B7            [ 4] 2592 	or	a, a
   0E8B 28 23         [12] 2593 	jr	Z,00107$
                           2594 ;src/game/world.c:498: trainList[i].animX+=1;
   0E8D DD 4E FE      [19] 2595 	ld	c, -2 (ix)
   0E90 0C            [ 4] 2596 	inc	c
   0E91 FD 71 00      [19] 2597 	ld	0 (iy), c
                           2598 ;src/game/world.c:499: trainList[i].animY-=1;
   0E94 FD 21r00r00   [14] 2599 	ld	iy, #_trainList
   0E98 FD 7E 00      [19] 2600 	ld	a, 0 (iy)
   0E9B DD 86 F9      [19] 2601 	add	a, -7 (ix)
   0E9E 4F            [ 4] 2602 	ld	c, a
   0E9F FD 7E 01      [19] 2603 	ld	a, 1 (iy)
   0EA2 DD 8E FA      [19] 2604 	adc	a, -6 (ix)
   0EA5 47            [ 4] 2605 	ld	b, a
   0EA6 21 08 00      [10] 2606 	ld	hl, #0x0008
   0EA9 09            [11] 2607 	add	hl, bc
   0EAA 4E            [ 7] 2608 	ld	c, (hl)
   0EAB 0D            [ 4] 2609 	dec	c
   0EAC 71            [ 7] 2610 	ld	(hl), c
   0EAD C3r6Br0F      [10] 2611 	jp	00123$
   0EB0                    2612 00107$:
                           2613 ;src/game/world.c:501: else if( isPixelBlack(trainList[i].animX-x_*TILESIZE_H-1,trainList[i].animY-y_*TILESIZE_H + 1) )
   0EB0 69            [ 4] 2614 	ld	l, c
   0EB1 60            [ 4] 2615 	ld	h, b
   0EB2 01 08 00      [10] 2616 	ld	bc, #0x0008
   0EB5 09            [11] 2617 	add	hl, bc
   0EB6 7E            [ 7] 2618 	ld	a, (hl)
   0EB7 DD 96 FB      [19] 2619 	sub	a, -5 (ix)
   0EBA 4F            [ 4] 2620 	ld	c, a
   0EBB 0C            [ 4] 2621 	inc	c
   0EBC DD 6E FE      [19] 2622 	ld	l, -2 (ix)
   0EBF 26 00         [ 7] 2623 	ld	h, #0x00
   0EC1 BF            [ 4] 2624 	cp	a, a
   0EC2 ED 52         [15] 2625 	sbc	hl, de
   0EC4 2B            [ 6] 2626 	dec	hl
   0EC5 D5            [11] 2627 	push	de
   0EC6 79            [ 4] 2628 	ld	a, c
   0EC7 F5            [11] 2629 	push	af
   0EC8 33            [ 6] 2630 	inc	sp
   0EC9 E5            [11] 2631 	push	hl
   0ECA CDrF4r0A      [17] 2632 	call	_isPixelBlack
   0ECD F1            [10] 2633 	pop	af
   0ECE 33            [ 6] 2634 	inc	sp
   0ECF DD 75 FD      [19] 2635 	ld	-3 (ix), l
   0ED2 D1            [10] 2636 	pop	de
                           2637 ;src/game/world.c:473: setPixel(trainList[i].animX-x_*TILESIZE_H,trainList[i].animY-y_*TILESIZE_H, 3);
   0ED3 FD 21r00r00   [14] 2638 	ld	iy, #_trainList
   0ED7 FD 7E 00      [19] 2639 	ld	a, 0 (iy)
   0EDA DD 86 F9      [19] 2640 	add	a, -7 (ix)
   0EDD 4F            [ 4] 2641 	ld	c, a
   0EDE FD 7E 01      [19] 2642 	ld	a, 1 (iy)
   0EE1 DD 8E FA      [19] 2643 	adc	a, -6 (ix)
   0EE4 47            [ 4] 2644 	ld	b, a
                           2645 ;src/game/world.c:484: trainList[i].animX+=1;
   0EE5 FD 21 07 00   [14] 2646 	ld	iy, #0x0007
   0EE9 FD 09         [15] 2647 	add	iy, bc
   0EEB FD 7E 00      [19] 2648 	ld	a, 0 (iy)
   0EEE DD 77 FE      [19] 2649 	ld	-2 (ix), a
                           2650 ;src/game/world.c:501: else if( isPixelBlack(trainList[i].animX-x_*TILESIZE_H-1,trainList[i].animY-y_*TILESIZE_H + 1) )
   0EF1 DD 7E FD      [19] 2651 	ld	a, -3 (ix)
   0EF4 B7            [ 4] 2652 	or	a, a
   0EF5 28 22         [12] 2653 	jr	Z,00104$
                           2654 ;src/game/world.c:503: trainList[i].animX-=1;
   0EF7 DD 4E FE      [19] 2655 	ld	c, -2 (ix)
   0EFA 0D            [ 4] 2656 	dec	c
   0EFB FD 71 00      [19] 2657 	ld	0 (iy), c
                           2658 ;src/game/world.c:504: trainList[i].animY+=1;
   0EFE FD 21r00r00   [14] 2659 	ld	iy, #_trainList
   0F02 FD 7E 00      [19] 2660 	ld	a, 0 (iy)
   0F05 DD 86 F9      [19] 2661 	add	a, -7 (ix)
   0F08 4F            [ 4] 2662 	ld	c, a
   0F09 FD 7E 01      [19] 2663 	ld	a, 1 (iy)
   0F0C DD 8E FA      [19] 2664 	adc	a, -6 (ix)
   0F0F 47            [ 4] 2665 	ld	b, a
   0F10 21 08 00      [10] 2666 	ld	hl, #0x0008
   0F13 09            [11] 2667 	add	hl, bc
   0F14 4E            [ 7] 2668 	ld	c, (hl)
   0F15 0C            [ 4] 2669 	inc	c
   0F16 71            [ 7] 2670 	ld	(hl), c
   0F17 18 52         [12] 2671 	jr	00123$
   0F19                    2672 00104$:
                           2673 ;src/game/world.c:506: else if( isPixelBlack(trainList[i].animX-x_*TILESIZE_H-1,trainList[i].animY-y_*TILESIZE_H - 1) )
   0F19 69            [ 4] 2674 	ld	l, c
   0F1A 60            [ 4] 2675 	ld	h, b
   0F1B 01 08 00      [10] 2676 	ld	bc, #0x0008
   0F1E 09            [11] 2677 	add	hl, bc
   0F1F 7E            [ 7] 2678 	ld	a, (hl)
   0F20 DD 96 FB      [19] 2679 	sub	a, -5 (ix)
   0F23 4F            [ 4] 2680 	ld	c, a
   0F24 0D            [ 4] 2681 	dec	c
   0F25 DD 6E FE      [19] 2682 	ld	l, -2 (ix)
   0F28 26 00         [ 7] 2683 	ld	h, #0x00
   0F2A BF            [ 4] 2684 	cp	a, a
   0F2B ED 52         [15] 2685 	sbc	hl, de
   0F2D 2B            [ 6] 2686 	dec	hl
   0F2E D5            [11] 2687 	push	de
   0F2F 79            [ 4] 2688 	ld	a, c
   0F30 F5            [11] 2689 	push	af
   0F31 33            [ 6] 2690 	inc	sp
   0F32 E5            [11] 2691 	push	hl
   0F33 CDrF4r0A      [17] 2692 	call	_isPixelBlack
   0F36 F1            [10] 2693 	pop	af
   0F37 33            [ 6] 2694 	inc	sp
   0F38 D1            [10] 2695 	pop	de
   0F39 7D            [ 4] 2696 	ld	a, l
   0F3A B7            [ 4] 2697 	or	a, a
   0F3B 28 2E         [12] 2698 	jr	Z,00123$
                           2699 ;src/game/world.c:508: trainList[i].animX-=1;
   0F3D FD 21r00r00   [14] 2700 	ld	iy, #_trainList
   0F41 FD 7E 00      [19] 2701 	ld	a, 0 (iy)
   0F44 DD 86 F9      [19] 2702 	add	a, -7 (ix)
   0F47 4F            [ 4] 2703 	ld	c, a
   0F48 FD 7E 01      [19] 2704 	ld	a, 1 (iy)
   0F4B DD 8E FA      [19] 2705 	adc	a, -6 (ix)
   0F4E 47            [ 4] 2706 	ld	b, a
   0F4F 21 07 00      [10] 2707 	ld	hl, #0x0007
   0F52 09            [11] 2708 	add	hl, bc
   0F53 4E            [ 7] 2709 	ld	c, (hl)
   0F54 0D            [ 4] 2710 	dec	c
   0F55 71            [ 7] 2711 	ld	(hl), c
                           2712 ;src/game/world.c:509: trainList[i].animY-=1;
   0F56 FD 7E 00      [19] 2713 	ld	a, 0 (iy)
   0F59 DD 86 F9      [19] 2714 	add	a, -7 (ix)
   0F5C 4F            [ 4] 2715 	ld	c, a
   0F5D FD 7E 01      [19] 2716 	ld	a, 1 (iy)
   0F60 DD 8E FA      [19] 2717 	adc	a, -6 (ix)
   0F63 47            [ 4] 2718 	ld	b, a
   0F64 21 08 00      [10] 2719 	ld	hl, #0x0008
   0F67 09            [11] 2720 	add	hl, bc
   0F68 4E            [ 7] 2721 	ld	c, (hl)
   0F69 0D            [ 4] 2722 	dec	c
   0F6A 71            [ 7] 2723 	ld	(hl), c
   0F6B                    2724 00123$:
                           2725 ;src/game/world.c:513: setPixel(trainList[i].animX-x_*TILESIZE_H,trainList[i].animY-y_*TILESIZE_H, 3);
   0F6B FD 2Ar00r00   [20] 2726 	ld	iy, (_trainList)
   0F6F DD 4E F9      [19] 2727 	ld	c,-7 (ix)
   0F72 DD 46 FA      [19] 2728 	ld	b,-6 (ix)
   0F75 FD 09         [15] 2729 	add	iy, bc
   0F77 FD E5         [15] 2730 	push	iy
   0F79 E1            [10] 2731 	pop	hl
   0F7A 01 08 00      [10] 2732 	ld	bc, #0x0008
   0F7D 09            [11] 2733 	add	hl, bc
   0F7E 7E            [ 7] 2734 	ld	a, (hl)
   0F7F DD 96 FB      [19] 2735 	sub	a, -5 (ix)
   0F82 4F            [ 4] 2736 	ld	c, a
   0F83 FD 6E 07      [19] 2737 	ld	l, 7 (iy)
   0F86 26 00         [ 7] 2738 	ld	h, #0x00
   0F88 BF            [ 4] 2739 	cp	a, a
   0F89 ED 52         [15] 2740 	sbc	hl, de
   0F8B D5            [11] 2741 	push	de
   0F8C 06 03         [ 7] 2742 	ld	b, #0x03
   0F8E C5            [11] 2743 	push	bc
   0F8F E5            [11] 2744 	push	hl
   0F90 CDr1Br0A      [17] 2745 	call	_setPixel
   0F93 F1            [10] 2746 	pop	af
   0F94 F1            [10] 2747 	pop	af
   0F95 D1            [10] 2748 	pop	de
                           2749 ;src/game/world.c:514: setPixel(trainList[i].animOldX-x_*TILESIZE_H,trainList[i].animOldY-y_*TILESIZE_H, 2);
   0F96 E5            [11] 2750 	push	hl
   0F97 DD 6E F9      [19] 2751 	ld	l, -7 (ix)
   0F9A DD 66 FA      [19] 2752 	ld	h, -6 (ix)
   0F9D E5            [11] 2753 	push	hl
   0F9E FD E1         [14] 2754 	pop	iy
   0FA0 E1            [10] 2755 	pop	hl
   0FA1 ED 4Br00r00   [20] 2756 	ld	bc, (_trainList)
   0FA5 FD 09         [15] 2757 	add	iy, bc
   0FA7 FD E5         [15] 2758 	push	iy
   0FA9 E1            [10] 2759 	pop	hl
   0FAA 01 0A 00      [10] 2760 	ld	bc, #0x000a
   0FAD 09            [11] 2761 	add	hl, bc
   0FAE 7E            [ 7] 2762 	ld	a, (hl)
   0FAF DD 96 FB      [19] 2763 	sub	a, -5 (ix)
   0FB2 4F            [ 4] 2764 	ld	c, a
   0FB3 FD E5         [15] 2765 	push	iy
   0FB5 E1            [10] 2766 	pop	hl
   0FB6 C5            [11] 2767 	push	bc
   0FB7 01 09 00      [10] 2768 	ld	bc, #0x0009
   0FBA 09            [11] 2769 	add	hl, bc
   0FBB C1            [10] 2770 	pop	bc
   0FBC 6E            [ 7] 2771 	ld	l, (hl)
   0FBD 26 00         [ 7] 2772 	ld	h, #0x00
   0FBF BF            [ 4] 2773 	cp	a, a
   0FC0 ED 52         [15] 2774 	sbc	hl, de
   0FC2 D5            [11] 2775 	push	de
   0FC3 06 02         [ 7] 2776 	ld	b, #0x02
   0FC5 C5            [11] 2777 	push	bc
   0FC6 E5            [11] 2778 	push	hl
   0FC7 CDr1Br0A      [17] 2779 	call	_setPixel
   0FCA F1            [10] 2780 	pop	af
   0FCB F1            [10] 2781 	pop	af
   0FCC D1            [10] 2782 	pop	de
                           2783 ;src/game/world.c:515: setPixel(oldTrainX-x_*TILESIZE_H,oldTrainY-y_*TILESIZE_H, 0);
   0FCD DD 7E F6      [19] 2784 	ld	a, -10 (ix)
   0FD0 DD 96 FB      [19] 2785 	sub	a, -5 (ix)
   0FD3 4F            [ 4] 2786 	ld	c, a
   0FD4 DD 6E F7      [19] 2787 	ld	l, -9 (ix)
   0FD7 26 00         [ 7] 2788 	ld	h, #0x00
   0FD9 BF            [ 4] 2789 	cp	a, a
   0FDA ED 52         [15] 2790 	sbc	hl, de
   0FDC AF            [ 4] 2791 	xor	a, a
   0FDD 47            [ 4] 2792 	ld	b, a
   0FDE C5            [11] 2793 	push	bc
   0FDF E5            [11] 2794 	push	hl
   0FE0 CDr1Br0A      [17] 2795 	call	_setPixel
   0FE3 F1            [10] 2796 	pop	af
   0FE4 F1            [10] 2797 	pop	af
                           2798 ;src/game/world.c:464: for(i=0; i<nbTrainList; i++)
   0FE5 DD 34 F8      [23] 2799 	inc	-8 (ix)
   0FE8 C3rA5r0B      [10] 2800 	jp	00126$
   0FEB                    2801 00128$:
   0FEB DD F9         [10] 2802 	ld	sp, ix
   0FED DD E1         [14] 2803 	pop	ix
   0FEF C9            [10] 2804 	ret
                           2805 	.area _CODE
                           2806 	.area _INITIALIZER
                           2807 	.area _CABS (ABS)
