                              1 ;--------------------------------------------------------
                              2 ; File Created by SDCC : free open source ANSI-C Compiler
                              3 ; Version 3.5.4 #9329 (Linux)
                              4 ; This file was generated Wed Feb  3 21:20:51 2016
                              5 ;--------------------------------------------------------
                              6 	.module main
                              7 	.optsdcc -mz80
                              8 	
                              9 ;--------------------------------------------------------
                             10 ; Public variables in this module
                             11 ;--------------------------------------------------------
                             12 	.globl _main
                             13 	.globl _drawTrain
                             14 	.globl _game
                             15 	.globl _menuTile
                             16 	.globl _menuStations
                             17 	.globl _windowInfoTile
                             18 	.globl _drawWorld
                             19 	.globl _drawScrolls
                             20 	.globl _drawTile
                             21 	.globl _generateWorld
                             22 	.globl _patternTile
                             23 	.globl _drawCursor
                             24 	.globl _drawWindow
                             25 	.globl _drawMenu
                             26 	.globl _drawMenuEntry
                             27 	.globl _EraseMenuEntry
                             28 	.globl _drawBoxM2
                             29 	.globl _drawBoxM0
                             30 	.globl _putM2
                             31 	.globl _putM1
                             32 	.globl _putM0
                             33 	.globl _strlen
                             34 	.globl _cpct_setRandomSeedUniform_u8
                             35 	.globl _cpct_getRandomUniform_u8_f
                             36 	.globl _cpct_getScreenPtr
                             37 	.globl _cpct_setPALColour
                             38 	.globl _cpct_setPalette
                             39 	.globl _cpct_fw2hw
                             40 	.globl _cpct_count2VSYNC
                             41 	.globl _cpct_setVideoMode
                             42 	.globl _cpct_drawStringM2
                             43 	.globl _cpct_drawSolidBox
                             44 	.globl _cpct_drawSprite
                             45 	.globl _cpct_px2byteM1
                             46 	.globl _cpct_px2byteM0
                             47 	.globl _cpct_getBit
                             48 	.globl _cpct_isKeyPressed
                             49 	.globl _cpct_scanKeyboard
                             50 	.globl _cpct_memset
                             51 	.globl _cpct_disableFirmware
                             52 	.globl _cpct_reenableFirmware
                             53 	.globl _CURSOR_MODE
                             54 	.globl _p_world
                             55 	.globl _rail_ns_e
                             56 	.globl _rail_ns_w
                             57 	.globl _rail_ew_s
                             58 	.globl _rail_ew_n
                             59 	.globl _rail_ws
                             60 	.globl _rail_wn
                             61 	.globl _rail_es
                             62 	.globl _rail_en
                             63 	.globl _rail_ns
                             64 	.globl _rail_ew
                             65 	.globl _station_large_ew
                             66 	.globl _station_large_ns
                             67 	.globl _station_medium_ew
                             68 	.globl _station_medium_ns
                             69 	.globl _station_small_ew
                             70 	.globl _station_small_ns
                             71 	.globl _livestock
                             72 	.globl _farm2
                             73 	.globl _farm1
                             74 	.globl _water
                             75 	.globl _dwellings3
                             76 	.globl _dwellings2
                             77 	.globl _dwellings1
                             78 	.globl _forest
                             79 	.globl _grass2
                             80 	.globl _grass1
                             81 	.globl _paletteMenusM2
                             82 	.globl _paletteMenusM1
                             83 	.globl _paletteTrains
                             84 ;--------------------------------------------------------
                             85 ; special function registers
                             86 ;--------------------------------------------------------
                             87 ;--------------------------------------------------------
                             88 ; ram data
                             89 ;--------------------------------------------------------
                             90 	.area _DATA
   0000                      91 _p_world::
   0000                      92 	.ds 3840
                             93 ;--------------------------------------------------------
                             94 ; ram data
                             95 ;--------------------------------------------------------
                             96 	.area _INITIALIZED
   0000                      97 _CURSOR_MODE::
   0000                      98 	.ds 1
                             99 ;--------------------------------------------------------
                            100 ; absolute external ram data
                            101 ;--------------------------------------------------------
                            102 	.area _DABS (ABS)
                            103 ;--------------------------------------------------------
                            104 ; global & static initialisations
                            105 ;--------------------------------------------------------
                            106 	.area _HOME
                            107 	.area _GSINIT
                            108 	.area _GSFINAL
                            109 	.area _GSINIT
                            110 ;--------------------------------------------------------
                            111 ; Home
                            112 ;--------------------------------------------------------
                            113 	.area _HOME
                            114 	.area _HOME
                            115 ;--------------------------------------------------------
                            116 ; code
                            117 ;--------------------------------------------------------
                            118 	.area _CODE
                            119 ;src/includes/gui.h:1: void putM0(void)
                            120 ;	---------------------------------
                            121 ; Function putM0
                            122 ; ---------------------------------
   0000                     123 _putM0::
                            124 ;src/includes/gui.h:3: cpct_setVideoMode(0);
   0000 AF            [ 4]  125 	xor	a, a
   0001 F5            [11]  126 	push	af
   0002 33            [ 6]  127 	inc	sp
   0003 CDr00r00      [17]  128 	call	_cpct_setVideoMode
   0006 33            [ 6]  129 	inc	sp
                            130 ;src/includes/gui.h:5: cpct_setPalette(paletteTrains, 16);
   0007 21r13r00      [10]  131 	ld	hl,#_paletteTrains
   000A 01 10 00      [10]  132 	ld	bc,#0x0010
   000D C5            [11]  133 	push	bc
   000E E5            [11]  134 	push	hl
   000F CDr00r00      [17]  135 	call	_cpct_setPalette
   0012 C9            [10]  136 	ret
   0013                     137 _paletteTrains:
   0013 00                  138 	.db #0x00	; 0
   0014 1A                  139 	.db #0x1A	; 26
   0015 0D                  140 	.db #0x0D	; 13
   0016 03                  141 	.db #0x03	; 3
   0017 0F                  142 	.db #0x0F	; 15
   0018 06                  143 	.db #0x06	; 6
   0019 10                  144 	.db #0x10	; 16
   001A 09                  145 	.db #0x09	; 9
   001B 0A                  146 	.db #0x0A	; 10
   001C 14                  147 	.db #0x14	; 20
   001D 02                  148 	.db #0x02	; 2
   001E 01                  149 	.db #0x01	; 1
   001F 13                  150 	.db #0x13	; 19
   0020 18                  151 	.db #0x18	; 24
   0021 0B                  152 	.db #0x0B	; 11
   0022 19                  153 	.db #0x19	; 25
   0023                     154 _paletteMenusM1:
   0023 00                  155 	.db #0x00	; 0
   0024 0F                  156 	.db #0x0F	; 15
   0025 09                  157 	.db #0x09	; 9
   0026 16                  158 	.db #0x16	; 22
   0027                     159 _paletteMenusM2:
   0027 00                  160 	.db #0x00	; 0
   0028 14                  161 	.db #0x14	; 20
   0029                     162 _grass1:
   0029 0F                  163 	.db #0x0F	; 15
   002A 0F                  164 	.db #0x0F	; 15
   002B 0F                  165 	.db #0x0F	; 15
   002C 8F                  166 	.db #0x8F	; 143
   002D 0F                  167 	.db #0x0F	; 15
   002E 0F                  168 	.db #0x0F	; 15
   002F 0F                  169 	.db #0x0F	; 15
   0030 0F                  170 	.db #0x0F	; 15
   0031 1F                  171 	.db #0x1F	; 31
   0032 0F                  172 	.db #0x0F	; 15
   0033 2F                  173 	.db #0x2F	; 47
   0034 0F                  174 	.db #0x0F	; 15
   0035 0F                  175 	.db #0x0F	; 15
   0036 0F                  176 	.db #0x0F	; 15
   0037 0F                  177 	.db #0x0F	; 15
   0038 0F                  178 	.db #0x0F	; 15
   0039 0F                  179 	.db #0x0F	; 15
   003A 0F                  180 	.db #0x0F	; 15
   003B 0F                  181 	.db #0x0F	; 15
   003C 0F                  182 	.db #0x0F	; 15
   003D 0F                  183 	.db #0x0F	; 15
   003E 0F                  184 	.db #0x0F	; 15
   003F 0F                  185 	.db #0x0F	; 15
   0040 0F                  186 	.db #0x0F	; 15
   0041 0F                  187 	.db #0x0F	; 15
   0042 0F                  188 	.db #0x0F	; 15
   0043 0F                  189 	.db #0x0F	; 15
   0044 0F                  190 	.db #0x0F	; 15
   0045 4F                  191 	.db #0x4F	; 79	'O'
   0046 0F                  192 	.db #0x0F	; 15
   0047 0F                  193 	.db #0x0F	; 15
   0048 8F                  194 	.db #0x8F	; 143
   0049 0F                  195 	.db #0x0F	; 15
   004A 4F                  196 	.db #0x4F	; 79	'O'
   004B 0F                  197 	.db #0x0F	; 15
   004C 0F                  198 	.db #0x0F	; 15
   004D 0F                  199 	.db #0x0F	; 15
   004E 0F                  200 	.db #0x0F	; 15
   004F 0F                  201 	.db #0x0F	; 15
   0050 0F                  202 	.db #0x0F	; 15
   0051 0F                  203 	.db #0x0F	; 15
   0052 0F                  204 	.db #0x0F	; 15
   0053 0F                  205 	.db #0x0F	; 15
   0054 0F                  206 	.db #0x0F	; 15
   0055 0F                  207 	.db #0x0F	; 15
   0056 1F                  208 	.db #0x1F	; 31
   0057 0F                  209 	.db #0x0F	; 15
   0058 0F                  210 	.db #0x0F	; 15
   0059 0F                  211 	.db #0x0F	; 15
   005A 0F                  212 	.db #0x0F	; 15
   005B 0F                  213 	.db #0x0F	; 15
   005C 8F                  214 	.db #0x8F	; 143
   005D 0F                  215 	.db #0x0F	; 15
   005E 0F                  216 	.db #0x0F	; 15
   005F 0F                  217 	.db #0x0F	; 15
   0060 0F                  218 	.db #0x0F	; 15
   0061 0F                  219 	.db #0x0F	; 15
   0062 0F                  220 	.db #0x0F	; 15
   0063 0F                  221 	.db #0x0F	; 15
   0064 0F                  222 	.db #0x0F	; 15
   0065 4F                  223 	.db #0x4F	; 79	'O'
   0066 0F                  224 	.db #0x0F	; 15
   0067 8F                  225 	.db #0x8F	; 143
   0068 0F                  226 	.db #0x0F	; 15
   0069                     227 _grass2:
   0069 0F                  228 	.db #0x0F	; 15
   006A 0F                  229 	.db #0x0F	; 15
   006B 0F                  230 	.db #0x0F	; 15
   006C 0F                  231 	.db #0x0F	; 15
   006D 0F                  232 	.db #0x0F	; 15
   006E 0F                  233 	.db #0x0F	; 15
   006F 0F                  234 	.db #0x0F	; 15
   0070 2F                  235 	.db #0x2F	; 47
   0071 0F                  236 	.db #0x0F	; 15
   0072 8F                  237 	.db #0x8F	; 143
   0073 0F                  238 	.db #0x0F	; 15
   0074 0F                  239 	.db #0x0F	; 15
   0075 0F                  240 	.db #0x0F	; 15
   0076 0F                  241 	.db #0x0F	; 15
   0077 0F                  242 	.db #0x0F	; 15
   0078 0F                  243 	.db #0x0F	; 15
   0079 0F                  244 	.db #0x0F	; 15
   007A 0F                  245 	.db #0x0F	; 15
   007B 0F                  246 	.db #0x0F	; 15
   007C 0F                  247 	.db #0x0F	; 15
   007D 4F                  248 	.db #0x4F	; 79	'O'
   007E 0F                  249 	.db #0x0F	; 15
   007F 0F                  250 	.db #0x0F	; 15
   0080 0F                  251 	.db #0x0F	; 15
   0081 0F                  252 	.db #0x0F	; 15
   0082 0F                  253 	.db #0x0F	; 15
   0083 2F                  254 	.db #0x2F	; 47
   0084 0F                  255 	.db #0x0F	; 15
   0085 0F                  256 	.db #0x0F	; 15
   0086 0F                  257 	.db #0x0F	; 15
   0087 0F                  258 	.db #0x0F	; 15
   0088 0F                  259 	.db #0x0F	; 15
   0089 0F                  260 	.db #0x0F	; 15
   008A 4F                  261 	.db #0x4F	; 79	'O'
   008B 0F                  262 	.db #0x0F	; 15
   008C 0F                  263 	.db #0x0F	; 15
   008D 0F                  264 	.db #0x0F	; 15
   008E 0F                  265 	.db #0x0F	; 15
   008F 0F                  266 	.db #0x0F	; 15
   0090 0F                  267 	.db #0x0F	; 15
   0091 0F                  268 	.db #0x0F	; 15
   0092 0F                  269 	.db #0x0F	; 15
   0093 0F                  270 	.db #0x0F	; 15
   0094 0F                  271 	.db #0x0F	; 15
   0095 0F                  272 	.db #0x0F	; 15
   0096 0F                  273 	.db #0x0F	; 15
   0097 0F                  274 	.db #0x0F	; 15
   0098 8F                  275 	.db #0x8F	; 143
   0099 0F                  276 	.db #0x0F	; 15
   009A 0F                  277 	.db #0x0F	; 15
   009B 0F                  278 	.db #0x0F	; 15
   009C 0F                  279 	.db #0x0F	; 15
   009D 2F                  280 	.db #0x2F	; 47
   009E 1F                  281 	.db #0x1F	; 31
   009F 0F                  282 	.db #0x0F	; 15
   00A0 0F                  283 	.db #0x0F	; 15
   00A1 0F                  284 	.db #0x0F	; 15
   00A2 0F                  285 	.db #0x0F	; 15
   00A3 0F                  286 	.db #0x0F	; 15
   00A4 2F                  287 	.db #0x2F	; 47
   00A5 0F                  288 	.db #0x0F	; 15
   00A6 0F                  289 	.db #0x0F	; 15
   00A7 0F                  290 	.db #0x0F	; 15
   00A8 0F                  291 	.db #0x0F	; 15
   00A9                     292 _forest:
   00A9 0F                  293 	.db #0x0F	; 15
   00AA 0F                  294 	.db #0x0F	; 15
   00AB 0E                  295 	.db #0x0E	; 14
   00AC 03                  296 	.db #0x03	; 3
   00AD 0E                  297 	.db #0x0E	; 14
   00AE 03                  298 	.db #0x03	; 3
   00AF 0E                  299 	.db #0x0E	; 14
   00B0 EF                  300 	.db #0xEF	; 239
   00B1 0E                  301 	.db #0x0E	; 14
   00B2 EF                  302 	.db #0xEF	; 239
   00B3 0F                  303 	.db #0x0F	; 15
   00B4 EF                  304 	.db #0xEF	; 239
   00B5 0E                  305 	.db #0x0E	; 14
   00B6 FF                  306 	.db #0xFF	; 255
   00B7 0F                  307 	.db #0x0F	; 15
   00B8 0F                  308 	.db #0x0F	; 15
   00B9 07                  309 	.db #0x07	; 7
   00BA 6F                  310 	.db #0x6F	; 111	'o'
   00BB 0C                  311 	.db #0x0C	; 12
   00BC 0F                  312 	.db #0x0F	; 15
   00BD CF                  313 	.db #0xCF	; 207
   00BE 0F                  314 	.db #0x0F	; 15
   00BF 19                  315 	.db #0x19	; 25
   00C0 8F                  316 	.db #0x8F	; 143
   00C1 CE                  317 	.db #0xCE	; 206
   00C2 03                  318 	.db #0x03	; 3
   00C3 3B                  319 	.db #0x3B	; 59
   00C4 8F                  320 	.db #0x8F	; 143
   00C5 CE                  321 	.db #0xCE	; 206
   00C6 CF                  322 	.db #0xCF	; 207
   00C7 3B                  323 	.db #0x3B	; 59
   00C8 0F                  324 	.db #0x0F	; 15
   00C9 0E                  325 	.db #0x0E	; 14
   00CA EF                  326 	.db #0xEF	; 239
   00CB 3F                  327 	.db #0x3F	; 63
   00CC 0F                  328 	.db #0x0F	; 15
   00CD 0F                  329 	.db #0x0F	; 15
   00CE EF                  330 	.db #0xEF	; 239
   00CF 0F                  331 	.db #0x0F	; 15
   00D0 0F                  332 	.db #0x0F	; 15
   00D1 0E                  333 	.db #0x0E	; 14
   00D2 07                  334 	.db #0x07	; 7
   00D3 03                  335 	.db #0x03	; 3
   00D4 0F                  336 	.db #0x0F	; 15
   00D5 1D                  337 	.db #0x1D	; 29
   00D6 CE                  338 	.db #0xCE	; 206
   00D7 EF                  339 	.db #0xEF	; 239
   00D8 09                  340 	.db #0x09	; 9
   00D9 3B                  341 	.db #0x3B	; 59
   00DA 8F                  342 	.db #0x8F	; 143
   00DB CE                  343 	.db #0xCE	; 206
   00DC 67                  344 	.db #0x67	; 103	'g'
   00DD 3B                  345 	.db #0x3B	; 59
   00DE 8F                  346 	.db #0x8F	; 143
   00DF 1D                  347 	.db #0x1D	; 29
   00E0 EF                  348 	.db #0xEF	; 239
   00E1 2F                  349 	.db #0x2F	; 47
   00E2 0F                  350 	.db #0x0F	; 15
   00E3 1D                  351 	.db #0x1D	; 29
   00E4 EF                  352 	.db #0xEF	; 239
   00E5 0F                  353 	.db #0x0F	; 15
   00E6 0F                  354 	.db #0x0F	; 15
   00E7 0F                  355 	.db #0x0F	; 15
   00E8 CF                  356 	.db #0xCF	; 207
   00E9                     357 _dwellings1:
   00E9 0F                  358 	.db #0x0F	; 15
   00EA 0F                  359 	.db #0x0F	; 15
   00EB 0F                  360 	.db #0x0F	; 15
   00EC 0F                  361 	.db #0x0F	; 15
   00ED 08                  362 	.db #0x08	; 8
   00EE 03                  363 	.db #0x03	; 3
   00EF 0C                  364 	.db #0x0C	; 12
   00F0 07                  365 	.db #0x07	; 7
   00F1 38                  366 	.db #0x38	; 56	'8'
   00F2 E1                  367 	.db #0xE1	; 225
   00F3 1C                  368 	.db #0x1C	; 28
   00F4 C3                  369 	.db #0xC3	; 195
   00F5 3C                  370 	.db #0x3C	; 60
   00F6 E1                  371 	.db #0xE1	; 225
   00F7 1C                  372 	.db #0x1C	; 28
   00F8 C3                  373 	.db #0xC3	; 195
   00F9 0F                  374 	.db #0x0F	; 15
   00FA 0F                  375 	.db #0x0F	; 15
   00FB 1E                  376 	.db #0x1E	; 30
   00FC C3                  377 	.db #0xC3	; 195
   00FD 0F                  378 	.db #0x0F	; 15
   00FE 0F                  379 	.db #0x0F	; 15
   00FF 0F                  380 	.db #0x0F	; 15
   0100 0F                  381 	.db #0x0F	; 15
   0101 0F                  382 	.db #0x0F	; 15
   0102 0F                  383 	.db #0x0F	; 15
   0103 0E                  384 	.db #0x0E	; 14
   0104 03                  385 	.db #0x03	; 3
   0105 0F                  386 	.db #0x0F	; 15
   0106 0E                  387 	.db #0x0E	; 14
   0107 06                  388 	.db #0x06	; 6
   0108 E1                  389 	.db #0xE1	; 225
   0109 0F                  390 	.db #0x0F	; 15
   010A 0E                  391 	.db #0x0E	; 14
   010B C2                  392 	.db #0xC2	; 194
   010C E1                  393 	.db #0xE1	; 225
   010D 0F                  394 	.db #0x0F	; 15
   010E 0E                  395 	.db #0x0E	; 14
   010F C2                  396 	.db #0xC2	; 194
   0110 E1                  397 	.db #0xE1	; 225
   0111 0F                  398 	.db #0x0F	; 15
   0112 0E                  399 	.db #0x0E	; 14
   0113 C3                  400 	.db #0xC3	; 195
   0114 E1                  401 	.db #0xE1	; 225
   0115 0F                  402 	.db #0x0F	; 15
   0116 0E                  403 	.db #0x0E	; 14
   0117 C3                  404 	.db #0xC3	; 195
   0118 0F                  405 	.db #0x0F	; 15
   0119 0F                  406 	.db #0x0F	; 15
   011A 0F                  407 	.db #0x0F	; 15
   011B C3                  408 	.db #0xC3	; 195
   011C 0F                  409 	.db #0x0F	; 15
   011D 08                  410 	.db #0x08	; 8
   011E 07                  411 	.db #0x07	; 7
   011F 0F                  412 	.db #0x0F	; 15
   0120 0F                  413 	.db #0x0F	; 15
   0121 38                  414 	.db #0x38	; 56	'8'
   0122 C3                  415 	.db #0xC3	; 195
   0123 0F                  416 	.db #0x0F	; 15
   0124 0F                  417 	.db #0x0F	; 15
   0125 3C                  418 	.db #0x3C	; 60
   0126 C3                  419 	.db #0xC3	; 195
   0127 0F                  420 	.db #0x0F	; 15
   0128 0F                  421 	.db #0x0F	; 15
   0129                     422 _dwellings2:
   0129 0F                  423 	.db #0x0F	; 15
   012A 0F                  424 	.db #0x0F	; 15
   012B 0F                  425 	.db #0x0F	; 15
   012C 0F                  426 	.db #0x0F	; 15
   012D 0F                  427 	.db #0x0F	; 15
   012E 01                  428 	.db #0x01	; 1
   012F 0F                  429 	.db #0x0F	; 15
   0130 0F                  430 	.db #0x0F	; 15
   0131 0F                  431 	.db #0x0F	; 15
   0132 70                  432 	.db #0x70	; 112	'p'
   0133 0C                  433 	.db #0x0C	; 12
   0134 0F                  434 	.db #0x0F	; 15
   0135 09                  435 	.db #0x09	; 9
   0136 78                  436 	.db #0x78	; 120	'x'
   0137 1C                  437 	.db #0x1C	; 28
   0138 87                  438 	.db #0x87	; 135
   0139 38                  439 	.db #0x38	; 56	'8'
   013A 0F                  440 	.db #0x0F	; 15
   013B 1C                  441 	.db #0x1C	; 28
   013C 87                  442 	.db #0x87	; 135
   013D 38                  443 	.db #0x38	; 56	'8'
   013E 0F                  444 	.db #0x0F	; 15
   013F 1E                  445 	.db #0x1E	; 30
   0140 87                  446 	.db #0x87	; 135
   0141 3C                  447 	.db #0x3C	; 60
   0142 0F                  448 	.db #0x0F	; 15
   0143 0F                  449 	.db #0x0F	; 15
   0144 0F                  450 	.db #0x0F	; 15
   0145 0F                  451 	.db #0x0F	; 15
   0146 0F                  452 	.db #0x0F	; 15
   0147 0F                  453 	.db #0x0F	; 15
   0148 0F                  454 	.db #0x0F	; 15
   0149 0E                  455 	.db #0x0E	; 14
   014A 07                  456 	.db #0x07	; 7
   014B 0F                  457 	.db #0x0F	; 15
   014C 0F                  458 	.db #0x0F	; 15
   014D 0E                  459 	.db #0x0E	; 14
   014E C3                  460 	.db #0xC3	; 195
   014F 00                  461 	.db #0x00	; 0
   0150 07                  462 	.db #0x07	; 7
   0151 0E                  463 	.db #0x0E	; 14
   0152 C3                  464 	.db #0xC3	; 195
   0153 70                  465 	.db #0x70	; 112	'p'
   0154 C3                  466 	.db #0xC3	; 195
   0155 0F                  467 	.db #0x0F	; 15
   0156 C3                  468 	.db #0xC3	; 195
   0157 70                  469 	.db #0x70	; 112	'p'
   0158 C3                  470 	.db #0xC3	; 195
   0159 03                  471 	.db #0x03	; 3
   015A 0F                  472 	.db #0x0F	; 15
   015B 78                  473 	.db #0x78	; 120	'x'
   015C C3                  474 	.db #0xC3	; 195
   015D 61                  475 	.db #0x61	; 97	'a'
   015E 0F                  476 	.db #0x0F	; 15
   015F 0F                  477 	.db #0x0F	; 15
   0160 0F                  478 	.db #0x0F	; 15
   0161 69                  479 	.db #0x69	; 105	'i'
   0162 0F                  480 	.db #0x0F	; 15
   0163 0F                  481 	.db #0x0F	; 15
   0164 0F                  482 	.db #0x0F	; 15
   0165 0F                  483 	.db #0x0F	; 15
   0166 0F                  484 	.db #0x0F	; 15
   0167 0F                  485 	.db #0x0F	; 15
   0168 0F                  486 	.db #0x0F	; 15
   0169                     487 _dwellings3:
   0169 0F                  488 	.db #0x0F	; 15
   016A 0F                  489 	.db #0x0F	; 15
   016B 09                  490 	.db #0x09	; 9
   016C 09                  491 	.db #0x09	; 9
   016D 0F                  492 	.db #0x0F	; 15
   016E 0F                  493 	.db #0x0F	; 15
   016F 38                  494 	.db #0x38	; 56	'8'
   0170 38                  495 	.db #0x38	; 56	'8'
   0171 0E                  496 	.db #0x0E	; 14
   0172 03                  497 	.db #0x03	; 3
   0173 38                  498 	.db #0x38	; 56	'8'
   0174 38                  499 	.db #0x38	; 56	'8'
   0175 0E                  500 	.db #0x0E	; 14
   0176 E1                  501 	.db #0xE1	; 225
   0177 3C                  502 	.db #0x3C	; 60
   0178 3C                  503 	.db #0x3C	; 60
   0179 0E                  504 	.db #0x0E	; 14
   017A E1                  505 	.db #0xE1	; 225
   017B 0F                  506 	.db #0x0F	; 15
   017C 0F                  507 	.db #0x0F	; 15
   017D 0E                  508 	.db #0x0E	; 14
   017E E1                  509 	.db #0xE1	; 225
   017F 08                  510 	.db #0x08	; 8
   0180 07                  511 	.db #0x07	; 7
   0181 0F                  512 	.db #0x0F	; 15
   0182 E1                  513 	.db #0xE1	; 225
   0183 38                  514 	.db #0x38	; 56	'8'
   0184 C3                  515 	.db #0xC3	; 195
   0185 0F                  516 	.db #0x0F	; 15
   0186 0F                  517 	.db #0x0F	; 15
   0187 3C                  518 	.db #0x3C	; 60
   0188 C3                  519 	.db #0xC3	; 195
   0189 0C                  520 	.db #0x0C	; 12
   018A 0F                  521 	.db #0x0F	; 15
   018B 0F                  522 	.db #0x0F	; 15
   018C 0F                  523 	.db #0x0F	; 15
   018D 1C                  524 	.db #0x1C	; 28
   018E 87                  525 	.db #0x87	; 135
   018F 0F                  526 	.db #0x0F	; 15
   0190 0F                  527 	.db #0x0F	; 15
   0191 1E                  528 	.db #0x1E	; 30
   0192 87                  529 	.db #0x87	; 135
   0193 0C                  530 	.db #0x0C	; 12
   0194 07                  531 	.db #0x07	; 7
   0195 0F                  532 	.db #0x0F	; 15
   0196 0F                  533 	.db #0x0F	; 15
   0197 1C                  534 	.db #0x1C	; 28
   0198 C3                  535 	.db #0xC3	; 195
   0199 0F                  536 	.db #0x0F	; 15
   019A 09                  537 	.db #0x09	; 9
   019B 1C                  538 	.db #0x1C	; 28
   019C C3                  539 	.db #0xC3	; 195
   019D 0F                  540 	.db #0x0F	; 15
   019E 38                  541 	.db #0x38	; 56	'8'
   019F 1C                  542 	.db #0x1C	; 28
   01A0 C3                  543 	.db #0xC3	; 195
   01A1 0F                  544 	.db #0x0F	; 15
   01A2 3C                  545 	.db #0x3C	; 60
   01A3 1E                  546 	.db #0x1E	; 30
   01A4 C3                  547 	.db #0xC3	; 195
   01A5 0F                  548 	.db #0x0F	; 15
   01A6 0F                  549 	.db #0x0F	; 15
   01A7 0F                  550 	.db #0x0F	; 15
   01A8 0F                  551 	.db #0x0F	; 15
   01A9                     552 _water:
   01A9 5F                  553 	.db #0x5F	; 95
   01AA 5F                  554 	.db #0x5F	; 95
   01AB 5F                  555 	.db #0x5F	; 95
   01AC 5F                  556 	.db #0x5F	; 95
   01AD AF                  557 	.db #0xAF	; 175
   01AE AF                  558 	.db #0xAF	; 175
   01AF AF                  559 	.db #0xAF	; 175
   01B0 AF                  560 	.db #0xAF	; 175
   01B1 5F                  561 	.db #0x5F	; 95
   01B2 5F                  562 	.db #0x5F	; 95
   01B3 5F                  563 	.db #0x5F	; 95
   01B4 5F                  564 	.db #0x5F	; 95
   01B5 AF                  565 	.db #0xAF	; 175
   01B6 AF                  566 	.db #0xAF	; 175
   01B7 AF                  567 	.db #0xAF	; 175
   01B8 AF                  568 	.db #0xAF	; 175
   01B9 5F                  569 	.db #0x5F	; 95
   01BA 5F                  570 	.db #0x5F	; 95
   01BB 5F                  571 	.db #0x5F	; 95
   01BC 5F                  572 	.db #0x5F	; 95
   01BD AF                  573 	.db #0xAF	; 175
   01BE AF                  574 	.db #0xAF	; 175
   01BF AF                  575 	.db #0xAF	; 175
   01C0 AF                  576 	.db #0xAF	; 175
   01C1 5F                  577 	.db #0x5F	; 95
   01C2 5F                  578 	.db #0x5F	; 95
   01C3 5F                  579 	.db #0x5F	; 95
   01C4 5F                  580 	.db #0x5F	; 95
   01C5 AF                  581 	.db #0xAF	; 175
   01C6 AF                  582 	.db #0xAF	; 175
   01C7 AF                  583 	.db #0xAF	; 175
   01C8 AF                  584 	.db #0xAF	; 175
   01C9 5F                  585 	.db #0x5F	; 95
   01CA 5F                  586 	.db #0x5F	; 95
   01CB 5F                  587 	.db #0x5F	; 95
   01CC 5F                  588 	.db #0x5F	; 95
   01CD AF                  589 	.db #0xAF	; 175
   01CE AF                  590 	.db #0xAF	; 175
   01CF AF                  591 	.db #0xAF	; 175
   01D0 AF                  592 	.db #0xAF	; 175
   01D1 5F                  593 	.db #0x5F	; 95
   01D2 5F                  594 	.db #0x5F	; 95
   01D3 5F                  595 	.db #0x5F	; 95
   01D4 5F                  596 	.db #0x5F	; 95
   01D5 AF                  597 	.db #0xAF	; 175
   01D6 AF                  598 	.db #0xAF	; 175
   01D7 AF                  599 	.db #0xAF	; 175
   01D8 AF                  600 	.db #0xAF	; 175
   01D9 5F                  601 	.db #0x5F	; 95
   01DA 5F                  602 	.db #0x5F	; 95
   01DB 5F                  603 	.db #0x5F	; 95
   01DC 5F                  604 	.db #0x5F	; 95
   01DD AF                  605 	.db #0xAF	; 175
   01DE AF                  606 	.db #0xAF	; 175
   01DF AF                  607 	.db #0xAF	; 175
   01E0 AF                  608 	.db #0xAF	; 175
   01E1 5F                  609 	.db #0x5F	; 95
   01E2 5F                  610 	.db #0x5F	; 95
   01E3 5F                  611 	.db #0x5F	; 95
   01E4 5F                  612 	.db #0x5F	; 95
   01E5 AF                  613 	.db #0xAF	; 175
   01E6 AF                  614 	.db #0xAF	; 175
   01E7 AF                  615 	.db #0xAF	; 175
   01E8 AF                  616 	.db #0xAF	; 175
   01E9                     617 _farm1:
   01E9 03                  618 	.db #0x03	; 3
   01EA 0F                  619 	.db #0x0F	; 15
   01EB 78                  620 	.db #0x78	; 120	'x'
   01EC F0                  621 	.db #0xF0	; 240
   01ED 61                  622 	.db #0x61	; 97	'a'
   01EE 01                  623 	.db #0x01	; 1
   01EF 5F                  624 	.db #0x5F	; 95
   01F0 5F                  625 	.db #0x5F	; 95
   01F1 61                  626 	.db #0x61	; 97	'a'
   01F2 70                  627 	.db #0x70	; 112	'p'
   01F3 78                  628 	.db #0x78	; 120	'x'
   01F4 F0                  629 	.db #0xF0	; 240
   01F5 69                  630 	.db #0x69	; 105	'i'
   01F6 78                  631 	.db #0x78	; 120	'x'
   01F7 2F                  632 	.db #0x2F	; 47
   01F8 AF                  633 	.db #0xAF	; 175
   01F9 0F                  634 	.db #0x0F	; 15
   01FA 0F                  635 	.db #0x0F	; 15
   01FB 78                  636 	.db #0x78	; 120	'x'
   01FC F0                  637 	.db #0xF0	; 240
   01FD 7A                  638 	.db #0x7A	; 122	'z'
   01FE 7A                  639 	.db #0x7A	; 122	'z'
   01FF 5F                  640 	.db #0x5F	; 95
   0200 5F                  641 	.db #0x5F	; 95
   0201 5A                  642 	.db #0x5A	; 90	'Z'
   0202 DA                  643 	.db #0xDA	; 218
   0203 78                  644 	.db #0x78	; 120	'x'
   0204 F0                  645 	.db #0xF0	; 240
   0205 7A                  646 	.db #0x7A	; 122	'z'
   0206 7A                  647 	.db #0x7A	; 122	'z'
   0207 0F                  648 	.db #0x0F	; 15
   0208 0F                  649 	.db #0x0F	; 15
   0209 5A                  650 	.db #0x5A	; 90	'Z'
   020A DA                  651 	.db #0xDA	; 218
   020B 0F                  652 	.db #0x0F	; 15
   020C 0F                  653 	.db #0x0F	; 15
   020D 7A                  654 	.db #0x7A	; 122	'z'
   020E 7A                  655 	.db #0x7A	; 122	'z'
   020F 78                  656 	.db #0x78	; 120	'x'
   0210 F0                  657 	.db #0xF0	; 240
   0211 5A                  658 	.db #0x5A	; 90	'Z'
   0212 DA                  659 	.db #0xDA	; 218
   0213 5F                  660 	.db #0x5F	; 95
   0214 5F                  661 	.db #0x5F	; 95
   0215 7A                  662 	.db #0x7A	; 122	'z'
   0216 7A                  663 	.db #0x7A	; 122	'z'
   0217 78                  664 	.db #0x78	; 120	'x'
   0218 F0                  665 	.db #0xF0	; 240
   0219 5A                  666 	.db #0x5A	; 90	'Z'
   021A DA                  667 	.db #0xDA	; 218
   021B 2F                  668 	.db #0x2F	; 47
   021C AF                  669 	.db #0xAF	; 175
   021D 7A                  670 	.db #0x7A	; 122	'z'
   021E 7A                  671 	.db #0x7A	; 122	'z'
   021F 78                  672 	.db #0x78	; 120	'x'
   0220 F0                  673 	.db #0xF0	; 240
   0221 5A                  674 	.db #0x5A	; 90	'Z'
   0222 DA                  675 	.db #0xDA	; 218
   0223 5F                  676 	.db #0x5F	; 95
   0224 5F                  677 	.db #0x5F	; 95
   0225 7A                  678 	.db #0x7A	; 122	'z'
   0226 7A                  679 	.db #0x7A	; 122	'z'
   0227 78                  680 	.db #0x78	; 120	'x'
   0228 F0                  681 	.db #0xF0	; 240
   0229                     682 _farm2:
   0229 0F                  683 	.db #0x0F	; 15
   022A 0F                  684 	.db #0x0F	; 15
   022B 0F                  685 	.db #0x0F	; 15
   022C 0F                  686 	.db #0x0F	; 15
   022D 7F                  687 	.db #0x7F	; 127
   022E FF                  688 	.db #0xFF	; 255
   022F FF                  689 	.db #0xFF	; 255
   0230 EF                  690 	.db #0xEF	; 239
   0231 2D                  691 	.db #0x2D	; 45
   0232 A5                  692 	.db #0xA5	; 165
   0233 A5                  693 	.db #0xA5	; 165
   0234 A5                  694 	.db #0xA5	; 165
   0235 7F                  695 	.db #0x7F	; 127
   0236 FF                  696 	.db #0xFF	; 255
   0237 FF                  697 	.db #0xFF	; 255
   0238 EF                  698 	.db #0xEF	; 239
   0239 5A                  699 	.db #0x5A	; 90	'Z'
   023A 5A                  700 	.db #0x5A	; 90	'Z'
   023B 5A                  701 	.db #0x5A	; 90	'Z'
   023C 4B                  702 	.db #0x4B	; 75	'K'
   023D 7F                  703 	.db #0x7F	; 127
   023E FF                  704 	.db #0xFF	; 255
   023F FF                  705 	.db #0xFF	; 255
   0240 EF                  706 	.db #0xEF	; 239
   0241 2D                  707 	.db #0x2D	; 45
   0242 A5                  708 	.db #0xA5	; 165
   0243 A5                  709 	.db #0xA5	; 165
   0244 A5                  710 	.db #0xA5	; 165
   0245 7F                  711 	.db #0x7F	; 127
   0246 FF                  712 	.db #0xFF	; 255
   0247 FF                  713 	.db #0xFF	; 255
   0248 EF                  714 	.db #0xEF	; 239
   0249 5A                  715 	.db #0x5A	; 90	'Z'
   024A 5A                  716 	.db #0x5A	; 90	'Z'
   024B 5A                  717 	.db #0x5A	; 90	'Z'
   024C 4B                  718 	.db #0x4B	; 75	'K'
   024D 7F                  719 	.db #0x7F	; 127
   024E FF                  720 	.db #0xFF	; 255
   024F FF                  721 	.db #0xFF	; 255
   0250 EF                  722 	.db #0xEF	; 239
   0251 0F                  723 	.db #0x0F	; 15
   0252 0F                  724 	.db #0x0F	; 15
   0253 0F                  725 	.db #0x0F	; 15
   0254 0F                  726 	.db #0x0F	; 15
   0255 0E                  727 	.db #0x0E	; 14
   0256 07                  728 	.db #0x07	; 7
   0257 AF                  729 	.db #0xAF	; 175
   0258 AF                  730 	.db #0xAF	; 175
   0259 02                  731 	.db #0x02	; 2
   025A C3                  732 	.db #0xC3	; 195
   025B AF                  733 	.db #0xAF	; 175
   025C AF                  734 	.db #0xAF	; 175
   025D 60                  735 	.db #0x60	; 96
   025E C3                  736 	.db #0xC3	; 195
   025F AF                  737 	.db #0xAF	; 175
   0260 AF                  738 	.db #0xAF	; 175
   0261 69                  739 	.db #0x69	; 105	'i'
   0262 C3                  740 	.db #0xC3	; 195
   0263 AF                  741 	.db #0xAF	; 175
   0264 AF                  742 	.db #0xAF	; 175
   0265 0F                  743 	.db #0x0F	; 15
   0266 0F                  744 	.db #0x0F	; 15
   0267 0F                  745 	.db #0x0F	; 15
   0268 0F                  746 	.db #0x0F	; 15
   0269                     747 _livestock:
   0269 03                  748 	.db #0x03	; 3
   026A 0F                  749 	.db #0x0F	; 15
   026B 0F                  750 	.db #0x0F	; 15
   026C 0F                  751 	.db #0x0F	; 15
   026D 61                  752 	.db #0x61	; 97	'a'
   026E F5                  753 	.db #0xF5	; 245
   026F F5                  754 	.db #0xF5	; 245
   0270 E5                  755 	.db #0xE5	; 229
   0271 61                  756 	.db #0x61	; 97	'a'
   0272 8F                  757 	.db #0x8F	; 143
   0273 0F                  758 	.db #0x0F	; 15
   0274 2F                  759 	.db #0x2F	; 47
   0275 69                  760 	.db #0x69	; 105	'i'
   0276 87                  761 	.db #0x87	; 135
   0277 0F                  762 	.db #0x0F	; 15
   0278 AD                  763 	.db #0xAD	; 173
   0279 0F                  764 	.db #0x0F	; 15
   027A 9F                  765 	.db #0x9F	; 159
   027B 0F                  766 	.db #0x0F	; 15
   027C 2F                  767 	.db #0x2F	; 47
   027D 7D                  768 	.db #0x7D	; 125
   027E 87                  769 	.db #0x87	; 135
   027F 0F                  770 	.db #0x0F	; 15
   0280 2D                  771 	.db #0x2D	; 45
   0281 4B                  772 	.db #0x4B	; 75	'K'
   0282 0F                  773 	.db #0x0F	; 15
   0283 2F                  774 	.db #0x2F	; 47
   0284 2F                  775 	.db #0x2F	; 47
   0285 4F                  776 	.db #0x4F	; 79	'O'
   0286 0F                  777 	.db #0x0F	; 15
   0287 0F                  778 	.db #0x0F	; 15
   0288 2D                  779 	.db #0x2D	; 45
   0289 5B                  780 	.db #0x5B	; 91
   028A 1F                  781 	.db #0x1F	; 31
   028B 0F                  782 	.db #0x0F	; 15
   028C 2F                  783 	.db #0x2F	; 47
   028D 4F                  784 	.db #0x4F	; 79	'O'
   028E 0F                  785 	.db #0x0F	; 15
   028F 1F                  786 	.db #0x1F	; 31
   0290 2D                  787 	.db #0x2D	; 45
   0291 4B                  788 	.db #0x4B	; 75	'K'
   0292 0F                  789 	.db #0x0F	; 15
   0293 0F                  790 	.db #0x0F	; 15
   0294 2F                  791 	.db #0x2F	; 47
   0295 4F                  792 	.db #0x4F	; 79	'O'
   0296 4F                  793 	.db #0x4F	; 79	'O'
   0297 0F                  794 	.db #0x0F	; 15
   0298 2D                  795 	.db #0x2D	; 45
   0299 4B                  796 	.db #0x4B	; 75	'K'
   029A 0F                  797 	.db #0x0F	; 15
   029B 2F                  798 	.db #0x2F	; 47
   029C 2F                  799 	.db #0x2F	; 47
   029D 4F                  800 	.db #0x4F	; 79	'O'
   029E 0F                  801 	.db #0x0F	; 15
   029F 0F                  802 	.db #0x0F	; 15
   02A0 2D                  803 	.db #0x2D	; 45
   02A1 7A                  804 	.db #0x7A	; 122	'z'
   02A2 FA                  805 	.db #0xFA	; 250
   02A3 FA                  806 	.db #0xFA	; 250
   02A4 EB                  807 	.db #0xEB	; 235
   02A5 0F                  808 	.db #0x0F	; 15
   02A6 0F                  809 	.db #0x0F	; 15
   02A7 0F                  810 	.db #0x0F	; 15
   02A8 0F                  811 	.db #0x0F	; 15
   02A9                     812 _station_small_ns:
   02A9 0F                  813 	.db #0x0F	; 15
   02AA 1E                  814 	.db #0x1E	; 30
   02AB 43                  815 	.db #0x43	; 67	'C'
   02AC 0F                  816 	.db #0x0F	; 15
   02AD 0F                  817 	.db #0x0F	; 15
   02AE 1E                  818 	.db #0x1E	; 30
   02AF 43                  819 	.db #0x43	; 67	'C'
   02B0 4F                  820 	.db #0x4F	; 79	'O'
   02B1 0F                  821 	.db #0x0F	; 15
   02B2 5E                  822 	.db #0x5E	; 94
   02B3 43                  823 	.db #0x43	; 67	'C'
   02B4 0F                  824 	.db #0x0F	; 15
   02B5 0F                  825 	.db #0x0F	; 15
   02B6 1E                  826 	.db #0x1E	; 30
   02B7 43                  827 	.db #0x43	; 67	'C'
   02B8 0F                  828 	.db #0x0F	; 15
   02B9 4F                  829 	.db #0x4F	; 79	'O'
   02BA 1E                  830 	.db #0x1E	; 30
   02BB 43                  831 	.db #0x43	; 67	'C'
   02BC 8F                  832 	.db #0x8F	; 143
   02BD 0F                  833 	.db #0x0F	; 15
   02BE 1E                  834 	.db #0x1E	; 30
   02BF 43                  835 	.db #0x43	; 67	'C'
   02C0 0F                  836 	.db #0x0F	; 15
   02C1 0F                  837 	.db #0x0F	; 15
   02C2 1E                  838 	.db #0x1E	; 30
   02C3 43                  839 	.db #0x43	; 67	'C'
   02C4 0F                  840 	.db #0x0F	; 15
   02C5 0E                  841 	.db #0x0E	; 14
   02C6 16                  842 	.db #0x16	; 22
   02C7 43                  843 	.db #0x43	; 67	'C'
   02C8 0F                  844 	.db #0x0F	; 15
   02C9 0E                  845 	.db #0x0E	; 14
   02CA D2                  846 	.db #0xD2	; 210
   02CB 43                  847 	.db #0x43	; 67	'C'
   02CC 0F                  848 	.db #0x0F	; 15
   02CD 4F                  849 	.db #0x4F	; 79	'O'
   02CE D2                  850 	.db #0xD2	; 210
   02CF 43                  851 	.db #0x43	; 67	'C'
   02D0 0F                  852 	.db #0x0F	; 15
   02D1 0F                  853 	.db #0x0F	; 15
   02D2 1E                  854 	.db #0x1E	; 30
   02D3 53                  855 	.db #0x53	; 83	'S'
   02D4 0F                  856 	.db #0x0F	; 15
   02D5 0F                  857 	.db #0x0F	; 15
   02D6 1E                  858 	.db #0x1E	; 30
   02D7 43                  859 	.db #0x43	; 67	'C'
   02D8 0F                  860 	.db #0x0F	; 15
   02D9 0F                  861 	.db #0x0F	; 15
   02DA 5E                  862 	.db #0x5E	; 94
   02DB 43                  863 	.db #0x43	; 67	'C'
   02DC 0F                  864 	.db #0x0F	; 15
   02DD 0F                  865 	.db #0x0F	; 15
   02DE 1E                  866 	.db #0x1E	; 30
   02DF 43                  867 	.db #0x43	; 67	'C'
   02E0 1F                  868 	.db #0x1F	; 31
   02E1 4F                  869 	.db #0x4F	; 79	'O'
   02E2 1E                  870 	.db #0x1E	; 30
   02E3 43                  871 	.db #0x43	; 67	'C'
   02E4 0F                  872 	.db #0x0F	; 15
   02E5 0F                  873 	.db #0x0F	; 15
   02E6 1E                  874 	.db #0x1E	; 30
   02E7 43                  875 	.db #0x43	; 67	'C'
   02E8 0F                  876 	.db #0x0F	; 15
   02E9                     877 _station_small_ew:
   02E9 0F                  878 	.db #0x0F	; 15
   02EA 2F                  879 	.db #0x2F	; 47
   02EB 0F                  880 	.db #0x0F	; 15
   02EC 0F                  881 	.db #0x0F	; 15
   02ED 0F                  882 	.db #0x0F	; 15
   02EE 0F                  883 	.db #0x0F	; 15
   02EF 0F                  884 	.db #0x0F	; 15
   02F0 4F                  885 	.db #0x4F	; 79	'O'
   02F1 0F                  886 	.db #0x0F	; 15
   02F2 0F                  887 	.db #0x0F	; 15
   02F3 0F                  888 	.db #0x0F	; 15
   02F4 0F                  889 	.db #0x0F	; 15
   02F5 2F                  890 	.db #0x2F	; 47
   02F6 0C                  891 	.db #0x0C	; 12
   02F7 0F                  892 	.db #0x0F	; 15
   02F8 0F                  893 	.db #0x0F	; 15
   02F9 0F                  894 	.db #0x0F	; 15
   02FA 1C                  895 	.db #0x1C	; 28
   02FB 87                  896 	.db #0x87	; 135
   02FC 8F                  897 	.db #0x8F	; 143
   02FD 0F                  898 	.db #0x0F	; 15
   02FE 1E                  899 	.db #0x1E	; 30
   02FF 87                  900 	.db #0x87	; 135
   0300 0F                  901 	.db #0x0F	; 15
   0301 0F                  902 	.db #0x0F	; 15
   0302 0F                  903 	.db #0x0F	; 15
   0303 0F                  904 	.db #0x0F	; 15
   0304 0F                  905 	.db #0x0F	; 15
   0305 F0                  906 	.db #0xF0	; 240
   0306 F0                  907 	.db #0xF0	; 240
   0307 F0                  908 	.db #0xF0	; 240
   0308 F0                  909 	.db #0xF0	; 240
   0309 00                  910 	.db #0x00	; 0
   030A 00                  911 	.db #0x00	; 0
   030B 00                  912 	.db #0x00	; 0
   030C 00                  913 	.db #0x00	; 0
   030D F0                  914 	.db #0xF0	; 240
   030E F0                  915 	.db #0xF0	; 240
   030F F0                  916 	.db #0xF0	; 240
   0310 F0                  917 	.db #0xF0	; 240
   0311 0F                  918 	.db #0x0F	; 15
   0312 0F                  919 	.db #0x0F	; 15
   0313 0F                  920 	.db #0x0F	; 15
   0314 0F                  921 	.db #0x0F	; 15
   0315 0F                  922 	.db #0x0F	; 15
   0316 8F                  923 	.db #0x8F	; 143
   0317 0F                  924 	.db #0x0F	; 15
   0318 8F                  925 	.db #0x8F	; 143
   0319 0F                  926 	.db #0x0F	; 15
   031A 0F                  927 	.db #0x0F	; 15
   031B 0F                  928 	.db #0x0F	; 15
   031C 0F                  929 	.db #0x0F	; 15
   031D 0F                  930 	.db #0x0F	; 15
   031E 0F                  931 	.db #0x0F	; 15
   031F 8F                  932 	.db #0x8F	; 143
   0320 0F                  933 	.db #0x0F	; 15
   0321 4F                  934 	.db #0x4F	; 79	'O'
   0322 0F                  935 	.db #0x0F	; 15
   0323 1F                  936 	.db #0x1F	; 31
   0324 0F                  937 	.db #0x0F	; 15
   0325 0F                  938 	.db #0x0F	; 15
   0326 0F                  939 	.db #0x0F	; 15
   0327 0F                  940 	.db #0x0F	; 15
   0328 1F                  941 	.db #0x1F	; 31
   0329                     942 _station_medium_ns:
   0329 0F                  943 	.db #0x0F	; 15
   032A 1E                  944 	.db #0x1E	; 30
   032B 70                  945 	.db #0x70	; 112	'p'
   032C 0F                  946 	.db #0x0F	; 15
   032D 2F                  947 	.db #0x2F	; 47
   032E 1E                  948 	.db #0x1E	; 30
   032F 50                  949 	.db #0x50	; 80	'P'
   0330 0F                  950 	.db #0x0F	; 15
   0331 0F                  951 	.db #0x0F	; 15
   0332 1E                  952 	.db #0x1E	; 30
   0333 50                  953 	.db #0x50	; 80	'P'
   0334 2F                  954 	.db #0x2F	; 47
   0335 0F                  955 	.db #0x0F	; 15
   0336 1E                  956 	.db #0x1E	; 30
   0337 50                  957 	.db #0x50	; 80	'P'
   0338 0F                  958 	.db #0x0F	; 15
   0339 0F                  959 	.db #0x0F	; 15
   033A 1E                  960 	.db #0x1E	; 30
   033B 50                  961 	.db #0x50	; 80	'P'
   033C 0F                  962 	.db #0x0F	; 15
   033D 0E                  963 	.db #0x0E	; 14
   033E 16                  964 	.db #0x16	; 22
   033F 50                  965 	.db #0x50	; 80	'P'
   0340 0F                  966 	.db #0x0F	; 15
   0341 0E                  967 	.db #0x0E	; 14
   0342 D2                  968 	.db #0xD2	; 210
   0343 50                  969 	.db #0x50	; 80	'P'
   0344 2F                  970 	.db #0x2F	; 47
   0345 0E                  971 	.db #0x0E	; 14
   0346 D2                  972 	.db #0xD2	; 210
   0347 50                  973 	.db #0x50	; 80	'P'
   0348 0F                  974 	.db #0x0F	; 15
   0349 0E                  975 	.db #0x0E	; 14
   034A D2                  976 	.db #0xD2	; 210
   034B 50                  977 	.db #0x50	; 80	'P'
   034C 0F                  978 	.db #0x0F	; 15
   034D 0E                  979 	.db #0x0E	; 14
   034E D2                  980 	.db #0xD2	; 210
   034F 50                  981 	.db #0x50	; 80	'P'
   0350 0F                  982 	.db #0x0F	; 15
   0351 0F                  983 	.db #0x0F	; 15
   0352 D2                  984 	.db #0xD2	; 210
   0353 50                  985 	.db #0x50	; 80	'P'
   0354 1F                  986 	.db #0x1F	; 31
   0355 4F                  987 	.db #0x4F	; 79	'O'
   0356 1E                  988 	.db #0x1E	; 30
   0357 50                  989 	.db #0x50	; 80	'P'
   0358 0F                  990 	.db #0x0F	; 15
   0359 0F                  991 	.db #0x0F	; 15
   035A 1E                  992 	.db #0x1E	; 30
   035B 50                  993 	.db #0x50	; 80	'P'
   035C 0F                  994 	.db #0x0F	; 15
   035D 0F                  995 	.db #0x0F	; 15
   035E 1E                  996 	.db #0x1E	; 30
   035F 50                  997 	.db #0x50	; 80	'P'
   0360 0F                  998 	.db #0x0F	; 15
   0361 0F                  999 	.db #0x0F	; 15
   0362 9E                 1000 	.db #0x9E	; 158
   0363 21                 1001 	.db #0x21	; 33
   0364 0F                 1002 	.db #0x0F	; 15
   0365 0F                 1003 	.db #0x0F	; 15
   0366 1E                 1004 	.db #0x1E	; 30
   0367 43                 1005 	.db #0x43	; 67	'C'
   0368 4F                 1006 	.db #0x4F	; 79	'O'
   0369                    1007 _station_medium_ew:
   0369 0F                 1008 	.db #0x0F	; 15
   036A 0F                 1009 	.db #0x0F	; 15
   036B 0F                 1010 	.db #0x0F	; 15
   036C 0F                 1011 	.db #0x0F	; 15
   036D 0F                 1012 	.db #0x0F	; 15
   036E 2F                 1013 	.db #0x2F	; 47
   036F 0F                 1014 	.db #0x0F	; 15
   0370 03                 1015 	.db #0x03	; 3
   0371 0F                 1016 	.db #0x0F	; 15
   0372 0F                 1017 	.db #0x0F	; 15
   0373 0E                 1018 	.db #0x0E	; 14
   0374 67                 1019 	.db #0x67	; 103	'g'
   0375 4F                 1020 	.db #0x4F	; 79	'O'
   0376 00                 1021 	.db #0x00	; 0
   0377 06                 1022 	.db #0x06	; 6
   0378 EF                 1023 	.db #0xEF	; 239
   0379 0F                 1024 	.db #0x0F	; 15
   037A 70                 1025 	.db #0x70	; 112	'p'
   037B C3                 1026 	.db #0xC3	; 195
   037C CF                 1027 	.db #0xCF	; 207
   037D 0F                 1028 	.db #0x0F	; 15
   037E 78                 1029 	.db #0x78	; 120	'x'
   037F C3                 1030 	.db #0xC3	; 195
   0380 0F                 1031 	.db #0x0F	; 15
   0381 0F                 1032 	.db #0x0F	; 15
   0382 0F                 1033 	.db #0x0F	; 15
   0383 0F                 1034 	.db #0x0F	; 15
   0384 0F                 1035 	.db #0x0F	; 15
   0385 F0                 1036 	.db #0xF0	; 240
   0386 F0                 1037 	.db #0xF0	; 240
   0387 F0                 1038 	.db #0xF0	; 240
   0388 F0                 1039 	.db #0xF0	; 240
   0389 00                 1040 	.db #0x00	; 0
   038A 00                 1041 	.db #0x00	; 0
   038B 00                 1042 	.db #0x00	; 0
   038C 00                 1043 	.db #0x00	; 0
   038D B0                 1044 	.db #0xB0	; 176
   038E F0                 1045 	.db #0xF0	; 240
   038F F0                 1046 	.db #0xF0	; 240
   0390 F0                 1047 	.db #0xF0	; 240
   0391 48                 1048 	.db #0x48	; 72	'H'
   0392 00                 1049 	.db #0x00	; 0
   0393 00                 1050 	.db #0x00	; 0
   0394 10                 1051 	.db #0x10	; 16
   0395 3C                 1052 	.db #0x3C	; 60
   0396 F0                 1053 	.db #0xF0	; 240
   0397 F0                 1054 	.db #0xF0	; 240
   0398 F0                 1055 	.db #0xF0	; 240
   0399 0F                 1056 	.db #0x0F	; 15
   039A 4F                 1057 	.db #0x4F	; 79	'O'
   039B 0F                 1058 	.db #0x0F	; 15
   039C 0F                 1059 	.db #0x0F	; 15
   039D 0F                 1060 	.db #0x0F	; 15
   039E 0F                 1061 	.db #0x0F	; 15
   039F 0F                 1062 	.db #0x0F	; 15
   03A0 0F                 1063 	.db #0x0F	; 15
   03A1 2F                 1064 	.db #0x2F	; 47
   03A2 0F                 1065 	.db #0x0F	; 15
   03A3 0F                 1066 	.db #0x0F	; 15
   03A4 4F                 1067 	.db #0x4F	; 79	'O'
   03A5 0F                 1068 	.db #0x0F	; 15
   03A6 0F                 1069 	.db #0x0F	; 15
   03A7 0F                 1070 	.db #0x0F	; 15
   03A8 0F                 1071 	.db #0x0F	; 15
   03A9                    1072 _station_large_ns:
   03A9 0F                 1073 	.db #0x0F	; 15
   03AA 1E                 1074 	.db #0x1E	; 30
   03AB 43                 1075 	.db #0x43	; 67	'C'
   03AC 4F                 1076 	.db #0x4F	; 79	'O'
   03AD 0E                 1077 	.db #0x0E	; 14
   03AE 16                 1078 	.db #0x16	; 22
   03AF 21                 1079 	.db #0x21	; 33
   03B0 0F                 1080 	.db #0x0F	; 15
   03B1 0E                 1081 	.db #0x0E	; 14
   03B2 D2                 1082 	.db #0xD2	; 210
   03B3 50                 1083 	.db #0x50	; 80	'P'
   03B4 0F                 1084 	.db #0x0F	; 15
   03B5 0E                 1085 	.db #0x0E	; 14
   03B6 D2                 1086 	.db #0xD2	; 210
   03B7 40                 1087 	.db #0x40	; 64
   03B8 87                 1088 	.db #0x87	; 135
   03B9 0E                 1089 	.db #0x0E	; 14
   03BA D2                 1090 	.db #0xD2	; 210
   03BB 50                 1091 	.db #0x50	; 80	'P'
   03BC 43                 1092 	.db #0x43	; 67	'C'
   03BD 0C                 1093 	.db #0x0C	; 12
   03BE D2                 1094 	.db #0xD2	; 210
   03BF 50                 1095 	.db #0x50	; 80	'P'
   03C0 21                 1096 	.db #0x21	; 33
   03C1 1C                 1097 	.db #0x1C	; 28
   03C2 D2                 1098 	.db #0xD2	; 210
   03C3 50                 1099 	.db #0x50	; 80	'P'
   03C4 50                 1100 	.db #0x50	; 80	'P'
   03C5 1C                 1101 	.db #0x1C	; 28
   03C6 D2                 1102 	.db #0xD2	; 210
   03C7 50                 1103 	.db #0x50	; 80	'P'
   03C8 50                 1104 	.db #0x50	; 80	'P'
   03C9 1C                 1105 	.db #0x1C	; 28
   03CA D2                 1106 	.db #0xD2	; 210
   03CB 50                 1107 	.db #0x50	; 80	'P'
   03CC 50                 1108 	.db #0x50	; 80	'P'
   03CD 1C                 1109 	.db #0x1C	; 28
   03CE D2                 1110 	.db #0xD2	; 210
   03CF 50                 1111 	.db #0x50	; 80	'P'
   03D0 50                 1112 	.db #0x50	; 80	'P'
   03D1 1C                 1113 	.db #0x1C	; 28
   03D2 D2                 1114 	.db #0xD2	; 210
   03D3 50                 1115 	.db #0x50	; 80	'P'
   03D4 50                 1116 	.db #0x50	; 80	'P'
   03D5 0E                 1117 	.db #0x0E	; 14
   03D6 D2                 1118 	.db #0xD2	; 210
   03D7 50                 1119 	.db #0x50	; 80	'P'
   03D8 50                 1120 	.db #0x50	; 80	'P'
   03D9 0E                 1121 	.db #0x0E	; 14
   03DA D2                 1122 	.db #0xD2	; 210
   03DB 50                 1123 	.db #0x50	; 80	'P'
   03DC 50                 1124 	.db #0x50	; 80	'P'
   03DD 4E                 1125 	.db #0x4E	; 78	'N'
   03DE D2                 1126 	.db #0xD2	; 210
   03DF 50                 1127 	.db #0x50	; 80	'P'
   03E0 50                 1128 	.db #0x50	; 80	'P'
   03E1 0F                 1129 	.db #0x0F	; 15
   03E2 D2                 1130 	.db #0xD2	; 210
   03E3 50                 1131 	.db #0x50	; 80	'P'
   03E4 50                 1132 	.db #0x50	; 80	'P'
   03E5 0F                 1133 	.db #0x0F	; 15
   03E6 1E                 1134 	.db #0x1E	; 30
   03E7 70                 1135 	.db #0x70	; 112	'p'
   03E8 F0                 1136 	.db #0xF0	; 240
   03E9                    1137 _station_large_ew:
   03E9 0F                 1138 	.db #0x0F	; 15
   03EA 0F                 1139 	.db #0x0F	; 15
   03EB 0F                 1140 	.db #0x0F	; 15
   03EC 0F                 1141 	.db #0x0F	; 15
   03ED 0F                 1142 	.db #0x0F	; 15
   03EE 0F                 1143 	.db #0x0F	; 15
   03EF 0F                 1144 	.db #0x0F	; 15
   03F0 0F                 1145 	.db #0x0F	; 15
   03F1 0F                 1146 	.db #0x0F	; 15
   03F2 08                 1147 	.db #0x08	; 8
   03F3 01                 1148 	.db #0x01	; 1
   03F4 0F                 1149 	.db #0x0F	; 15
   03F5 08                 1150 	.db #0x08	; 8
   03F6 30                 1151 	.db #0x30	; 48	'0'
   03F7 E0                 1152 	.db #0xE0	; 224
   03F8 01                 1153 	.db #0x01	; 1
   03F9 38                 1154 	.db #0x38	; 56	'8'
   03FA F0                 1155 	.db #0xF0	; 240
   03FB F0                 1156 	.db #0xF0	; 240
   03FC E1                 1157 	.db #0xE1	; 225
   03FD 3C                 1158 	.db #0x3C	; 60
   03FE F0                 1159 	.db #0xF0	; 240
   03FF F0                 1160 	.db #0xF0	; 240
   0400 E1                 1161 	.db #0xE1	; 225
   0401 0F                 1162 	.db #0x0F	; 15
   0402 0F                 1163 	.db #0x0F	; 15
   0403 0F                 1164 	.db #0x0F	; 15
   0404 0F                 1165 	.db #0x0F	; 15
   0405 F0                 1166 	.db #0xF0	; 240
   0406 F0                 1167 	.db #0xF0	; 240
   0407 F0                 1168 	.db #0xF0	; 240
   0408 F0                 1169 	.db #0xF0	; 240
   0409 00                 1170 	.db #0x00	; 0
   040A 00                 1171 	.db #0x00	; 0
   040B 00                 1172 	.db #0x00	; 0
   040C 00                 1173 	.db #0x00	; 0
   040D F0                 1174 	.db #0xF0	; 240
   040E F0                 1175 	.db #0xF0	; 240
   040F F0                 1176 	.db #0xF0	; 240
   0410 D0                 1177 	.db #0xD0	; 208
   0411 80                 1178 	.db #0x80	; 128
   0412 00                 1179 	.db #0x00	; 0
   0413 00                 1180 	.db #0x00	; 0
   0414 21                 1181 	.db #0x21	; 33
   0415 F0                 1182 	.db #0xF0	; 240
   0416 F0                 1183 	.db #0xF0	; 240
   0417 F0                 1184 	.db #0xF0	; 240
   0418 43                 1185 	.db #0x43	; 67	'C'
   0419 80                 1186 	.db #0x80	; 128
   041A 00                 1187 	.db #0x00	; 0
   041B 00                 1188 	.db #0x00	; 0
   041C 87                 1189 	.db #0x87	; 135
   041D F0                 1190 	.db #0xF0	; 240
   041E F0                 1191 	.db #0xF0	; 240
   041F D0                 1192 	.db #0xD0	; 208
   0420 0F                 1193 	.db #0x0F	; 15
   0421 80                 1194 	.db #0x80	; 128
   0422 00                 1195 	.db #0x00	; 0
   0423 21                 1196 	.db #0x21	; 33
   0424 0F                 1197 	.db #0x0F	; 15
   0425 F0                 1198 	.db #0xF0	; 240
   0426 F0                 1199 	.db #0xF0	; 240
   0427 C3                 1200 	.db #0xC3	; 195
   0428 0F                 1201 	.db #0x0F	; 15
   0429                    1202 _rail_ew:
   0429 0F                 1203 	.db #0x0F	; 15
   042A 0F                 1204 	.db #0x0F	; 15
   042B 0F                 1205 	.db #0x0F	; 15
   042C 0F                 1206 	.db #0x0F	; 15
   042D 2F                 1207 	.db #0x2F	; 47
   042E 0F                 1208 	.db #0x0F	; 15
   042F 2F                 1209 	.db #0x2F	; 47
   0430 2F                 1210 	.db #0x2F	; 47
   0431 0F                 1211 	.db #0x0F	; 15
   0432 0F                 1212 	.db #0x0F	; 15
   0433 0F                 1213 	.db #0x0F	; 15
   0434 0F                 1214 	.db #0x0F	; 15
   0435 0F                 1215 	.db #0x0F	; 15
   0436 0F                 1216 	.db #0x0F	; 15
   0437 0F                 1217 	.db #0x0F	; 15
   0438 0F                 1218 	.db #0x0F	; 15
   0439 0F                 1219 	.db #0x0F	; 15
   043A 2F                 1220 	.db #0x2F	; 47
   043B 0F                 1221 	.db #0x0F	; 15
   043C 0F                 1222 	.db #0x0F	; 15
   043D 4F                 1223 	.db #0x4F	; 79	'O'
   043E 0F                 1224 	.db #0x0F	; 15
   043F 0F                 1225 	.db #0x0F	; 15
   0440 4F                 1226 	.db #0x4F	; 79	'O'
   0441 0F                 1227 	.db #0x0F	; 15
   0442 0F                 1228 	.db #0x0F	; 15
   0443 0F                 1229 	.db #0x0F	; 15
   0444 0F                 1230 	.db #0x0F	; 15
   0445 F0                 1231 	.db #0xF0	; 240
   0446 F0                 1232 	.db #0xF0	; 240
   0447 F0                 1233 	.db #0xF0	; 240
   0448 F0                 1234 	.db #0xF0	; 240
   0449 00                 1235 	.db #0x00	; 0
   044A 00                 1236 	.db #0x00	; 0
   044B 00                 1237 	.db #0x00	; 0
   044C 00                 1238 	.db #0x00	; 0
   044D F0                 1239 	.db #0xF0	; 240
   044E F0                 1240 	.db #0xF0	; 240
   044F F0                 1241 	.db #0xF0	; 240
   0450 F0                 1242 	.db #0xF0	; 240
   0451 0F                 1243 	.db #0x0F	; 15
   0452 0F                 1244 	.db #0x0F	; 15
   0453 0F                 1245 	.db #0x0F	; 15
   0454 0F                 1246 	.db #0x0F	; 15
   0455 0F                 1247 	.db #0x0F	; 15
   0456 0F                 1248 	.db #0x0F	; 15
   0457 8F                 1249 	.db #0x8F	; 143
   0458 0F                 1250 	.db #0x0F	; 15
   0459 0F                 1251 	.db #0x0F	; 15
   045A 8F                 1252 	.db #0x8F	; 143
   045B 0F                 1253 	.db #0x0F	; 15
   045C 4F                 1254 	.db #0x4F	; 79	'O'
   045D 0F                 1255 	.db #0x0F	; 15
   045E 0F                 1256 	.db #0x0F	; 15
   045F 0F                 1257 	.db #0x0F	; 15
   0460 0F                 1258 	.db #0x0F	; 15
   0461 0F                 1259 	.db #0x0F	; 15
   0462 0F                 1260 	.db #0x0F	; 15
   0463 0F                 1261 	.db #0x0F	; 15
   0464 0F                 1262 	.db #0x0F	; 15
   0465 2F                 1263 	.db #0x2F	; 47
   0466 0F                 1264 	.db #0x0F	; 15
   0467 2F                 1265 	.db #0x2F	; 47
   0468 0F                 1266 	.db #0x0F	; 15
   0469                    1267 _rail_ns:
   0469 0F                 1268 	.db #0x0F	; 15
   046A 1E                 1269 	.db #0x1E	; 30
   046B 43                 1270 	.db #0x43	; 67	'C'
   046C 0F                 1271 	.db #0x0F	; 15
   046D 0F                 1272 	.db #0x0F	; 15
   046E 9E                 1273 	.db #0x9E	; 158
   046F 43                 1274 	.db #0x43	; 67	'C'
   0470 8F                 1275 	.db #0x8F	; 143
   0471 0F                 1276 	.db #0x0F	; 15
   0472 1E                 1277 	.db #0x1E	; 30
   0473 43                 1278 	.db #0x43	; 67	'C'
   0474 0F                 1279 	.db #0x0F	; 15
   0475 0F                 1280 	.db #0x0F	; 15
   0476 1E                 1281 	.db #0x1E	; 30
   0477 43                 1282 	.db #0x43	; 67	'C'
   0478 0F                 1283 	.db #0x0F	; 15
   0479 0F                 1284 	.db #0x0F	; 15
   047A 1E                 1285 	.db #0x1E	; 30
   047B 43                 1286 	.db #0x43	; 67	'C'
   047C 0F                 1287 	.db #0x0F	; 15
   047D 0F                 1288 	.db #0x0F	; 15
   047E 1E                 1289 	.db #0x1E	; 30
   047F 43                 1290 	.db #0x43	; 67	'C'
   0480 2F                 1291 	.db #0x2F	; 47
   0481 0F                 1292 	.db #0x0F	; 15
   0482 1E                 1293 	.db #0x1E	; 30
   0483 43                 1294 	.db #0x43	; 67	'C'
   0484 0F                 1295 	.db #0x0F	; 15
   0485 2F                 1296 	.db #0x2F	; 47
   0486 1E                 1297 	.db #0x1E	; 30
   0487 43                 1298 	.db #0x43	; 67	'C'
   0488 0F                 1299 	.db #0x0F	; 15
   0489 0F                 1300 	.db #0x0F	; 15
   048A 1E                 1301 	.db #0x1E	; 30
   048B 43                 1302 	.db #0x43	; 67	'C'
   048C 0F                 1303 	.db #0x0F	; 15
   048D 0F                 1304 	.db #0x0F	; 15
   048E 1E                 1305 	.db #0x1E	; 30
   048F 43                 1306 	.db #0x43	; 67	'C'
   0490 0F                 1307 	.db #0x0F	; 15
   0491 0F                 1308 	.db #0x0F	; 15
   0492 1E                 1309 	.db #0x1E	; 30
   0493 43                 1310 	.db #0x43	; 67	'C'
   0494 0F                 1311 	.db #0x0F	; 15
   0495 0F                 1312 	.db #0x0F	; 15
   0496 1E                 1313 	.db #0x1E	; 30
   0497 53                 1314 	.db #0x53	; 83	'S'
   0498 0F                 1315 	.db #0x0F	; 15
   0499 0F                 1316 	.db #0x0F	; 15
   049A 9E                 1317 	.db #0x9E	; 158
   049B 43                 1318 	.db #0x43	; 67	'C'
   049C 0F                 1319 	.db #0x0F	; 15
   049D 4F                 1320 	.db #0x4F	; 79	'O'
   049E 1E                 1321 	.db #0x1E	; 30
   049F 43                 1322 	.db #0x43	; 67	'C'
   04A0 0F                 1323 	.db #0x0F	; 15
   04A1 0F                 1324 	.db #0x0F	; 15
   04A2 1E                 1325 	.db #0x1E	; 30
   04A3 43                 1326 	.db #0x43	; 67	'C'
   04A4 4F                 1327 	.db #0x4F	; 79	'O'
   04A5 0F                 1328 	.db #0x0F	; 15
   04A6 1E                 1329 	.db #0x1E	; 30
   04A7 43                 1330 	.db #0x43	; 67	'C'
   04A8 0F                 1331 	.db #0x0F	; 15
   04A9                    1332 _rail_en:
   04A9 0F                 1333 	.db #0x0F	; 15
   04AA 1E                 1334 	.db #0x1E	; 30
   04AB 43                 1335 	.db #0x43	; 67	'C'
   04AC 0F                 1336 	.db #0x0F	; 15
   04AD 2F                 1337 	.db #0x2F	; 47
   04AE 1E                 1338 	.db #0x1E	; 30
   04AF 43                 1339 	.db #0x43	; 67	'C'
   04B0 8F                 1340 	.db #0x8F	; 143
   04B1 0F                 1341 	.db #0x0F	; 15
   04B2 0F                 1342 	.db #0x0F	; 15
   04B3 A1                 1343 	.db #0xA1	; 161
   04B4 0F                 1344 	.db #0x0F	; 15
   04B5 0F                 1345 	.db #0x0F	; 15
   04B6 0F                 1346 	.db #0x0F	; 15
   04B7 58                 1347 	.db #0x58	; 88	'X'
   04B8 0F                 1348 	.db #0x0F	; 15
   04B9 0F                 1349 	.db #0x0F	; 15
   04BA 4F                 1350 	.db #0x4F	; 79	'O'
   04BB 2C                 1351 	.db #0x2C	; 44
   04BC 87                 1352 	.db #0x87	; 135
   04BD 0F                 1353 	.db #0x0F	; 15
   04BE 0F                 1354 	.db #0x0F	; 15
   04BF 1E                 1355 	.db #0x1E	; 30
   04C0 43                 1356 	.db #0x43	; 67	'C'
   04C1 0F                 1357 	.db #0x0F	; 15
   04C2 0F                 1358 	.db #0x0F	; 15
   04C3 8F                 1359 	.db #0x8F	; 143
   04C4 A1                 1360 	.db #0xA1	; 161
   04C5 0F                 1361 	.db #0x0F	; 15
   04C6 0F                 1362 	.db #0x0F	; 15
   04C7 0F                 1363 	.db #0x0F	; 15
   04C8 58                 1364 	.db #0x58	; 88	'X'
   04C9 2F                 1365 	.db #0x2F	; 47
   04CA 0F                 1366 	.db #0x0F	; 15
   04CB 0F                 1367 	.db #0x0F	; 15
   04CC 2C                 1368 	.db #0x2C	; 44
   04CD 0F                 1369 	.db #0x0F	; 15
   04CE 0F                 1370 	.db #0x0F	; 15
   04CF 0F                 1371 	.db #0x0F	; 15
   04D0 1E                 1372 	.db #0x1E	; 30
   04D1 0F                 1373 	.db #0x0F	; 15
   04D2 0F                 1374 	.db #0x0F	; 15
   04D3 0F                 1375 	.db #0x0F	; 15
   04D4 4F                 1376 	.db #0x4F	; 79	'O'
   04D5 0F                 1377 	.db #0x0F	; 15
   04D6 0F                 1378 	.db #0x0F	; 15
   04D7 0F                 1379 	.db #0x0F	; 15
   04D8 0F                 1380 	.db #0x0F	; 15
   04D9 2F                 1381 	.db #0x2F	; 47
   04DA 4F                 1382 	.db #0x4F	; 79	'O'
   04DB 2F                 1383 	.db #0x2F	; 47
   04DC 0F                 1384 	.db #0x0F	; 15
   04DD 0F                 1385 	.db #0x0F	; 15
   04DE 0F                 1386 	.db #0x0F	; 15
   04DF 0F                 1387 	.db #0x0F	; 15
   04E0 0F                 1388 	.db #0x0F	; 15
   04E1 0F                 1389 	.db #0x0F	; 15
   04E2 0F                 1390 	.db #0x0F	; 15
   04E3 0F                 1391 	.db #0x0F	; 15
   04E4 2F                 1392 	.db #0x2F	; 47
   04E5 0F                 1393 	.db #0x0F	; 15
   04E6 0F                 1394 	.db #0x0F	; 15
   04E7 0F                 1395 	.db #0x0F	; 15
   04E8 0F                 1396 	.db #0x0F	; 15
   04E9                    1397 _rail_es:
   04E9 0F                 1398 	.db #0x0F	; 15
   04EA 0F                 1399 	.db #0x0F	; 15
   04EB 0F                 1400 	.db #0x0F	; 15
   04EC 0F                 1401 	.db #0x0F	; 15
   04ED 0F                 1402 	.db #0x0F	; 15
   04EE 0F                 1403 	.db #0x0F	; 15
   04EF 0F                 1404 	.db #0x0F	; 15
   04F0 2F                 1405 	.db #0x2F	; 47
   04F1 0F                 1406 	.db #0x0F	; 15
   04F2 2F                 1407 	.db #0x2F	; 47
   04F3 0F                 1408 	.db #0x0F	; 15
   04F4 0F                 1409 	.db #0x0F	; 15
   04F5 1F                 1410 	.db #0x1F	; 31
   04F6 0F                 1411 	.db #0x0F	; 15
   04F7 0F                 1412 	.db #0x0F	; 15
   04F8 0F                 1413 	.db #0x0F	; 15
   04F9 0F                 1414 	.db #0x0F	; 15
   04FA 0F                 1415 	.db #0x0F	; 15
   04FB 0F                 1416 	.db #0x0F	; 15
   04FC 0F                 1417 	.db #0x0F	; 15
   04FD 0F                 1418 	.db #0x0F	; 15
   04FE 0F                 1419 	.db #0x0F	; 15
   04FF 1F                 1420 	.db #0x1F	; 31
   0500 0F                 1421 	.db #0x0F	; 15
   0501 0F                 1422 	.db #0x0F	; 15
   0502 0F                 1423 	.db #0x0F	; 15
   0503 0F                 1424 	.db #0x0F	; 15
   0504 0F                 1425 	.db #0x0F	; 15
   0505 4F                 1426 	.db #0x4F	; 79	'O'
   0506 0F                 1427 	.db #0x0F	; 15
   0507 0F                 1428 	.db #0x0F	; 15
   0508 3C                 1429 	.db #0x3C	; 60
   0509 0F                 1430 	.db #0x0F	; 15
   050A 4F                 1431 	.db #0x4F	; 79	'O'
   050B 0F                 1432 	.db #0x0F	; 15
   050C 48                 1433 	.db #0x48	; 72	'H'
   050D 0F                 1434 	.db #0x0F	; 15
   050E 0F                 1435 	.db #0x0F	; 15
   050F 4F                 1436 	.db #0x4F	; 79	'O'
   0510 B0                 1437 	.db #0xB0	; 176
   0511 0F                 1438 	.db #0x0F	; 15
   0512 0F                 1439 	.db #0x0F	; 15
   0513 1E                 1440 	.db #0x1E	; 30
   0514 43                 1441 	.db #0x43	; 67	'C'
   0515 0F                 1442 	.db #0x0F	; 15
   0516 0F                 1443 	.db #0x0F	; 15
   0517 2C                 1444 	.db #0x2C	; 44
   0518 87                 1445 	.db #0x87	; 135
   0519 0F                 1446 	.db #0x0F	; 15
   051A 0F                 1447 	.db #0x0F	; 15
   051B 58                 1448 	.db #0x58	; 88	'X'
   051C 0F                 1449 	.db #0x0F	; 15
   051D 0F                 1450 	.db #0x0F	; 15
   051E 8F                 1451 	.db #0x8F	; 143
   051F A1                 1452 	.db #0xA1	; 161
   0520 0F                 1453 	.db #0x0F	; 15
   0521 0F                 1454 	.db #0x0F	; 15
   0522 1E                 1455 	.db #0x1E	; 30
   0523 43                 1456 	.db #0x43	; 67	'C'
   0524 8F                 1457 	.db #0x8F	; 143
   0525 0F                 1458 	.db #0x0F	; 15
   0526 1E                 1459 	.db #0x1E	; 30
   0527 43                 1460 	.db #0x43	; 67	'C'
   0528 0F                 1461 	.db #0x0F	; 15
   0529                    1462 _rail_wn:
   0529 0F                 1463 	.db #0x0F	; 15
   052A 1E                 1464 	.db #0x1E	; 30
   052B 43                 1465 	.db #0x43	; 67	'C'
   052C 0F                 1466 	.db #0x0F	; 15
   052D 0F                 1467 	.db #0x0F	; 15
   052E 1E                 1468 	.db #0x1E	; 30
   052F 53                 1469 	.db #0x53	; 83	'S'
   0530 0F                 1470 	.db #0x0F	; 15
   0531 0F                 1471 	.db #0x0F	; 15
   0532 2C                 1472 	.db #0x2C	; 44
   0533 87                 1473 	.db #0x87	; 135
   0534 0F                 1474 	.db #0x0F	; 15
   0535 2F                 1475 	.db #0x2F	; 47
   0536 58                 1476 	.db #0x58	; 88	'X'
   0537 0F                 1477 	.db #0x0F	; 15
   0538 0F                 1478 	.db #0x0F	; 15
   0539 0F                 1479 	.db #0x0F	; 15
   053A A1                 1480 	.db #0xA1	; 161
   053B 0F                 1481 	.db #0x0F	; 15
   053C 0F                 1482 	.db #0x0F	; 15
   053D 1E                 1483 	.db #0x1E	; 30
   053E 43                 1484 	.db #0x43	; 67	'C'
   053F 0F                 1485 	.db #0x0F	; 15
   0540 8F                 1486 	.db #0x8F	; 143
   0541 2C                 1487 	.db #0x2C	; 44
   0542 87                 1488 	.db #0x87	; 135
   0543 0F                 1489 	.db #0x0F	; 15
   0544 0F                 1490 	.db #0x0F	; 15
   0545 D0                 1491 	.db #0xD0	; 208
   0546 1F                 1492 	.db #0x1F	; 31
   0547 0F                 1493 	.db #0x0F	; 15
   0548 0F                 1494 	.db #0x0F	; 15
   0549 21                 1495 	.db #0x21	; 33
   054A 0F                 1496 	.db #0x0F	; 15
   054B 0F                 1497 	.db #0x0F	; 15
   054C 0F                 1498 	.db #0x0F	; 15
   054D C3                 1499 	.db #0xC3	; 195
   054E 0F                 1500 	.db #0x0F	; 15
   054F 0F                 1501 	.db #0x0F	; 15
   0550 0F                 1502 	.db #0x0F	; 15
   0551 0F                 1503 	.db #0x0F	; 15
   0552 0F                 1504 	.db #0x0F	; 15
   0553 0F                 1505 	.db #0x0F	; 15
   0554 0F                 1506 	.db #0x0F	; 15
   0555 1F                 1507 	.db #0x1F	; 31
   0556 0F                 1508 	.db #0x0F	; 15
   0557 4F                 1509 	.db #0x4F	; 79	'O'
   0558 4F                 1510 	.db #0x4F	; 79	'O'
   0559 0F                 1511 	.db #0x0F	; 15
   055A 0F                 1512 	.db #0x0F	; 15
   055B 0F                 1513 	.db #0x0F	; 15
   055C 0F                 1514 	.db #0x0F	; 15
   055D 0F                 1515 	.db #0x0F	; 15
   055E 1F                 1516 	.db #0x1F	; 31
   055F 0F                 1517 	.db #0x0F	; 15
   0560 0F                 1518 	.db #0x0F	; 15
   0561 2F                 1519 	.db #0x2F	; 47
   0562 0F                 1520 	.db #0x0F	; 15
   0563 0F                 1521 	.db #0x0F	; 15
   0564 0F                 1522 	.db #0x0F	; 15
   0565 0F                 1523 	.db #0x0F	; 15
   0566 0F                 1524 	.db #0x0F	; 15
   0567 0F                 1525 	.db #0x0F	; 15
   0568 0F                 1526 	.db #0x0F	; 15
   0569                    1527 _rail_ws:
   0569 0F                 1528 	.db #0x0F	; 15
   056A 0F                 1529 	.db #0x0F	; 15
   056B 0F                 1530 	.db #0x0F	; 15
   056C 0F                 1531 	.db #0x0F	; 15
   056D 0F                 1532 	.db #0x0F	; 15
   056E 0F                 1533 	.db #0x0F	; 15
   056F 0F                 1534 	.db #0x0F	; 15
   0570 0F                 1535 	.db #0x0F	; 15
   0571 2F                 1536 	.db #0x2F	; 47
   0572 0F                 1537 	.db #0x0F	; 15
   0573 4F                 1538 	.db #0x4F	; 79	'O'
   0574 2F                 1539 	.db #0x2F	; 47
   0575 0F                 1540 	.db #0x0F	; 15
   0576 0F                 1541 	.db #0x0F	; 15
   0577 0F                 1542 	.db #0x0F	; 15
   0578 0F                 1543 	.db #0x0F	; 15
   0579 0F                 1544 	.db #0x0F	; 15
   057A 0F                 1545 	.db #0x0F	; 15
   057B 0F                 1546 	.db #0x0F	; 15
   057C 0F                 1547 	.db #0x0F	; 15
   057D 0F                 1548 	.db #0x0F	; 15
   057E 0F                 1549 	.db #0x0F	; 15
   057F 0F                 1550 	.db #0x0F	; 15
   0580 0F                 1551 	.db #0x0F	; 15
   0581 0F                 1552 	.db #0x0F	; 15
   0582 2F                 1553 	.db #0x2F	; 47
   0583 0F                 1554 	.db #0x0F	; 15
   0584 0F                 1555 	.db #0x0F	; 15
   0585 C3                 1556 	.db #0xC3	; 195
   0586 0F                 1557 	.db #0x0F	; 15
   0587 0F                 1558 	.db #0x0F	; 15
   0588 0F                 1559 	.db #0x0F	; 15
   0589 21                 1560 	.db #0x21	; 33
   058A 0F                 1561 	.db #0x0F	; 15
   058B 2F                 1562 	.db #0x2F	; 47
   058C 0F                 1563 	.db #0x0F	; 15
   058D D0                 1564 	.db #0xD0	; 208
   058E 0F                 1565 	.db #0x0F	; 15
   058F 0F                 1566 	.db #0x0F	; 15
   0590 0F                 1567 	.db #0x0F	; 15
   0591 2C                 1568 	.db #0x2C	; 44
   0592 87                 1569 	.db #0x87	; 135
   0593 0F                 1570 	.db #0x0F	; 15
   0594 0F                 1571 	.db #0x0F	; 15
   0595 1E                 1572 	.db #0x1E	; 30
   0596 43                 1573 	.db #0x43	; 67	'C'
   0597 0F                 1574 	.db #0x0F	; 15
   0598 2F                 1575 	.db #0x2F	; 47
   0599 4F                 1576 	.db #0x4F	; 79	'O'
   059A A1                 1577 	.db #0xA1	; 161
   059B 0F                 1578 	.db #0x0F	; 15
   059C 0F                 1579 	.db #0x0F	; 15
   059D 0F                 1580 	.db #0x0F	; 15
   059E 58                 1581 	.db #0x58	; 88	'X'
   059F 4F                 1582 	.db #0x4F	; 79	'O'
   05A0 0F                 1583 	.db #0x0F	; 15
   05A1 0F                 1584 	.db #0x0F	; 15
   05A2 2C                 1585 	.db #0x2C	; 44
   05A3 87                 1586 	.db #0x87	; 135
   05A4 4F                 1587 	.db #0x4F	; 79	'O'
   05A5 0F                 1588 	.db #0x0F	; 15
   05A6 1E                 1589 	.db #0x1E	; 30
   05A7 43                 1590 	.db #0x43	; 67	'C'
   05A8 0F                 1591 	.db #0x0F	; 15
   05A9                    1592 _rail_ew_n:
   05A9 0F                 1593 	.db #0x0F	; 15
   05AA 1E                 1594 	.db #0x1E	; 30
   05AB 43                 1595 	.db #0x43	; 67	'C'
   05AC 0F                 1596 	.db #0x0F	; 15
   05AD 0F                 1597 	.db #0x0F	; 15
   05AE 9E                 1598 	.db #0x9E	; 158
   05AF 43                 1599 	.db #0x43	; 67	'C'
   05B0 0F                 1600 	.db #0x0F	; 15
   05B1 0F                 1601 	.db #0x0F	; 15
   05B2 1E                 1602 	.db #0x1E	; 30
   05B3 53                 1603 	.db #0x53	; 83	'S'
   05B4 0F                 1604 	.db #0x0F	; 15
   05B5 0F                 1605 	.db #0x0F	; 15
   05B6 2C                 1606 	.db #0x2C	; 44
   05B7 87                 1607 	.db #0x87	; 135
   05B8 0F                 1608 	.db #0x0F	; 15
   05B9 4F                 1609 	.db #0x4F	; 79	'O'
   05BA 58                 1610 	.db #0x58	; 88	'X'
   05BB 0F                 1611 	.db #0x0F	; 15
   05BC 0F                 1612 	.db #0x0F	; 15
   05BD 0F                 1613 	.db #0x0F	; 15
   05BE A1                 1614 	.db #0xA1	; 161
   05BF 0F                 1615 	.db #0x0F	; 15
   05C0 8F                 1616 	.db #0x8F	; 143
   05C1 1E                 1617 	.db #0x1E	; 30
   05C2 43                 1618 	.db #0x43	; 67	'C'
   05C3 0F                 1619 	.db #0x0F	; 15
   05C4 0F                 1620 	.db #0x0F	; 15
   05C5 E0                 1621 	.db #0xE0	; 224
   05C6 F0                 1622 	.db #0xF0	; 240
   05C7 F0                 1623 	.db #0xF0	; 240
   05C8 F0                 1624 	.db #0xF0	; 240
   05C9 00                 1625 	.db #0x00	; 0
   05CA 00                 1626 	.db #0x00	; 0
   05CB 00                 1627 	.db #0x00	; 0
   05CC 00                 1628 	.db #0x00	; 0
   05CD F0                 1629 	.db #0xF0	; 240
   05CE F0                 1630 	.db #0xF0	; 240
   05CF F0                 1631 	.db #0xF0	; 240
   05D0 F0                 1632 	.db #0xF0	; 240
   05D1 0F                 1633 	.db #0x0F	; 15
   05D2 0F                 1634 	.db #0x0F	; 15
   05D3 0F                 1635 	.db #0x0F	; 15
   05D4 0F                 1636 	.db #0x0F	; 15
   05D5 2F                 1637 	.db #0x2F	; 47
   05D6 1F                 1638 	.db #0x1F	; 31
   05D7 0F                 1639 	.db #0x0F	; 15
   05D8 4F                 1640 	.db #0x4F	; 79	'O'
   05D9 0F                 1641 	.db #0x0F	; 15
   05DA 0F                 1642 	.db #0x0F	; 15
   05DB 0F                 1643 	.db #0x0F	; 15
   05DC 0F                 1644 	.db #0x0F	; 15
   05DD 0F                 1645 	.db #0x0F	; 15
   05DE 0F                 1646 	.db #0x0F	; 15
   05DF 0F                 1647 	.db #0x0F	; 15
   05E0 0F                 1648 	.db #0x0F	; 15
   05E1 0F                 1649 	.db #0x0F	; 15
   05E2 8F                 1650 	.db #0x8F	; 143
   05E3 4F                 1651 	.db #0x4F	; 79	'O'
   05E4 0F                 1652 	.db #0x0F	; 15
   05E5 0F                 1653 	.db #0x0F	; 15
   05E6 0F                 1654 	.db #0x0F	; 15
   05E7 0F                 1655 	.db #0x0F	; 15
   05E8 0F                 1656 	.db #0x0F	; 15
   05E9                    1657 _rail_ew_s:
   05E9 0F                 1658 	.db #0x0F	; 15
   05EA 0F                 1659 	.db #0x0F	; 15
   05EB 0F                 1660 	.db #0x0F	; 15
   05EC 0F                 1661 	.db #0x0F	; 15
   05ED 0F                 1662 	.db #0x0F	; 15
   05EE 0F                 1663 	.db #0x0F	; 15
   05EF 0F                 1664 	.db #0x0F	; 15
   05F0 8F                 1665 	.db #0x8F	; 143
   05F1 0F                 1666 	.db #0x0F	; 15
   05F2 4F                 1667 	.db #0x4F	; 79	'O'
   05F3 0F                 1668 	.db #0x0F	; 15
   05F4 0F                 1669 	.db #0x0F	; 15
   05F5 0F                 1670 	.db #0x0F	; 15
   05F6 0F                 1671 	.db #0x0F	; 15
   05F7 0F                 1672 	.db #0x0F	; 15
   05F8 0F                 1673 	.db #0x0F	; 15
   05F9 0F                 1674 	.db #0x0F	; 15
   05FA 0F                 1675 	.db #0x0F	; 15
   05FB 4F                 1676 	.db #0x4F	; 79	'O'
   05FC 0F                 1677 	.db #0x0F	; 15
   05FD 4F                 1678 	.db #0x4F	; 79	'O'
   05FE 0F                 1679 	.db #0x0F	; 15
   05FF 0F                 1680 	.db #0x0F	; 15
   0600 2F                 1681 	.db #0x2F	; 47
   0601 0F                 1682 	.db #0x0F	; 15
   0602 0F                 1683 	.db #0x0F	; 15
   0603 0F                 1684 	.db #0x0F	; 15
   0604 0F                 1685 	.db #0x0F	; 15
   0605 F0                 1686 	.db #0xF0	; 240
   0606 F0                 1687 	.db #0xF0	; 240
   0607 F0                 1688 	.db #0xF0	; 240
   0608 F0                 1689 	.db #0xF0	; 240
   0609 00                 1690 	.db #0x00	; 0
   060A 00                 1691 	.db #0x00	; 0
   060B 00                 1692 	.db #0x00	; 0
   060C 00                 1693 	.db #0x00	; 0
   060D E0                 1694 	.db #0xE0	; 224
   060E F0                 1695 	.db #0xF0	; 240
   060F F0                 1696 	.db #0xF0	; 240
   0610 F0                 1697 	.db #0xF0	; 240
   0611 1E                 1698 	.db #0x1E	; 30
   0612 43                 1699 	.db #0x43	; 67	'C'
   0613 0F                 1700 	.db #0x0F	; 15
   0614 0F                 1701 	.db #0x0F	; 15
   0615 0F                 1702 	.db #0x0F	; 15
   0616 A1                 1703 	.db #0xA1	; 161
   0617 4F                 1704 	.db #0x4F	; 79	'O'
   0618 0F                 1705 	.db #0x0F	; 15
   0619 0F                 1706 	.db #0x0F	; 15
   061A 58                 1707 	.db #0x58	; 88	'X'
   061B 0F                 1708 	.db #0x0F	; 15
   061C 0F                 1709 	.db #0x0F	; 15
   061D 0F                 1710 	.db #0x0F	; 15
   061E 2C                 1711 	.db #0x2C	; 44
   061F 87                 1712 	.db #0x87	; 135
   0620 8F                 1713 	.db #0x8F	; 143
   0621 4F                 1714 	.db #0x4F	; 79	'O'
   0622 1E                 1715 	.db #0x1E	; 30
   0623 43                 1716 	.db #0x43	; 67	'C'
   0624 0F                 1717 	.db #0x0F	; 15
   0625 0F                 1718 	.db #0x0F	; 15
   0626 1E                 1719 	.db #0x1E	; 30
   0627 43                 1720 	.db #0x43	; 67	'C'
   0628 0F                 1721 	.db #0x0F	; 15
   0629                    1722 _rail_ns_w:
   0629 0F                 1723 	.db #0x0F	; 15
   062A 1E                 1724 	.db #0x1E	; 30
   062B 43                 1725 	.db #0x43	; 67	'C'
   062C 0F                 1726 	.db #0x0F	; 15
   062D 4F                 1727 	.db #0x4F	; 79	'O'
   062E 1E                 1728 	.db #0x1E	; 30
   062F 43                 1729 	.db #0x43	; 67	'C'
   0630 2F                 1730 	.db #0x2F	; 47
   0631 0F                 1731 	.db #0x0F	; 15
   0632 1E                 1732 	.db #0x1E	; 30
   0633 43                 1733 	.db #0x43	; 67	'C'
   0634 0F                 1734 	.db #0x0F	; 15
   0635 0F                 1735 	.db #0x0F	; 15
   0636 1E                 1736 	.db #0x1E	; 30
   0637 43                 1737 	.db #0x43	; 67	'C'
   0638 0F                 1738 	.db #0x0F	; 15
   0639 0F                 1739 	.db #0x0F	; 15
   063A 5E                 1740 	.db #0x5E	; 94
   063B 43                 1741 	.db #0x43	; 67	'C'
   063C 0F                 1742 	.db #0x0F	; 15
   063D 0F                 1743 	.db #0x0F	; 15
   063E 1E                 1744 	.db #0x1E	; 30
   063F 43                 1745 	.db #0x43	; 67	'C'
   0640 0F                 1746 	.db #0x0F	; 15
   0641 0F                 1747 	.db #0x0F	; 15
   0642 1E                 1748 	.db #0x1E	; 30
   0643 43                 1749 	.db #0x43	; 67	'C'
   0644 0F                 1750 	.db #0x0F	; 15
   0645 E1                 1751 	.db #0xE1	; 225
   0646 1E                 1752 	.db #0x1E	; 30
   0647 43                 1753 	.db #0x43	; 67	'C'
   0648 4F                 1754 	.db #0x4F	; 79	'O'
   0649 10                 1755 	.db #0x10	; 16
   064A 1E                 1756 	.db #0x1E	; 30
   064B 43                 1757 	.db #0x43	; 67	'C'
   064C 0F                 1758 	.db #0x0F	; 15
   064D E0                 1759 	.db #0xE0	; 224
   064E 96                 1760 	.db #0x96	; 150
   064F 43                 1761 	.db #0x43	; 67	'C'
   0650 0F                 1762 	.db #0x0F	; 15
   0651 1E                 1763 	.db #0x1E	; 30
   0652 52                 1764 	.db #0x52	; 82	'R'
   0653 43                 1765 	.db #0x43	; 67	'C'
   0654 0F                 1766 	.db #0x0F	; 15
   0655 0F                 1767 	.db #0x0F	; 15
   0656 B0                 1768 	.db #0xB0	; 176
   0657 53                 1769 	.db #0x53	; 83	'S'
   0658 0F                 1770 	.db #0x0F	; 15
   0659 0F                 1771 	.db #0x0F	; 15
   065A 58                 1772 	.db #0x58	; 88	'X'
   065B 43                 1773 	.db #0x43	; 67	'C'
   065C 0F                 1774 	.db #0x0F	; 15
   065D 2F                 1775 	.db #0x2F	; 47
   065E 2C                 1776 	.db #0x2C	; 44
   065F 43                 1777 	.db #0x43	; 67	'C'
   0660 0F                 1778 	.db #0x0F	; 15
   0661 0F                 1779 	.db #0x0F	; 15
   0662 1E                 1780 	.db #0x1E	; 30
   0663 43                 1781 	.db #0x43	; 67	'C'
   0664 2F                 1782 	.db #0x2F	; 47
   0665 0F                 1783 	.db #0x0F	; 15
   0666 1E                 1784 	.db #0x1E	; 30
   0667 43                 1785 	.db #0x43	; 67	'C'
   0668 0F                 1786 	.db #0x0F	; 15
   0669                    1787 _rail_ns_e:
   0669 0F                 1788 	.db #0x0F	; 15
   066A 1E                 1789 	.db #0x1E	; 30
   066B 43                 1790 	.db #0x43	; 67	'C'
   066C 0F                 1791 	.db #0x0F	; 15
   066D 0F                 1792 	.db #0x0F	; 15
   066E 1E                 1793 	.db #0x1E	; 30
   066F 43                 1794 	.db #0x43	; 67	'C'
   0670 2F                 1795 	.db #0x2F	; 47
   0671 0F                 1796 	.db #0x0F	; 15
   0672 9E                 1797 	.db #0x9E	; 158
   0673 43                 1798 	.db #0x43	; 67	'C'
   0674 0F                 1799 	.db #0x0F	; 15
   0675 0F                 1800 	.db #0x0F	; 15
   0676 1E                 1801 	.db #0x1E	; 30
   0677 43                 1802 	.db #0x43	; 67	'C'
   0678 0F                 1803 	.db #0x0F	; 15
   0679 0F                 1804 	.db #0x0F	; 15
   067A 1E                 1805 	.db #0x1E	; 30
   067B 43                 1806 	.db #0x43	; 67	'C'
   067C 8F                 1807 	.db #0x8F	; 143
   067D 0F                 1808 	.db #0x0F	; 15
   067E 1E                 1809 	.db #0x1E	; 30
   067F 43                 1810 	.db #0x43	; 67	'C'
   0680 0F                 1811 	.db #0x0F	; 15
   0681 0F                 1812 	.db #0x0F	; 15
   0682 5E                 1813 	.db #0x5E	; 94
   0683 43                 1814 	.db #0x43	; 67	'C'
   0684 0F                 1815 	.db #0x0F	; 15
   0685 4F                 1816 	.db #0x4F	; 79	'O'
   0686 1E                 1817 	.db #0x1E	; 30
   0687 43                 1818 	.db #0x43	; 67	'C'
   0688 3C                 1819 	.db #0x3C	; 60
   0689 0F                 1820 	.db #0x0F	; 15
   068A 1E                 1821 	.db #0x1E	; 30
   068B 43                 1822 	.db #0x43	; 67	'C'
   068C 48                 1823 	.db #0x48	; 72	'H'
   068D 0F                 1824 	.db #0x0F	; 15
   068E 1E                 1825 	.db #0x1E	; 30
   068F 43                 1826 	.db #0x43	; 67	'C'
   0690 B0                 1827 	.db #0xB0	; 176
   0691 0F                 1828 	.db #0x0F	; 15
   0692 1E                 1829 	.db #0x1E	; 30
   0693 52                 1830 	.db #0x52	; 82	'R'
   0694 43                 1831 	.db #0x43	; 67	'C'
   0695 0F                 1832 	.db #0x0F	; 15
   0696 5E                 1833 	.db #0x5E	; 94
   0697 60                 1834 	.db #0x60	; 96
   0698 87                 1835 	.db #0x87	; 135
   0699 0F                 1836 	.db #0x0F	; 15
   069A 1E                 1837 	.db #0x1E	; 30
   069B 50                 1838 	.db #0x50	; 80	'P'
   069C 0F                 1839 	.db #0x0F	; 15
   069D 0F                 1840 	.db #0x0F	; 15
   069E 1E                 1841 	.db #0x1E	; 30
   069F 21                 1842 	.db #0x21	; 33
   06A0 0F                 1843 	.db #0x0F	; 15
   06A1 2F                 1844 	.db #0x2F	; 47
   06A2 1E                 1845 	.db #0x1E	; 30
   06A3 43                 1846 	.db #0x43	; 67	'C'
   06A4 8F                 1847 	.db #0x8F	; 143
   06A5 0F                 1848 	.db #0x0F	; 15
   06A6 1E                 1849 	.db #0x1E	; 30
   06A7 43                 1850 	.db #0x43	; 67	'C'
   06A8 0F                 1851 	.db #0x0F	; 15
                           1852 ;src/includes/gui.h:8: void putM1(void)
                           1853 ;	---------------------------------
                           1854 ; Function putM1
                           1855 ; ---------------------------------
   06A9                    1856 _putM1::
                           1857 ;src/includes/gui.h:10: cpct_setVideoMode(1);
   06A9 3E 01         [ 7] 1858 	ld	a,#0x01
   06AB F5            [11] 1859 	push	af
   06AC 33            [ 6] 1860 	inc	sp
   06AD CDr00r00      [17] 1861 	call	_cpct_setVideoMode
   06B0 33            [ 6] 1862 	inc	sp
                           1863 ;src/includes/gui.h:12: cpct_setPalette(paletteMenusM1, 4);
   06B1 21r23r00      [10] 1864 	ld	hl,#_paletteMenusM1
   06B4 01 04 00      [10] 1865 	ld	bc,#0x0004
   06B7 C5            [11] 1866 	push	bc
   06B8 E5            [11] 1867 	push	hl
   06B9 CDr00r00      [17] 1868 	call	_cpct_setPalette
   06BC C9            [10] 1869 	ret
                           1870 ;src/includes/gui.h:15: void putM2(void)
                           1871 ;	---------------------------------
                           1872 ; Function putM2
                           1873 ; ---------------------------------
   06BD                    1874 _putM2::
                           1875 ;src/includes/gui.h:17: cpct_setVideoMode(2);
   06BD 3E 02         [ 7] 1876 	ld	a,#0x02
   06BF F5            [11] 1877 	push	af
   06C0 33            [ 6] 1878 	inc	sp
   06C1 CDr00r00      [17] 1879 	call	_cpct_setVideoMode
   06C4 33            [ 6] 1880 	inc	sp
                           1881 ;src/includes/gui.h:19: cpct_setPalette(paletteMenusM2, 2);
   06C5 21r27r00      [10] 1882 	ld	hl,#_paletteMenusM2
   06C8 01 02 00      [10] 1883 	ld	bc,#0x0002
   06CB C5            [11] 1884 	push	bc
   06CC E5            [11] 1885 	push	hl
   06CD CDr00r00      [17] 1886 	call	_cpct_setPalette
                           1887 ;src/includes/gui.h:20: cpct_clearScreen(0b11111111);
   06D0 21 00 40      [10] 1888 	ld	hl,#0x4000
   06D3 E5            [11] 1889 	push	hl
   06D4 3E FF         [ 7] 1890 	ld	a,#0xFF
   06D6 F5            [11] 1891 	push	af
   06D7 33            [ 6] 1892 	inc	sp
   06D8 26 C0         [ 7] 1893 	ld	h, #0xC0
   06DA E5            [11] 1894 	push	hl
   06DB CDr00r00      [17] 1895 	call	_cpct_memset
   06DE C9            [10] 1896 	ret
                           1897 ;src/includes/gui.h:23: void drawBoxM0(int width_, int height_)
                           1898 ;	---------------------------------
                           1899 ; Function drawBoxM0
                           1900 ; ---------------------------------
   06DF                    1901 _drawBoxM0::
   06DF DD E5         [15] 1902 	push	ix
   06E1 DD 21 00 00   [14] 1903 	ld	ix,#0
   06E5 DD 39         [15] 1904 	add	ix,sp
   06E7 21 F9 FF      [10] 1905 	ld	hl,#-7
   06EA 39            [11] 1906 	add	hl,sp
   06EB F9            [ 6] 1907 	ld	sp,hl
                           1908 ;src/includes/gui.h:28: int left = (80-width_)/2;
   06EC 3E 50         [ 7] 1909 	ld	a,#0x50
   06EE DD 96 04      [19] 1910 	sub	a, 4 (ix)
   06F1 57            [ 4] 1911 	ld	d,a
   06F2 3E 00         [ 7] 1912 	ld	a,#0x00
   06F4 DD 9E 05      [19] 1913 	sbc	a, 5 (ix)
   06F7 5F            [ 4] 1914 	ld	e,a
   06F8 6A            [ 4] 1915 	ld	l, d
   06F9 63            [ 4] 1916 	ld	h, e
   06FA CB 7B         [ 8] 1917 	bit	7, e
   06FC 28 03         [12] 1918 	jr	Z,00103$
   06FE 6A            [ 4] 1919 	ld	l, d
   06FF 63            [ 4] 1920 	ld	h, e
   0700 23            [ 6] 1921 	inc	hl
   0701                    1922 00103$:
   0701 DD 75 F9      [19] 1923 	ld	-7 (ix),l
   0704 DD 74 FA      [19] 1924 	ld	-6 (ix),h
   0707 DD CB FA 2E   [23] 1925 	sra	-6 (ix)
   070B DD CB F9 1E   [23] 1926 	rr	-7 (ix)
                           1927 ;src/includes/gui.h:29: int top = (200-height_)/2;
   070F 3E C8         [ 7] 1928 	ld	a,#0xC8
   0711 DD 96 06      [19] 1929 	sub	a, 6 (ix)
   0714 4F            [ 4] 1930 	ld	c,a
   0715 3E 00         [ 7] 1931 	ld	a,#0x00
   0717 DD 9E 07      [19] 1932 	sbc	a, 7 (ix)
   071A 47            [ 4] 1933 	ld	b,a
   071B 61            [ 4] 1934 	ld	h,c
   071C 50            [ 4] 1935 	ld	d,b
   071D CB 78         [ 8] 1936 	bit	7, b
   071F 28 03         [12] 1937 	jr	Z,00104$
   0721 03            [ 6] 1938 	inc	bc
   0722 61            [ 4] 1939 	ld	h,c
   0723 50            [ 4] 1940 	ld	d,b
   0724                    1941 00104$:
   0724 5C            [ 4] 1942 	ld	e, h
   0725 CB 2A         [ 8] 1943 	sra	d
   0727 CB 1B         [ 8] 1944 	rr	e
                           1945 ;src/includes/gui.h:31: cpct_clearScreen(cpct_px2byteM0(9,9));
   0729 D5            [11] 1946 	push	de
   072A 21 09 09      [10] 1947 	ld	hl,#0x0909
   072D E5            [11] 1948 	push	hl
   072E CDr00r00      [17] 1949 	call	_cpct_px2byteM0
   0731 65            [ 4] 1950 	ld	h,l
   0732 01 00 40      [10] 1951 	ld	bc,#0x4000
   0735 C5            [11] 1952 	push	bc
   0736 E5            [11] 1953 	push	hl
   0737 33            [ 6] 1954 	inc	sp
   0738 21 00 C0      [10] 1955 	ld	hl,#0xC000
   073B E5            [11] 1956 	push	hl
   073C CDr00r00      [17] 1957 	call	_cpct_memset
   073F D1            [10] 1958 	pop	de
                           1959 ;src/includes/gui.h:34: pvid = cpct_getScreenPtr(SCR_VMEM, left+1, top+4);
   0740 DD 73 FB      [19] 1960 	ld	-5 (ix), e
   0743 63            [ 4] 1961 	ld	h, e
   0744 24            [ 4] 1962 	inc	h
   0745 24            [ 4] 1963 	inc	h
   0746 24            [ 4] 1964 	inc	h
   0747 24            [ 4] 1965 	inc	h
   0748 DD 7E F9      [19] 1966 	ld	a,-7 (ix)
   074B 3C            [ 4] 1967 	inc	a
   074C DD 77 FC      [19] 1968 	ld	-4 (ix),a
   074F D5            [11] 1969 	push	de
   0750 E5            [11] 1970 	push	hl
   0751 33            [ 6] 1971 	inc	sp
   0752 DD 7E FC      [19] 1972 	ld	a,-4 (ix)
   0755 F5            [11] 1973 	push	af
   0756 33            [ 6] 1974 	inc	sp
   0757 21 00 C0      [10] 1975 	ld	hl,#0xC000
   075A E5            [11] 1976 	push	hl
   075B CDr00r00      [17] 1977 	call	_cpct_getScreenPtr
   075E D1            [10] 1978 	pop	de
   075F 4D            [ 4] 1979 	ld	c, l
   0760 44            [ 4] 1980 	ld	b, h
                           1981 ;src/includes/gui.h:35: cpct_drawSolidBox(pvid, cpct_px2byteM0(2,2), width_, height_);
   0761 DD 7E 06      [19] 1982 	ld	a,6 (ix)
   0764 DD 77 FD      [19] 1983 	ld	-3 (ix),a
   0767 DD 7E 04      [19] 1984 	ld	a,4 (ix)
   076A DD 77 FE      [19] 1985 	ld	-2 (ix),a
   076D C5            [11] 1986 	push	bc
   076E D5            [11] 1987 	push	de
   076F 21 02 02      [10] 1988 	ld	hl,#0x0202
   0772 E5            [11] 1989 	push	hl
   0773 CDr00r00      [17] 1990 	call	_cpct_px2byteM0
   0776 DD 75 FF      [19] 1991 	ld	-1 (ix),l
   0779 D1            [10] 1992 	pop	de
   077A C1            [10] 1993 	pop	bc
   077B D5            [11] 1994 	push	de
   077C DD 66 FD      [19] 1995 	ld	h,-3 (ix)
   077F DD 6E FE      [19] 1996 	ld	l,-2 (ix)
   0782 E5            [11] 1997 	push	hl
   0783 DD 7E FF      [19] 1998 	ld	a,-1 (ix)
   0786 F5            [11] 1999 	push	af
   0787 33            [ 6] 2000 	inc	sp
   0788 C5            [11] 2001 	push	bc
   0789 CDr00r00      [17] 2002 	call	_cpct_drawSolidBox
   078C F1            [10] 2003 	pop	af
   078D F1            [10] 2004 	pop	af
   078E 33            [ 6] 2005 	inc	sp
   078F D1            [10] 2006 	pop	de
                           2007 ;src/includes/gui.h:38: pvid = cpct_getScreenPtr(SCR_VMEM, left, top);
   0790 63            [ 4] 2008 	ld	h,e
   0791 DD 56 F9      [19] 2009 	ld	d,-7 (ix)
   0794 E5            [11] 2010 	push	hl
   0795 33            [ 6] 2011 	inc	sp
   0796 D5            [11] 2012 	push	de
   0797 33            [ 6] 2013 	inc	sp
   0798 21 00 C0      [10] 2014 	ld	hl,#0xC000
   079B E5            [11] 2015 	push	hl
   079C CDr00r00      [17] 2016 	call	_cpct_getScreenPtr
                           2017 ;src/includes/gui.h:39: cpct_drawSolidBox(pvid, cpct_px2byteM0(6,6), width_, height_);
   079F E5            [11] 2018 	push	hl
   07A0 21 06 06      [10] 2019 	ld	hl,#0x0606
   07A3 E5            [11] 2020 	push	hl
   07A4 CDr00r00      [17] 2021 	call	_cpct_px2byteM0
   07A7 45            [ 4] 2022 	ld	b,l
   07A8 D1            [10] 2023 	pop	de
   07A9 DD 66 FD      [19] 2024 	ld	h,-3 (ix)
   07AC DD 6E FE      [19] 2025 	ld	l,-2 (ix)
   07AF E5            [11] 2026 	push	hl
   07B0 C5            [11] 2027 	push	bc
   07B1 33            [ 6] 2028 	inc	sp
   07B2 D5            [11] 2029 	push	de
   07B3 CDr00r00      [17] 2030 	call	_cpct_drawSolidBox
   07B6 F1            [10] 2031 	pop	af
   07B7 F1            [10] 2032 	pop	af
   07B8 33            [ 6] 2033 	inc	sp
                           2034 ;src/includes/gui.h:42: pvid = cpct_getScreenPtr(SCR_VMEM, left+1, top+2);
   07B9 DD 66 FB      [19] 2035 	ld	h,-5 (ix)
   07BC 24            [ 4] 2036 	inc	h
   07BD 24            [ 4] 2037 	inc	h
   07BE E5            [11] 2038 	push	hl
   07BF 33            [ 6] 2039 	inc	sp
   07C0 DD 7E FC      [19] 2040 	ld	a,-4 (ix)
   07C3 F5            [11] 2041 	push	af
   07C4 33            [ 6] 2042 	inc	sp
   07C5 21 00 C0      [10] 2043 	ld	hl,#0xC000
   07C8 E5            [11] 2044 	push	hl
   07C9 CDr00r00      [17] 2045 	call	_cpct_getScreenPtr
   07CC EB            [ 4] 2046 	ex	de,hl
                           2047 ;src/includes/gui.h:43: cpct_drawSolidBox(pvid, cpct_px2byteM0(0,0), width_-2, height_-4);
   07CD DD 7E 06      [19] 2048 	ld	a,6 (ix)
   07D0 C6 FC         [ 7] 2049 	add	a,#0xFC
   07D2 4F            [ 4] 2050 	ld	c,a
   07D3 DD 46 04      [19] 2051 	ld	b,4 (ix)
   07D6 05            [ 4] 2052 	dec	b
   07D7 05            [ 4] 2053 	dec	b
   07D8 C5            [11] 2054 	push	bc
   07D9 D5            [11] 2055 	push	de
   07DA 21 00 00      [10] 2056 	ld	hl,#0x0000
   07DD E5            [11] 2057 	push	hl
   07DE CDr00r00      [17] 2058 	call	_cpct_px2byteM0
   07E1 DD 75 FF      [19] 2059 	ld	-1 (ix),l
   07E4 D1            [10] 2060 	pop	de
   07E5 C1            [10] 2061 	pop	bc
   07E6 79            [ 4] 2062 	ld	a,c
   07E7 F5            [11] 2063 	push	af
   07E8 33            [ 6] 2064 	inc	sp
   07E9 C5            [11] 2065 	push	bc
   07EA 33            [ 6] 2066 	inc	sp
   07EB DD 7E FF      [19] 2067 	ld	a,-1 (ix)
   07EE F5            [11] 2068 	push	af
   07EF 33            [ 6] 2069 	inc	sp
   07F0 D5            [11] 2070 	push	de
   07F1 CDr00r00      [17] 2071 	call	_cpct_drawSolidBox
   07F4 DD F9         [10] 2072 	ld	sp,ix
   07F6 DD E1         [14] 2073 	pop	ix
   07F8 C9            [10] 2074 	ret
                           2075 ;src/includes/gui.h:47: void drawBoxM2(int width_, int height_)
                           2076 ;	---------------------------------
                           2077 ; Function drawBoxM2
                           2078 ; ---------------------------------
   07F9                    2079 _drawBoxM2::
   07F9 DD E5         [15] 2080 	push	ix
   07FB DD 21 00 00   [14] 2081 	ld	ix,#0
   07FF DD 39         [15] 2082 	add	ix,sp
   0801 21 FA FF      [10] 2083 	ld	hl,#-6
   0804 39            [11] 2084 	add	hl,sp
   0805 F9            [ 6] 2085 	ld	sp,hl
                           2086 ;src/includes/gui.h:52: int left = (80-width_)/2;
   0806 3E 50         [ 7] 2087 	ld	a,#0x50
   0808 DD 96 04      [19] 2088 	sub	a, 4 (ix)
   080B 4F            [ 4] 2089 	ld	c,a
   080C 3E 00         [ 7] 2090 	ld	a,#0x00
   080E DD 9E 05      [19] 2091 	sbc	a, 5 (ix)
   0811 47            [ 4] 2092 	ld	b,a
   0812 61            [ 4] 2093 	ld	h,c
   0813 50            [ 4] 2094 	ld	d,b
   0814 CB 78         [ 8] 2095 	bit	7, b
   0816 28 03         [12] 2096 	jr	Z,00103$
   0818 03            [ 6] 2097 	inc	bc
   0819 61            [ 4] 2098 	ld	h,c
   081A 50            [ 4] 2099 	ld	d,b
   081B                    2100 00103$:
   081B 5C            [ 4] 2101 	ld	e, h
   081C CB 2A         [ 8] 2102 	sra	d
   081E CB 1B         [ 8] 2103 	rr	e
                           2104 ;src/includes/gui.h:53: int top = (200-height_)/2;
   0820 3E C8         [ 7] 2105 	ld	a,#0xC8
   0822 DD 96 06      [19] 2106 	sub	a, 6 (ix)
   0825 4F            [ 4] 2107 	ld	c,a
   0826 3E 00         [ 7] 2108 	ld	a,#0x00
   0828 DD 9E 07      [19] 2109 	sbc	a, 7 (ix)
   082B 47            [ 4] 2110 	ld	b,a
   082C 61            [ 4] 2111 	ld	h,c
   082D 68            [ 4] 2112 	ld	l,b
   082E CB 78         [ 8] 2113 	bit	7, b
   0830 28 03         [12] 2114 	jr	Z,00104$
   0832 03            [ 6] 2115 	inc	bc
   0833 61            [ 4] 2116 	ld	h,c
   0834 68            [ 4] 2117 	ld	l,b
   0835                    2118 00104$:
   0835 DD 74 FA      [19] 2119 	ld	-6 (ix),h
   0838 DD 75 FB      [19] 2120 	ld	-5 (ix),l
   083B DD CB FB 2E   [23] 2121 	sra	-5 (ix)
   083F DD CB FA 1E   [23] 2122 	rr	-6 (ix)
                           2123 ;src/includes/gui.h:56: pvid = cpct_getScreenPtr(SCR_VMEM, left+2, top+5);
   0843 DD 7E FA      [19] 2124 	ld	a,-6 (ix)
   0846 DD 77 FC      [19] 2125 	ld	-4 (ix), a
   0849 C6 05         [ 7] 2126 	add	a, #0x05
   084B 4F            [ 4] 2127 	ld	c,a
   084C DD 73 FD      [19] 2128 	ld	-3 (ix), e
   084F 63            [ 4] 2129 	ld	h, e
   0850 24            [ 4] 2130 	inc	h
   0851 24            [ 4] 2131 	inc	h
   0852 D5            [11] 2132 	push	de
   0853 79            [ 4] 2133 	ld	a,c
   0854 F5            [11] 2134 	push	af
   0855 33            [ 6] 2135 	inc	sp
   0856 E5            [11] 2136 	push	hl
   0857 33            [ 6] 2137 	inc	sp
   0858 21 00 C0      [10] 2138 	ld	hl,#0xC000
   085B E5            [11] 2139 	push	hl
   085C CDr00r00      [17] 2140 	call	_cpct_getScreenPtr
   085F D1            [10] 2141 	pop	de
                           2142 ;src/includes/gui.h:57: cpct_drawSolidBox(pvid, 0b00000000, width_-1, height_);
   0860 DD 46 06      [19] 2143 	ld	b,6 (ix)
   0863 DD 4E 04      [19] 2144 	ld	c,4 (ix)
   0866 79            [ 4] 2145 	ld	a,c
   0867 C6 FF         [ 7] 2146 	add	a,#0xFF
   0869 DD 75 FE      [19] 2147 	ld	-2 (ix),l
   086C DD 74 FF      [19] 2148 	ld	-1 (ix),h
   086F C5            [11] 2149 	push	bc
   0870 D5            [11] 2150 	push	de
   0871 C5            [11] 2151 	push	bc
   0872 33            [ 6] 2152 	inc	sp
   0873 F5            [11] 2153 	push	af
   0874 33            [ 6] 2154 	inc	sp
   0875 AF            [ 4] 2155 	xor	a, a
   0876 F5            [11] 2156 	push	af
   0877 33            [ 6] 2157 	inc	sp
   0878 DD 6E FE      [19] 2158 	ld	l,-2 (ix)
   087B DD 66 FF      [19] 2159 	ld	h,-1 (ix)
   087E E5            [11] 2160 	push	hl
   087F CDr00r00      [17] 2161 	call	_cpct_drawSolidBox
   0882 F1            [10] 2162 	pop	af
   0883 F1            [10] 2163 	pop	af
   0884 33            [ 6] 2164 	inc	sp
   0885 D1            [10] 2165 	pop	de
   0886 C1            [10] 2166 	pop	bc
                           2167 ;src/includes/gui.h:60: pvid = cpct_getScreenPtr(SCR_VMEM, left, top);
   0887 DD 66 FA      [19] 2168 	ld	h,-6 (ix)
   088A 53            [ 4] 2169 	ld	d,e
   088B C5            [11] 2170 	push	bc
   088C E5            [11] 2171 	push	hl
   088D 33            [ 6] 2172 	inc	sp
   088E D5            [11] 2173 	push	de
   088F 33            [ 6] 2174 	inc	sp
   0890 21 00 C0      [10] 2175 	ld	hl,#0xC000
   0893 E5            [11] 2176 	push	hl
   0894 CDr00r00      [17] 2177 	call	_cpct_getScreenPtr
   0897 C1            [10] 2178 	pop	bc
                           2179 ;src/includes/gui.h:61: cpct_drawSolidBox(pvid, 0b11111000, width_, height_);
   0898 DD 7E 04      [19] 2180 	ld	a,4 (ix)
   089B EB            [ 4] 2181 	ex	de,hl
   089C C5            [11] 2182 	push	bc
   089D C5            [11] 2183 	push	bc
   089E 33            [ 6] 2184 	inc	sp
   089F 47            [ 4] 2185 	ld	b,a
   08A0 0E F8         [ 7] 2186 	ld	c,#0xF8
   08A2 C5            [11] 2187 	push	bc
   08A3 D5            [11] 2188 	push	de
   08A4 CDr00r00      [17] 2189 	call	_cpct_drawSolidBox
   08A7 F1            [10] 2190 	pop	af
   08A8 F1            [10] 2191 	pop	af
   08A9 33            [ 6] 2192 	inc	sp
   08AA C1            [10] 2193 	pop	bc
                           2194 ;src/includes/gui.h:64: pvid = cpct_getScreenPtr(SCR_VMEM, left+1, top+1);
   08AB DD 66 FC      [19] 2195 	ld	h,-4 (ix)
   08AE 24            [ 4] 2196 	inc	h
   08AF DD 56 FD      [19] 2197 	ld	d,-3 (ix)
   08B2 14            [ 4] 2198 	inc	d
   08B3 C5            [11] 2199 	push	bc
   08B4 E5            [11] 2200 	push	hl
   08B5 33            [ 6] 2201 	inc	sp
   08B6 D5            [11] 2202 	push	de
   08B7 33            [ 6] 2203 	inc	sp
   08B8 21 00 C0      [10] 2204 	ld	hl,#0xC000
   08BB E5            [11] 2205 	push	hl
   08BC CDr00r00      [17] 2206 	call	_cpct_getScreenPtr
   08BF C1            [10] 2207 	pop	bc
   08C0 5D            [ 4] 2208 	ld	e, l
   08C1 54            [ 4] 2209 	ld	d, h
                           2210 ;src/includes/gui.h:65: cpct_drawSolidBox(pvid, 0b11111111, width_-2, height_-2);
   08C2 DD 66 06      [19] 2211 	ld	h,6 (ix)
   08C5 25            [ 4] 2212 	dec	h
   08C6 25            [ 4] 2213 	dec	h
   08C7 79            [ 4] 2214 	ld	a,c
   08C8 C6 FE         [ 7] 2215 	add	a,#0xFE
   08CA E5            [11] 2216 	push	hl
   08CB 33            [ 6] 2217 	inc	sp
   08CC 47            [ 4] 2218 	ld	b,a
   08CD 0E FF         [ 7] 2219 	ld	c,#0xFF
   08CF C5            [11] 2220 	push	bc
   08D0 D5            [11] 2221 	push	de
   08D1 CDr00r00      [17] 2222 	call	_cpct_drawSolidBox
   08D4 DD F9         [10] 2223 	ld	sp,ix
   08D6 DD E1         [14] 2224 	pop	ix
   08D8 C9            [10] 2225 	ret
                           2226 ;src/includes/gui.h:68: void EraseMenuEntry(char **menu, u8 nbEntry, u8 iSelect)
                           2227 ;	---------------------------------
                           2228 ; Function EraseMenuEntry
                           2229 ; ---------------------------------
   08D9                    2230 _EraseMenuEntry::
   08D9 DD E5         [15] 2231 	push	ix
   08DB DD 21 00 00   [14] 2232 	ld	ix,#0
   08DF DD 39         [15] 2233 	add	ix,sp
   08E1 3B            [ 6] 2234 	dec	sp
                           2235 ;src/includes/gui.h:73: p_video = cpct_getScreenPtr(SCR_VMEM, 32, (201-nbEntry*10)/2+iSelect*10);
   08E2 DD 4E 06      [19] 2236 	ld	c,6 (ix)
   08E5 06 00         [ 7] 2237 	ld	b,#0x00
   08E7 69            [ 4] 2238 	ld	l, c
   08E8 60            [ 4] 2239 	ld	h, b
   08E9 29            [11] 2240 	add	hl, hl
   08EA 29            [11] 2241 	add	hl, hl
   08EB 09            [11] 2242 	add	hl, bc
   08EC 29            [11] 2243 	add	hl, hl
   08ED 4D            [ 4] 2244 	ld	c,l
   08EE 44            [ 4] 2245 	ld	b,h
   08EF 3E C9         [ 7] 2246 	ld	a,#0xC9
   08F1 91            [ 4] 2247 	sub	a, c
   08F2 57            [ 4] 2248 	ld	d,a
   08F3 3E 00         [ 7] 2249 	ld	a,#0x00
   08F5 98            [ 4] 2250 	sbc	a, b
   08F6 5F            [ 4] 2251 	ld	e,a
   08F7 6A            [ 4] 2252 	ld	l, d
   08F8 63            [ 4] 2253 	ld	h, e
   08F9 CB 7B         [ 8] 2254 	bit	7, e
   08FB 28 03         [12] 2255 	jr	Z,00103$
   08FD 6A            [ 4] 2256 	ld	l, d
   08FE 63            [ 4] 2257 	ld	h, e
   08FF 23            [ 6] 2258 	inc	hl
   0900                    2259 00103$:
   0900 CB 2C         [ 8] 2260 	sra	h
   0902 CB 1D         [ 8] 2261 	rr	l
   0904 55            [ 4] 2262 	ld	d,l
   0905 DD 7E 07      [19] 2263 	ld	a,7 (ix)
   0908 5F            [ 4] 2264 	ld	e,a
   0909 87            [ 4] 2265 	add	a, a
   090A 87            [ 4] 2266 	add	a, a
   090B 83            [ 4] 2267 	add	a, e
   090C 87            [ 4] 2268 	add	a, a
   090D DD 77 FF      [19] 2269 	ld	-1 (ix),a
   0910 7A            [ 4] 2270 	ld	a,d
   0911 DD 86 FF      [19] 2271 	add	a, -1 (ix)
   0914 C5            [11] 2272 	push	bc
   0915 57            [ 4] 2273 	ld	d,a
   0916 1E 20         [ 7] 2274 	ld	e,#0x20
   0918 D5            [11] 2275 	push	de
   0919 21 00 C0      [10] 2276 	ld	hl,#0xC000
   091C E5            [11] 2277 	push	hl
   091D CDr00r00      [17] 2278 	call	_cpct_getScreenPtr
   0920 C1            [10] 2279 	pop	bc
                           2280 ;src/includes/gui.h:74: cpct_drawSolidBox(p_video, 0b11111111, 17, 10);
   0921 EB            [ 4] 2281 	ex	de,hl
   0922 C5            [11] 2282 	push	bc
   0923 21 11 0A      [10] 2283 	ld	hl,#0x0A11
   0926 E5            [11] 2284 	push	hl
   0927 3E FF         [ 7] 2285 	ld	a,#0xFF
   0929 F5            [11] 2286 	push	af
   092A 33            [ 6] 2287 	inc	sp
   092B D5            [11] 2288 	push	de
   092C CDr00r00      [17] 2289 	call	_cpct_drawSolidBox
   092F F1            [10] 2290 	pop	af
   0930 F1            [10] 2291 	pop	af
   0931 33            [ 6] 2292 	inc	sp
   0932 C1            [10] 2293 	pop	bc
                           2294 ;src/includes/gui.h:77: p_video = cpct_getScreenPtr(SCR_VMEM, (82-strlen(menu[iSelect]))/2, (202-nbEntry*10)/2+iSelect*10);
   0933 3E CA         [ 7] 2295 	ld	a,#0xCA
   0935 91            [ 4] 2296 	sub	a, c
   0936 57            [ 4] 2297 	ld	d,a
   0937 3E 00         [ 7] 2298 	ld	a,#0x00
   0939 98            [ 4] 2299 	sbc	a, b
   093A 5F            [ 4] 2300 	ld	e,a
   093B 6A            [ 4] 2301 	ld	l, d
   093C 63            [ 4] 2302 	ld	h, e
   093D CB 7B         [ 8] 2303 	bit	7, e
   093F 28 03         [12] 2304 	jr	Z,00104$
   0941 6A            [ 4] 2305 	ld	l, d
   0942 63            [ 4] 2306 	ld	h, e
   0943 23            [ 6] 2307 	inc	hl
   0944                    2308 00104$:
   0944 CB 2C         [ 8] 2309 	sra	h
   0946 CB 1D         [ 8] 2310 	rr	l
   0948 7D            [ 4] 2311 	ld	a,l
   0949 DD 86 FF      [19] 2312 	add	a, -1 (ix)
   094C 4F            [ 4] 2313 	ld	c,a
   094D DD 6E 07      [19] 2314 	ld	l,7 (ix)
   0950 26 00         [ 7] 2315 	ld	h,#0x00
   0952 29            [11] 2316 	add	hl, hl
   0953 EB            [ 4] 2317 	ex	de,hl
   0954 DD 6E 04      [19] 2318 	ld	l,4 (ix)
   0957 DD 66 05      [19] 2319 	ld	h,5 (ix)
   095A 19            [11] 2320 	add	hl,de
   095B E5            [11] 2321 	push	hl
   095C 5E            [ 7] 2322 	ld	e,(hl)
   095D 23            [ 6] 2323 	inc	hl
   095E 56            [ 7] 2324 	ld	d,(hl)
   095F C5            [11] 2325 	push	bc
   0960 D5            [11] 2326 	push	de
   0961 CDr00r00      [17] 2327 	call	_strlen
   0964 F1            [10] 2328 	pop	af
   0965 EB            [ 4] 2329 	ex	de,hl
   0966 C1            [10] 2330 	pop	bc
   0967 E1            [10] 2331 	pop	hl
   0968 3E 52         [ 7] 2332 	ld	a,#0x52
   096A 93            [ 4] 2333 	sub	a, e
   096B 5F            [ 4] 2334 	ld	e,a
   096C 3E 00         [ 7] 2335 	ld	a,#0x00
   096E 9A            [ 4] 2336 	sbc	a, d
   096F 57            [ 4] 2337 	ld	d,a
   0970 CB 3A         [ 8] 2338 	srl	d
   0972 CB 1B         [ 8] 2339 	rr	e
   0974 E5            [11] 2340 	push	hl
   0975 51            [ 4] 2341 	ld	d, c
   0976 D5            [11] 2342 	push	de
   0977 01 00 C0      [10] 2343 	ld	bc,#0xC000
   097A C5            [11] 2344 	push	bc
   097B CDr00r00      [17] 2345 	call	_cpct_getScreenPtr
   097E 4D            [ 4] 2346 	ld	c,l
   097F 44            [ 4] 2347 	ld	b,h
   0980 E1            [10] 2348 	pop	hl
                           2349 ;src/includes/gui.h:78: cpct_drawStringM2 (menu[iSelect], p_video, 0);
   0981 5E            [ 7] 2350 	ld	e,(hl)
   0982 23            [ 6] 2351 	inc	hl
   0983 56            [ 7] 2352 	ld	d,(hl)
   0984 AF            [ 4] 2353 	xor	a, a
   0985 F5            [11] 2354 	push	af
   0986 33            [ 6] 2355 	inc	sp
   0987 C5            [11] 2356 	push	bc
   0988 D5            [11] 2357 	push	de
   0989 CDr00r00      [17] 2358 	call	_cpct_drawStringM2
   098C F1            [10] 2359 	pop	af
   098D F1            [10] 2360 	pop	af
   098E 33            [ 6] 2361 	inc	sp
   098F 33            [ 6] 2362 	inc	sp
   0990 DD E1         [14] 2363 	pop	ix
   0992 C9            [10] 2364 	ret
                           2365 ;src/includes/gui.h:81: void drawMenuEntry(char **menu, u8 nbEntry, u8 iSelect)
                           2366 ;	---------------------------------
                           2367 ; Function drawMenuEntry
                           2368 ; ---------------------------------
   0993                    2369 _drawMenuEntry::
   0993 DD E5         [15] 2370 	push	ix
   0995 DD 21 00 00   [14] 2371 	ld	ix,#0
   0999 DD 39         [15] 2372 	add	ix,sp
   099B 21 FA FF      [10] 2373 	ld	hl,#-6
   099E 39            [11] 2374 	add	hl,sp
   099F F9            [ 6] 2375 	ld	sp,hl
                           2376 ;src/includes/gui.h:88: p_video = cpct_getScreenPtr(SCR_VMEM, 32, (201-nbEntry*10)/2+iSelect*10);
   09A0 DD 4E 06      [19] 2377 	ld	c,6 (ix)
   09A3 06 00         [ 7] 2378 	ld	b,#0x00
   09A5 69            [ 4] 2379 	ld	l, c
   09A6 60            [ 4] 2380 	ld	h, b
   09A7 29            [11] 2381 	add	hl, hl
   09A8 29            [11] 2382 	add	hl, hl
   09A9 09            [11] 2383 	add	hl, bc
   09AA 29            [11] 2384 	add	hl, hl
   09AB 4D            [ 4] 2385 	ld	c,l
   09AC 44            [ 4] 2386 	ld	b,h
   09AD 3E C9         [ 7] 2387 	ld	a,#0xC9
   09AF 91            [ 4] 2388 	sub	a, c
   09B0 57            [ 4] 2389 	ld	d,a
   09B1 3E 00         [ 7] 2390 	ld	a,#0x00
   09B3 98            [ 4] 2391 	sbc	a, b
   09B4 5F            [ 4] 2392 	ld	e,a
   09B5 6A            [ 4] 2393 	ld	l, d
   09B6 63            [ 4] 2394 	ld	h, e
   09B7 CB 7B         [ 8] 2395 	bit	7, e
   09B9 28 03         [12] 2396 	jr	Z,00114$
   09BB 6A            [ 4] 2397 	ld	l, d
   09BC 63            [ 4] 2398 	ld	h, e
   09BD 23            [ 6] 2399 	inc	hl
   09BE                    2400 00114$:
   09BE CB 2C         [ 8] 2401 	sra	h
   09C0 CB 1D         [ 8] 2402 	rr	l
   09C2 55            [ 4] 2403 	ld	d,l
   09C3 DD 7E 07      [19] 2404 	ld	a,7 (ix)
   09C6 5F            [ 4] 2405 	ld	e,a
   09C7 87            [ 4] 2406 	add	a, a
   09C8 87            [ 4] 2407 	add	a, a
   09C9 83            [ 4] 2408 	add	a, e
   09CA 87            [ 4] 2409 	add	a, a
   09CB 82            [ 4] 2410 	add	a,d
   09CC C5            [11] 2411 	push	bc
   09CD 57            [ 4] 2412 	ld	d,a
   09CE 1E 20         [ 7] 2413 	ld	e,#0x20
   09D0 D5            [11] 2414 	push	de
   09D1 21 00 C0      [10] 2415 	ld	hl,#0xC000
   09D4 E5            [11] 2416 	push	hl
   09D5 CDr00r00      [17] 2417 	call	_cpct_getScreenPtr
   09D8 C1            [10] 2418 	pop	bc
                           2419 ;src/includes/gui.h:89: cpct_drawSolidBox(p_video, 0b00000000, 17, 10);
   09D9 EB            [ 4] 2420 	ex	de,hl
   09DA C5            [11] 2421 	push	bc
   09DB 21 11 0A      [10] 2422 	ld	hl,#0x0A11
   09DE E5            [11] 2423 	push	hl
   09DF AF            [ 4] 2424 	xor	a, a
   09E0 F5            [11] 2425 	push	af
   09E1 33            [ 6] 2426 	inc	sp
   09E2 D5            [11] 2427 	push	de
   09E3 CDr00r00      [17] 2428 	call	_cpct_drawSolidBox
   09E6 F1            [10] 2429 	pop	af
   09E7 F1            [10] 2430 	pop	af
   09E8 33            [ 6] 2431 	inc	sp
   09E9 C1            [10] 2432 	pop	bc
                           2433 ;src/includes/gui.h:92: for(i=0; i<14000; i++) {}
   09EA 21 B0 36      [10] 2434 	ld	hl,#0x36B0
   09ED                    2435 00108$:
   09ED 2B            [ 6] 2436 	dec	hl
   09EE 7C            [ 4] 2437 	ld	a,h
   09EF B5            [ 4] 2438 	or	a,l
   09F0 20 FB         [12] 2439 	jr	NZ,00108$
                           2440 ;src/includes/gui.h:95: for(i=0; i<nbEntry; i++)
   09F2 3E CA         [ 7] 2441 	ld	a,#0xCA
   09F4 91            [ 4] 2442 	sub	a, c
   09F5 DD 77 FC      [19] 2443 	ld	-4 (ix),a
   09F8 3E 00         [ 7] 2444 	ld	a,#0x00
   09FA 98            [ 4] 2445 	sbc	a, b
   09FB DD 77 FD      [19] 2446 	ld	-3 (ix), a
   09FE 07            [ 4] 2447 	rlca
   09FF E6 01         [ 7] 2448 	and	a,#0x01
   0A01 5F            [ 4] 2449 	ld	e,a
   0A02 21 00 00      [10] 2450 	ld	hl,#0x0000
   0A05 E3            [19] 2451 	ex	(sp), hl
   0A06                    2452 00110$:
   0A06 DD 66 06      [19] 2453 	ld	h,6 (ix)
   0A09 2E 00         [ 7] 2454 	ld	l,#0x00
   0A0B DD 7E FA      [19] 2455 	ld	a,-6 (ix)
   0A0E 94            [ 4] 2456 	sub	a, h
   0A0F DD 7E FB      [19] 2457 	ld	a,-5 (ix)
   0A12 9D            [ 4] 2458 	sbc	a, l
   0A13 E2r18r0A      [10] 2459 	jp	PO, 00146$
   0A16 EE 80         [ 7] 2460 	xor	a, #0x80
   0A18                    2461 00146$:
   0A18 F2rBEr0A      [10] 2462 	jp	P,00112$
                           2463 ;src/includes/gui.h:97: if(i==iSelect)
   0A1B DD 56 07      [19] 2464 	ld	d,7 (ix)
   0A1E 06 00         [ 7] 2465 	ld	b,#0x00
   0A20 DD 7E FA      [19] 2466 	ld	a,-6 (ix)
   0A23 92            [ 4] 2467 	sub	a, d
   0A24 20 0A         [12] 2468 	jr	NZ,00103$
   0A26 DD 7E FB      [19] 2469 	ld	a,-5 (ix)
   0A29 90            [ 4] 2470 	sub	a, b
   0A2A 20 04         [12] 2471 	jr	NZ,00103$
                           2472 ;src/includes/gui.h:98: penSelected = 1;
   0A2C 0E 01         [ 7] 2473 	ld	c,#0x01
   0A2E 18 02         [12] 2474 	jr	00104$
   0A30                    2475 00103$:
                           2476 ;src/includes/gui.h:100: penSelected = 0;
   0A30 0E 00         [ 7] 2477 	ld	c,#0x00
   0A32                    2478 00104$:
                           2479 ;src/includes/gui.h:102: p_video = cpct_getScreenPtr(SCR_VMEM, (82-strlen(menu[i]))/2, (202-nbEntry*10)/2+i*10);
   0A32 DD 6E FC      [19] 2480 	ld	l,-4 (ix)
   0A35 DD 66 FD      [19] 2481 	ld	h,-3 (ix)
   0A38 7B            [ 4] 2482 	ld	a,e
   0A39 B7            [ 4] 2483 	or	a, a
   0A3A 28 07         [12] 2484 	jr	Z,00115$
   0A3C DD 6E FC      [19] 2485 	ld	l,-4 (ix)
   0A3F DD 66 FD      [19] 2486 	ld	h,-3 (ix)
   0A42 23            [ 6] 2487 	inc	hl
   0A43                    2488 00115$:
   0A43 CB 2C         [ 8] 2489 	sra	h
   0A45 CB 1D         [ 8] 2490 	rr	l
   0A47 45            [ 4] 2491 	ld	b,l
   0A48 DD 6E FA      [19] 2492 	ld	l,-6 (ix)
   0A4B D5            [11] 2493 	push	de
   0A4C 5D            [ 4] 2494 	ld	e,l
   0A4D 29            [11] 2495 	add	hl, hl
   0A4E 29            [11] 2496 	add	hl, hl
   0A4F 19            [11] 2497 	add	hl, de
   0A50 29            [11] 2498 	add	hl, hl
   0A51 D1            [10] 2499 	pop	de
   0A52 78            [ 4] 2500 	ld	a,b
   0A53 85            [ 4] 2501 	add	a, l
   0A54 DD 77 FF      [19] 2502 	ld	-1 (ix),a
   0A57 DD 56 FA      [19] 2503 	ld	d,-6 (ix)
   0A5A DD 46 FB      [19] 2504 	ld	b,-5 (ix)
   0A5D CB 22         [ 8] 2505 	sla	d
   0A5F CB 10         [ 8] 2506 	rl	b
   0A61 DD 7E 04      [19] 2507 	ld	a,4 (ix)
   0A64 82            [ 4] 2508 	add	a, d
   0A65 57            [ 4] 2509 	ld	d,a
   0A66 DD 7E 05      [19] 2510 	ld	a,5 (ix)
   0A69 88            [ 4] 2511 	adc	a, b
   0A6A 47            [ 4] 2512 	ld	b,a
   0A6B 6A            [ 4] 2513 	ld	l, d
   0A6C 60            [ 4] 2514 	ld	h, b
   0A6D 7E            [ 7] 2515 	ld	a, (hl)
   0A6E 23            [ 6] 2516 	inc	hl
   0A6F 66            [ 7] 2517 	ld	h,(hl)
   0A70 6F            [ 4] 2518 	ld	l,a
   0A71 C5            [11] 2519 	push	bc
   0A72 D5            [11] 2520 	push	de
   0A73 E5            [11] 2521 	push	hl
   0A74 CDr00r00      [17] 2522 	call	_strlen
   0A77 F1            [10] 2523 	pop	af
   0A78 D1            [10] 2524 	pop	de
   0A79 C1            [10] 2525 	pop	bc
   0A7A 3E 52         [ 7] 2526 	ld	a,#0x52
   0A7C 95            [ 4] 2527 	sub	a, l
   0A7D 6F            [ 4] 2528 	ld	l,a
   0A7E 3E 00         [ 7] 2529 	ld	a,#0x00
   0A80 9C            [ 4] 2530 	sbc	a, h
   0A81 67            [ 4] 2531 	ld	h,a
   0A82 CB 3C         [ 8] 2532 	srl	h
   0A84 CB 1D         [ 8] 2533 	rr	l
   0A86 DD 75 FE      [19] 2534 	ld	-2 (ix),l
   0A89 C5            [11] 2535 	push	bc
   0A8A D5            [11] 2536 	push	de
   0A8B DD 66 FF      [19] 2537 	ld	h,-1 (ix)
   0A8E DD 6E FE      [19] 2538 	ld	l,-2 (ix)
   0A91 E5            [11] 2539 	push	hl
   0A92 21 00 C0      [10] 2540 	ld	hl,#0xC000
   0A95 E5            [11] 2541 	push	hl
   0A96 CDr00r00      [17] 2542 	call	_cpct_getScreenPtr
   0A99 D1            [10] 2543 	pop	de
   0A9A C1            [10] 2544 	pop	bc
   0A9B E5            [11] 2545 	push	hl
   0A9C FD E1         [14] 2546 	pop	iy
                           2547 ;src/includes/gui.h:103: cpct_drawStringM2 (menu[i], p_video, penSelected);
   0A9E 6A            [ 4] 2548 	ld	l, d
   0A9F 60            [ 4] 2549 	ld	h, b
   0AA0 7E            [ 7] 2550 	ld	a, (hl)
   0AA1 23            [ 6] 2551 	inc	hl
   0AA2 66            [ 7] 2552 	ld	h,(hl)
   0AA3 6F            [ 4] 2553 	ld	l,a
   0AA4 D5            [11] 2554 	push	de
   0AA5 79            [ 4] 2555 	ld	a,c
   0AA6 F5            [11] 2556 	push	af
   0AA7 33            [ 6] 2557 	inc	sp
   0AA8 FD E5         [15] 2558 	push	iy
   0AAA E5            [11] 2559 	push	hl
   0AAB CDr00r00      [17] 2560 	call	_cpct_drawStringM2
   0AAE F1            [10] 2561 	pop	af
   0AAF F1            [10] 2562 	pop	af
   0AB0 33            [ 6] 2563 	inc	sp
   0AB1 D1            [10] 2564 	pop	de
                           2565 ;src/includes/gui.h:95: for(i=0; i<nbEntry; i++)
   0AB2 DD 34 FA      [23] 2566 	inc	-6 (ix)
   0AB5 C2r06r0A      [10] 2567 	jp	NZ,00110$
   0AB8 DD 34 FB      [23] 2568 	inc	-5 (ix)
   0ABB C3r06r0A      [10] 2569 	jp	00110$
   0ABE                    2570 00112$:
   0ABE DD F9         [10] 2571 	ld	sp, ix
   0AC0 DD E1         [14] 2572 	pop	ix
   0AC2 C9            [10] 2573 	ret
                           2574 ;src/includes/gui.h:107: u8 drawMenu(char **menu, u8 nbEntry)
                           2575 ;	---------------------------------
                           2576 ; Function drawMenu
                           2577 ; ---------------------------------
   0AC3                    2578 _drawMenu::
   0AC3 DD E5         [15] 2579 	push	ix
   0AC5 DD 21 00 00   [14] 2580 	ld	ix,#0
   0AC9 DD 39         [15] 2581 	add	ix,sp
   0ACB F5            [11] 2582 	push	af
                           2583 ;src/includes/gui.h:110: u8 iSelect=0;
   0ACC 06 00         [ 7] 2584 	ld	b,#0x00
                           2585 ;src/includes/gui.h:112: cpct_clearScreen(0b11111111);
   0ACE C5            [11] 2586 	push	bc
   0ACF 21 00 40      [10] 2587 	ld	hl,#0x4000
   0AD2 E5            [11] 2588 	push	hl
   0AD3 3E FF         [ 7] 2589 	ld	a,#0xFF
   0AD5 F5            [11] 2590 	push	af
   0AD6 33            [ 6] 2591 	inc	sp
   0AD7 26 C0         [ 7] 2592 	ld	h, #0xC0
   0AD9 E5            [11] 2593 	push	hl
   0ADA CDr00r00      [17] 2594 	call	_cpct_memset
   0ADD C1            [10] 2595 	pop	bc
                           2596 ;src/includes/gui.h:114: drawBoxM2(30,nbEntry*12);
   0ADE DD 5E 06      [19] 2597 	ld	e,6 (ix)
   0AE1 16 00         [ 7] 2598 	ld	d,#0x00
   0AE3 6B            [ 4] 2599 	ld	l, e
   0AE4 62            [ 4] 2600 	ld	h, d
   0AE5 29            [11] 2601 	add	hl, hl
   0AE6 19            [11] 2602 	add	hl, de
   0AE7 29            [11] 2603 	add	hl, hl
   0AE8 29            [11] 2604 	add	hl, hl
   0AE9 C5            [11] 2605 	push	bc
   0AEA E5            [11] 2606 	push	hl
   0AEB 21 1E 00      [10] 2607 	ld	hl,#0x001E
   0AEE E5            [11] 2608 	push	hl
   0AEF CDrF9r07      [17] 2609 	call	_drawBoxM2
   0AF2 F1            [10] 2610 	pop	af
   0AF3 F1            [10] 2611 	pop	af
   0AF4 AF            [ 4] 2612 	xor	a, a
   0AF5 F5            [11] 2613 	push	af
   0AF6 33            [ 6] 2614 	inc	sp
   0AF7 DD 7E 06      [19] 2615 	ld	a,6 (ix)
   0AFA F5            [11] 2616 	push	af
   0AFB 33            [ 6] 2617 	inc	sp
   0AFC DD 6E 04      [19] 2618 	ld	l,4 (ix)
   0AFF DD 66 05      [19] 2619 	ld	h,5 (ix)
   0B02 E5            [11] 2620 	push	hl
   0B03 CDr93r09      [17] 2621 	call	_drawMenuEntry
   0B06 F1            [10] 2622 	pop	af
   0B07 F1            [10] 2623 	pop	af
   0B08 C1            [10] 2624 	pop	bc
                           2625 ;src/includes/gui.h:118: do{
   0B09 DD 4E 06      [19] 2626 	ld	c,6 (ix)
   0B0C 0D            [ 4] 2627 	dec	c
   0B0D                    2628 00111$:
                           2629 ;src/includes/gui.h:119: cpct_scanKeyboard(); 
   0B0D C5            [11] 2630 	push	bc
   0B0E CDr00r00      [17] 2631 	call	_cpct_scanKeyboard
   0B11 21 00 01      [10] 2632 	ld	hl,#0x0100
   0B14 CDr00r00      [17] 2633 	call	_cpct_isKeyPressed
   0B17 7D            [ 4] 2634 	ld	a,l
   0B18 C1            [10] 2635 	pop	bc
   0B19 B7            [ 4] 2636 	or	a, a
   0B1A 28 32         [12] 2637 	jr	Z,00105$
                           2638 ;src/includes/gui.h:123: EraseMenuEntry(menu, nbEntry, iSelect);
   0B1C C5            [11] 2639 	push	bc
   0B1D C5            [11] 2640 	push	bc
   0B1E 33            [ 6] 2641 	inc	sp
   0B1F DD 7E 06      [19] 2642 	ld	a,6 (ix)
   0B22 F5            [11] 2643 	push	af
   0B23 33            [ 6] 2644 	inc	sp
   0B24 DD 6E 04      [19] 2645 	ld	l,4 (ix)
   0B27 DD 66 05      [19] 2646 	ld	h,5 (ix)
   0B2A E5            [11] 2647 	push	hl
   0B2B CDrD9r08      [17] 2648 	call	_EraseMenuEntry
   0B2E F1            [10] 2649 	pop	af
   0B2F F1            [10] 2650 	pop	af
   0B30 C1            [10] 2651 	pop	bc
                           2652 ;src/includes/gui.h:125: if(iSelect ==0)
   0B31 78            [ 4] 2653 	ld	a,b
   0B32 B7            [ 4] 2654 	or	a, a
   0B33 20 03         [12] 2655 	jr	NZ,00102$
                           2656 ;src/includes/gui.h:126: iSelect = nbEntry-1;
   0B35 41            [ 4] 2657 	ld	b,c
   0B36 18 01         [12] 2658 	jr	00103$
   0B38                    2659 00102$:
                           2660 ;src/includes/gui.h:128: iSelect--;
   0B38 05            [ 4] 2661 	dec	b
   0B39                    2662 00103$:
                           2663 ;src/includes/gui.h:130: drawMenuEntry(menu, nbEntry, iSelect);
   0B39 C5            [11] 2664 	push	bc
   0B3A C5            [11] 2665 	push	bc
   0B3B 33            [ 6] 2666 	inc	sp
   0B3C DD 7E 06      [19] 2667 	ld	a,6 (ix)
   0B3F F5            [11] 2668 	push	af
   0B40 33            [ 6] 2669 	inc	sp
   0B41 DD 6E 04      [19] 2670 	ld	l,4 (ix)
   0B44 DD 66 05      [19] 2671 	ld	h,5 (ix)
   0B47 E5            [11] 2672 	push	hl
   0B48 CDr93r09      [17] 2673 	call	_drawMenuEntry
   0B4B F1            [10] 2674 	pop	af
   0B4C F1            [10] 2675 	pop	af
   0B4D C1            [10] 2676 	pop	bc
   0B4E                    2677 00105$:
                           2678 ;src/includes/gui.h:133: if ( cpct_isKeyPressed(Key_CursorDown) )
   0B4E C5            [11] 2679 	push	bc
   0B4F 21 00 04      [10] 2680 	ld	hl,#0x0400
   0B52 CDr00r00      [17] 2681 	call	_cpct_isKeyPressed
   0B55 5D            [ 4] 2682 	ld	e,l
   0B56 C1            [10] 2683 	pop	bc
   0B57 7B            [ 4] 2684 	ld	a,e
   0B58 B7            [ 4] 2685 	or	a, a
   0B59 28 48         [12] 2686 	jr	Z,00112$
                           2687 ;src/includes/gui.h:135: EraseMenuEntry(menu, nbEntry, iSelect);
   0B5B C5            [11] 2688 	push	bc
   0B5C C5            [11] 2689 	push	bc
   0B5D 33            [ 6] 2690 	inc	sp
   0B5E DD 7E 06      [19] 2691 	ld	a,6 (ix)
   0B61 F5            [11] 2692 	push	af
   0B62 33            [ 6] 2693 	inc	sp
   0B63 DD 6E 04      [19] 2694 	ld	l,4 (ix)
   0B66 DD 66 05      [19] 2695 	ld	h,5 (ix)
   0B69 E5            [11] 2696 	push	hl
   0B6A CDrD9r08      [17] 2697 	call	_EraseMenuEntry
   0B6D F1            [10] 2698 	pop	af
   0B6E F1            [10] 2699 	pop	af
   0B6F C1            [10] 2700 	pop	bc
                           2701 ;src/includes/gui.h:137: if(iSelect == nbEntry-1)
   0B70 DD 5E 06      [19] 2702 	ld	e,6 (ix)
   0B73 16 00         [ 7] 2703 	ld	d,#0x00
   0B75 1B            [ 6] 2704 	dec	de
   0B76 DD 70 FE      [19] 2705 	ld	-2 (ix),b
   0B79 DD 36 FF 00   [19] 2706 	ld	-1 (ix),#0x00
   0B7D 7B            [ 4] 2707 	ld	a,e
   0B7E DD 96 FE      [19] 2708 	sub	a, -2 (ix)
   0B81 20 0A         [12] 2709 	jr	NZ,00107$
   0B83 7A            [ 4] 2710 	ld	a,d
   0B84 DD 96 FF      [19] 2711 	sub	a, -1 (ix)
   0B87 20 04         [12] 2712 	jr	NZ,00107$
                           2713 ;src/includes/gui.h:138: iSelect = 0;
   0B89 06 00         [ 7] 2714 	ld	b,#0x00
   0B8B 18 01         [12] 2715 	jr	00108$
   0B8D                    2716 00107$:
                           2717 ;src/includes/gui.h:140: iSelect++;
   0B8D 04            [ 4] 2718 	inc	b
   0B8E                    2719 00108$:
                           2720 ;src/includes/gui.h:142: drawMenuEntry(menu, nbEntry, iSelect);
   0B8E C5            [11] 2721 	push	bc
   0B8F C5            [11] 2722 	push	bc
   0B90 33            [ 6] 2723 	inc	sp
   0B91 DD 7E 06      [19] 2724 	ld	a,6 (ix)
   0B94 F5            [11] 2725 	push	af
   0B95 33            [ 6] 2726 	inc	sp
   0B96 DD 6E 04      [19] 2727 	ld	l,4 (ix)
   0B99 DD 66 05      [19] 2728 	ld	h,5 (ix)
   0B9C E5            [11] 2729 	push	hl
   0B9D CDr93r09      [17] 2730 	call	_drawMenuEntry
   0BA0 F1            [10] 2731 	pop	af
   0BA1 F1            [10] 2732 	pop	af
   0BA2 C1            [10] 2733 	pop	bc
   0BA3                    2734 00112$:
                           2735 ;src/includes/gui.h:145: while(!cpct_isKeyPressed(Key_Return));
   0BA3 C5            [11] 2736 	push	bc
   0BA4 21 02 04      [10] 2737 	ld	hl,#0x0402
   0BA7 CDr00r00      [17] 2738 	call	_cpct_isKeyPressed
   0BAA 7D            [ 4] 2739 	ld	a,l
   0BAB C1            [10] 2740 	pop	bc
   0BAC B7            [ 4] 2741 	or	a, a
   0BAD CAr0Dr0B      [10] 2742 	jp	Z,00111$
                           2743 ;src/includes/gui.h:148: for(i=0; i<14000; i++) {}
   0BB0 21 B0 36      [10] 2744 	ld	hl,#0x36B0
   0BB3                    2745 00117$:
   0BB3 EB            [ 4] 2746 	ex	de,hl
   0BB4 1B            [ 6] 2747 	dec	de
   0BB5 6B            [ 4] 2748 	ld	l, e
   0BB6 7A            [ 4] 2749 	ld	a,d
   0BB7 67            [ 4] 2750 	ld	h,a
   0BB8 B3            [ 4] 2751 	or	a,e
   0BB9 20 F8         [12] 2752 	jr	NZ,00117$
                           2753 ;src/includes/gui.h:150: return iSelect;
   0BBB 68            [ 4] 2754 	ld	l,b
   0BBC DD F9         [10] 2755 	ld	sp, ix
   0BBE DD E1         [14] 2756 	pop	ix
   0BC0 C9            [10] 2757 	ret
                           2758 ;src/includes/gui.h:160: u8 drawWindow(char **text, u8 nbLine, u8 button)
                           2759 ;	---------------------------------
                           2760 ; Function drawWindow
                           2761 ; ---------------------------------
   0BC1                    2762 _drawWindow::
   0BC1 DD E5         [15] 2763 	push	ix
   0BC3 DD 21 00 00   [14] 2764 	ld	ix,#0
   0BC7 DD 39         [15] 2765 	add	ix,sp
   0BC9 21 F5 FF      [10] 2766 	ld	hl,#-11
   0BCC 39            [11] 2767 	add	hl,sp
   0BCD F9            [ 6] 2768 	ld	sp,hl
                           2769 ;src/includes/gui.h:164: u8 valueReturn=0;
   0BCE DD 36 F5 00   [19] 2770 	ld	-11 (ix),#0x00
                           2771 ;src/includes/gui.h:167: if(button == 0)
   0BD2 DD 7E 07      [19] 2772 	ld	a,7 (ix)
   0BD5 B7            [ 4] 2773 	or	a, a
   0BD6 20 05         [12] 2774 	jr	NZ,00102$
                           2775 ;src/includes/gui.h:168: buttonTxt = "<OK>";
   0BD8 11r4Ar0D      [10] 2776 	ld	de,#___str_0
   0BDB 18 03         [12] 2777 	jr	00103$
   0BDD                    2778 00102$:
                           2779 ;src/includes/gui.h:170: buttonTxt = "<OK>  <Cancel>";
   0BDD 11r4Fr0D      [10] 2780 	ld	de,#___str_1+0
   0BE0                    2781 00103$:
                           2782 ;src/includes/gui.h:172: drawBoxM2(50,(nbLine+2)*12);
   0BE0 DD 4E 06      [19] 2783 	ld	c,6 (ix)
   0BE3 06 00         [ 7] 2784 	ld	b,#0x00
   0BE5 03            [ 6] 2785 	inc	bc
   0BE6 03            [ 6] 2786 	inc	bc
   0BE7 69            [ 4] 2787 	ld	l, c
   0BE8 60            [ 4] 2788 	ld	h, b
   0BE9 29            [11] 2789 	add	hl, hl
   0BEA 09            [11] 2790 	add	hl, bc
   0BEB 29            [11] 2791 	add	hl, hl
   0BEC 29            [11] 2792 	add	hl, hl
   0BED C5            [11] 2793 	push	bc
   0BEE D5            [11] 2794 	push	de
   0BEF E5            [11] 2795 	push	hl
   0BF0 21 32 00      [10] 2796 	ld	hl,#0x0032
   0BF3 E5            [11] 2797 	push	hl
   0BF4 CDrF9r07      [17] 2798 	call	_drawBoxM2
   0BF7 F1            [10] 2799 	pop	af
   0BF8 F1            [10] 2800 	pop	af
   0BF9 D1            [10] 2801 	pop	de
   0BFA C1            [10] 2802 	pop	bc
                           2803 ;src/includes/gui.h:174: for(i=0; i<nbLine; i++)
   0BFB 69            [ 4] 2804 	ld	l, c
   0BFC 60            [ 4] 2805 	ld	h, b
   0BFD 29            [11] 2806 	add	hl, hl
   0BFE 29            [11] 2807 	add	hl, hl
   0BFF 09            [11] 2808 	add	hl, bc
   0C00 29            [11] 2809 	add	hl, hl
   0C01 3E CA         [ 7] 2810 	ld	a,#0xCA
   0C03 95            [ 4] 2811 	sub	a, l
   0C04 DD 77 FE      [19] 2812 	ld	-2 (ix),a
   0C07 3E 00         [ 7] 2813 	ld	a,#0x00
   0C09 9C            [ 4] 2814 	sbc	a, h
   0C0A DD 77 FF      [19] 2815 	ld	-1 (ix), a
   0C0D 07            [ 4] 2816 	rlca
   0C0E E6 01         [ 7] 2817 	and	a,#0x01
   0C10 DD 77 F7      [19] 2818 	ld	-9 (ix),a
   0C13 DD 36 F6 00   [19] 2819 	ld	-10 (ix),#0x00
   0C17 DD 36 FD 00   [19] 2820 	ld	-3 (ix),#0x00
   0C1B                    2821 00114$:
                           2822 ;src/includes/gui.h:176: p_video = cpct_getScreenPtr(SCR_VMEM, (82-strlen(text[i]))/2, (202-(nbLine+2)*10)/2+i*10);
   0C1B DD 7E FE      [19] 2823 	ld	a,-2 (ix)
   0C1E C6 01         [ 7] 2824 	add	a, #0x01
   0C20 DD 77 FB      [19] 2825 	ld	-5 (ix),a
   0C23 DD 7E FF      [19] 2826 	ld	a,-1 (ix)
   0C26 CE 00         [ 7] 2827 	adc	a, #0x00
   0C28 DD 77 FC      [19] 2828 	ld	-4 (ix),a
                           2829 ;src/includes/gui.h:174: for(i=0; i<nbLine; i++)
   0C2B DD 7E F6      [19] 2830 	ld	a,-10 (ix)
   0C2E DD 96 06      [19] 2831 	sub	a, 6 (ix)
   0C31 D2rBDr0C      [10] 2832 	jp	NC,00104$
                           2833 ;src/includes/gui.h:176: p_video = cpct_getScreenPtr(SCR_VMEM, (82-strlen(text[i]))/2, (202-(nbLine+2)*10)/2+i*10);
   0C34 DD 6E FE      [19] 2834 	ld	l,-2 (ix)
   0C37 DD 66 FF      [19] 2835 	ld	h,-1 (ix)
   0C3A DD 7E F7      [19] 2836 	ld	a,-9 (ix)
   0C3D B7            [ 4] 2837 	or	a, a
   0C3E 28 06         [12] 2838 	jr	Z,00118$
   0C40 DD 6E FB      [19] 2839 	ld	l,-5 (ix)
   0C43 DD 66 FC      [19] 2840 	ld	h,-4 (ix)
   0C46                    2841 00118$:
   0C46 CB 2C         [ 8] 2842 	sra	h
   0C48 CB 1D         [ 8] 2843 	rr	l
   0C4A DD 66 FD      [19] 2844 	ld	h,-3 (ix)
   0C4D 7D            [ 4] 2845 	ld	a,l
   0C4E 84            [ 4] 2846 	add	a, h
   0C4F DD 77 FA      [19] 2847 	ld	-6 (ix),a
   0C52 DD 6E F6      [19] 2848 	ld	l,-10 (ix)
   0C55 26 00         [ 7] 2849 	ld	h,#0x00
   0C57 29            [11] 2850 	add	hl, hl
   0C58 45            [ 4] 2851 	ld	b,l
   0C59 4C            [ 4] 2852 	ld	c,h
   0C5A DD 7E 04      [19] 2853 	ld	a,4 (ix)
   0C5D 80            [ 4] 2854 	add	a, b
   0C5E DD 77 F8      [19] 2855 	ld	-8 (ix),a
   0C61 DD 7E 05      [19] 2856 	ld	a,5 (ix)
   0C64 89            [ 4] 2857 	adc	a, c
   0C65 DD 77 F9      [19] 2858 	ld	-7 (ix),a
   0C68 DD 6E F8      [19] 2859 	ld	l,-8 (ix)
   0C6B DD 66 F9      [19] 2860 	ld	h,-7 (ix)
   0C6E 4E            [ 7] 2861 	ld	c,(hl)
   0C6F 23            [ 6] 2862 	inc	hl
   0C70 46            [ 7] 2863 	ld	b,(hl)
   0C71 D5            [11] 2864 	push	de
   0C72 C5            [11] 2865 	push	bc
   0C73 CDr00r00      [17] 2866 	call	_strlen
   0C76 F1            [10] 2867 	pop	af
   0C77 D1            [10] 2868 	pop	de
   0C78 3E 52         [ 7] 2869 	ld	a,#0x52
   0C7A 95            [ 4] 2870 	sub	a, l
   0C7B 6F            [ 4] 2871 	ld	l,a
   0C7C 3E 00         [ 7] 2872 	ld	a,#0x00
   0C7E 9C            [ 4] 2873 	sbc	a, h
   0C7F 67            [ 4] 2874 	ld	h,a
   0C80 CB 3C         [ 8] 2875 	srl	h
   0C82 CB 1D         [ 8] 2876 	rr	l
   0C84 45            [ 4] 2877 	ld	b,l
   0C85 D5            [11] 2878 	push	de
   0C86 DD 7E FA      [19] 2879 	ld	a,-6 (ix)
   0C89 F5            [11] 2880 	push	af
   0C8A 33            [ 6] 2881 	inc	sp
   0C8B C5            [11] 2882 	push	bc
   0C8C 33            [ 6] 2883 	inc	sp
   0C8D 21 00 C0      [10] 2884 	ld	hl,#0xC000
   0C90 E5            [11] 2885 	push	hl
   0C91 CDr00r00      [17] 2886 	call	_cpct_getScreenPtr
   0C94 D1            [10] 2887 	pop	de
   0C95 E5            [11] 2888 	push	hl
   0C96 FD E1         [14] 2889 	pop	iy
                           2890 ;src/includes/gui.h:177: cpct_drawStringM2 (text[i], p_video, 0);
   0C98 DD 6E F8      [19] 2891 	ld	l,-8 (ix)
   0C9B DD 66 F9      [19] 2892 	ld	h,-7 (ix)
   0C9E 4E            [ 7] 2893 	ld	c,(hl)
   0C9F 23            [ 6] 2894 	inc	hl
   0CA0 46            [ 7] 2895 	ld	b,(hl)
   0CA1 D5            [11] 2896 	push	de
   0CA2 AF            [ 4] 2897 	xor	a, a
   0CA3 F5            [11] 2898 	push	af
   0CA4 33            [ 6] 2899 	inc	sp
   0CA5 FD E5         [15] 2900 	push	iy
   0CA7 C5            [11] 2901 	push	bc
   0CA8 CDr00r00      [17] 2902 	call	_cpct_drawStringM2
   0CAB F1            [10] 2903 	pop	af
   0CAC F1            [10] 2904 	pop	af
   0CAD 33            [ 6] 2905 	inc	sp
   0CAE D1            [10] 2906 	pop	de
                           2907 ;src/includes/gui.h:174: for(i=0; i<nbLine; i++)
   0CAF DD 7E FD      [19] 2908 	ld	a,-3 (ix)
   0CB2 C6 0A         [ 7] 2909 	add	a, #0x0A
   0CB4 DD 77 FD      [19] 2910 	ld	-3 (ix),a
   0CB7 DD 34 F6      [23] 2911 	inc	-10 (ix)
   0CBA C3r1Br0C      [10] 2912 	jp	00114$
   0CBD                    2913 00104$:
                           2914 ;src/includes/gui.h:180: p_video = cpct_getScreenPtr(SCR_VMEM, (82-strlen(buttonTxt))/2, (202-(nbLine+2)*10)/2+(nbLine+1)*10);
   0CBD DD 46 FE      [19] 2915 	ld	b,-2 (ix)
   0CC0 DD 66 FF      [19] 2916 	ld	h,-1 (ix)
   0CC3 DD 7E F7      [19] 2917 	ld	a,-9 (ix)
   0CC6 B7            [ 4] 2918 	or	a, a
   0CC7 28 06         [12] 2919 	jr	Z,00119$
   0CC9 DD 46 FB      [19] 2920 	ld	b,-5 (ix)
   0CCC DD 66 FC      [19] 2921 	ld	h,-4 (ix)
   0CCF                    2922 00119$:
   0CCF CB 2C         [ 8] 2923 	sra	h
   0CD1 CB 18         [ 8] 2924 	rr	b
   0CD3 DD 4E 06      [19] 2925 	ld	c,6 (ix)
   0CD6 0C            [ 4] 2926 	inc	c
   0CD7 79            [ 4] 2927 	ld	a,c
   0CD8 87            [ 4] 2928 	add	a, a
   0CD9 87            [ 4] 2929 	add	a, a
   0CDA 81            [ 4] 2930 	add	a, c
   0CDB 87            [ 4] 2931 	add	a, a
   0CDC 67            [ 4] 2932 	ld	h, a
   0CDD 80            [ 4] 2933 	add	a,b
   0CDE 47            [ 4] 2934 	ld	b,a
   0CDF C5            [11] 2935 	push	bc
   0CE0 D5            [11] 2936 	push	de
   0CE1 D5            [11] 2937 	push	de
   0CE2 CDr00r00      [17] 2938 	call	_strlen
   0CE5 F1            [10] 2939 	pop	af
   0CE6 D1            [10] 2940 	pop	de
   0CE7 C1            [10] 2941 	pop	bc
   0CE8 3E 52         [ 7] 2942 	ld	a,#0x52
   0CEA 95            [ 4] 2943 	sub	a, l
   0CEB 6F            [ 4] 2944 	ld	l,a
   0CEC 3E 00         [ 7] 2945 	ld	a,#0x00
   0CEE 9C            [ 4] 2946 	sbc	a, h
   0CEF 67            [ 4] 2947 	ld	h,a
   0CF0 CB 3C         [ 8] 2948 	srl	h
   0CF2 CB 1D         [ 8] 2949 	rr	l
   0CF4 7D            [ 4] 2950 	ld	a,l
   0CF5 D5            [11] 2951 	push	de
   0CF6 C5            [11] 2952 	push	bc
   0CF7 33            [ 6] 2953 	inc	sp
   0CF8 F5            [11] 2954 	push	af
   0CF9 33            [ 6] 2955 	inc	sp
   0CFA 21 00 C0      [10] 2956 	ld	hl,#0xC000
   0CFD E5            [11] 2957 	push	hl
   0CFE CDr00r00      [17] 2958 	call	_cpct_getScreenPtr
   0D01 D1            [10] 2959 	pop	de
                           2960 ;src/includes/gui.h:181: cpct_drawStringM2 (buttonTxt, p_video, 0);
   0D02 4D            [ 4] 2961 	ld	c, l
   0D03 44            [ 4] 2962 	ld	b, h
   0D04 AF            [ 4] 2963 	xor	a, a
   0D05 F5            [11] 2964 	push	af
   0D06 33            [ 6] 2965 	inc	sp
   0D07 C5            [11] 2966 	push	bc
   0D08 D5            [11] 2967 	push	de
   0D09 CDr00r00      [17] 2968 	call	_cpct_drawStringM2
   0D0C F1            [10] 2969 	pop	af
   0D0D F1            [10] 2970 	pop	af
   0D0E 33            [ 6] 2971 	inc	sp
                           2972 ;src/includes/gui.h:184: do{
   0D0F                    2973 00110$:
                           2974 ;src/includes/gui.h:185: cpct_scanKeyboard(); 
   0D0F CDr00r00      [17] 2975 	call	_cpct_scanKeyboard
                           2976 ;src/includes/gui.h:187: if ( cpct_isKeyPressed(Key_Return) )
   0D12 21 02 04      [10] 2977 	ld	hl,#0x0402
   0D15 CDr00r00      [17] 2978 	call	_cpct_isKeyPressed
   0D18 7D            [ 4] 2979 	ld	a,l
   0D19 B7            [ 4] 2980 	or	a, a
   0D1A 28 04         [12] 2981 	jr	Z,00106$
                           2982 ;src/includes/gui.h:188: valueReturn=1;
   0D1C DD 36 F5 01   [19] 2983 	ld	-11 (ix),#0x01
   0D20                    2984 00106$:
                           2985 ;src/includes/gui.h:190: if ( cpct_isKeyPressed(Key_Esc) )
   0D20 21 08 04      [10] 2986 	ld	hl,#0x0408
   0D23 CDr00r00      [17] 2987 	call	_cpct_isKeyPressed
   0D26 7D            [ 4] 2988 	ld	a,l
   0D27 B7            [ 4] 2989 	or	a, a
   0D28 28 04         [12] 2990 	jr	Z,00111$
                           2991 ;src/includes/gui.h:191: valueReturn=0;
   0D2A DD 36 F5 00   [19] 2992 	ld	-11 (ix),#0x00
   0D2E                    2993 00111$:
                           2994 ;src/includes/gui.h:193: while(!cpct_isKeyPressed(Key_Return) && !cpct_isKeyPressed(Key_Esc));
   0D2E 21 02 04      [10] 2995 	ld	hl,#0x0402
   0D31 CDr00r00      [17] 2996 	call	_cpct_isKeyPressed
   0D34 7D            [ 4] 2997 	ld	a,l
   0D35 B7            [ 4] 2998 	or	a, a
   0D36 20 0A         [12] 2999 	jr	NZ,00112$
   0D38 21 08 04      [10] 3000 	ld	hl,#0x0408
   0D3B CDr00r00      [17] 3001 	call	_cpct_isKeyPressed
   0D3E 7D            [ 4] 3002 	ld	a,l
   0D3F B7            [ 4] 3003 	or	a, a
   0D40 28 CD         [12] 3004 	jr	Z,00110$
   0D42                    3005 00112$:
                           3006 ;src/includes/gui.h:195: return valueReturn;
   0D42 DD 6E F5      [19] 3007 	ld	l,-11 (ix)
   0D45 DD F9         [10] 3008 	ld	sp, ix
   0D47 DD E1         [14] 3009 	pop	ix
   0D49 C9            [10] 3010 	ret
   0D4A                    3011 ___str_0:
   0D4A 3C 4F 4B 3E        3012 	.ascii "<OK>"
   0D4E 00                 3013 	.db 0x00
   0D4F                    3014 ___str_1:
   0D4F 3C 4F 4B 3E 20 20  3015 	.ascii "<OK>  <Cancel>"
        3C 43 61 6E 63 65
        6C 3E
   0D5D 00                 3016 	.db 0x00
                           3017 ;src/includes/world.h:1: void drawCursor(u8 x, u8 y, u8 color)
                           3018 ;	---------------------------------
                           3019 ; Function drawCursor
                           3020 ; ---------------------------------
   0D5E                    3021 _drawCursor::
   0D5E DD E5         [15] 3022 	push	ix
   0D60 DD 21 00 00   [14] 3023 	ld	ix,#0
   0D64 DD 39         [15] 3024 	add	ix,sp
   0D66 3B            [ 6] 3025 	dec	sp
                           3026 ;src/includes/world.h:4: p_video = cpct_getScreenPtr(SCR_VMEM, x*TILESIZE_W, y*TILESIZE_H);
   0D67 DD 7E 05      [19] 3027 	ld	a,5 (ix)
   0D6A 07            [ 4] 3028 	rlca
   0D6B 07            [ 4] 3029 	rlca
   0D6C 07            [ 4] 3030 	rlca
   0D6D 07            [ 4] 3031 	rlca
   0D6E E6 F0         [ 7] 3032 	and	a,#0xF0
   0D70 5F            [ 4] 3033 	ld	e,a
   0D71 DD 7E 04      [19] 3034 	ld	a,4 (ix)
   0D74 87            [ 4] 3035 	add	a, a
   0D75 87            [ 4] 3036 	add	a, a
   0D76 57            [ 4] 3037 	ld	d,a
   0D77 D5            [11] 3038 	push	de
   0D78 7B            [ 4] 3039 	ld	a,e
   0D79 F5            [11] 3040 	push	af
   0D7A 33            [ 6] 3041 	inc	sp
   0D7B D5            [11] 3042 	push	de
   0D7C 33            [ 6] 3043 	inc	sp
   0D7D 21 00 C0      [10] 3044 	ld	hl,#0xC000
   0D80 E5            [11] 3045 	push	hl
   0D81 CDr00r00      [17] 3046 	call	_cpct_getScreenPtr
   0D84 D1            [10] 3047 	pop	de
   0D85 4D            [ 4] 3048 	ld	c, l
   0D86 44            [ 4] 3049 	ld	b, h
                           3050 ;src/includes/world.h:6: switch(CURSOR_MODE)
   0D87 3E 10         [ 7] 3051 	ld	a,#0x10
   0D89 FD 21r00r00   [14] 3052 	ld	iy,#_CURSOR_MODE
   0D8D FD 96 00      [19] 3053 	sub	a, 0 (iy)
   0D90 DAr8Fr0F      [10] 3054 	jp	C,00119$
   0D93 D5            [11] 3055 	push	de
   0D94 FD 21r00r00   [14] 3056 	ld	iy,#_CURSOR_MODE
   0D98 FD 5E 00      [19] 3057 	ld	e,0 (iy)
   0D9B 16 00         [ 7] 3058 	ld	d,#0x00
   0D9D 21rA5r0D      [10] 3059 	ld	hl,#00125$
   0DA0 19            [11] 3060 	add	hl,de
   0DA1 19            [11] 3061 	add	hl,de
   0DA2 19            [11] 3062 	add	hl,de
   0DA3 D1            [10] 3063 	pop	de
   0DA4 E9            [ 4] 3064 	jp	(hl)
   0DA5                    3065 00125$:
   0DA5 C3rD8r0D      [10] 3066 	jp	00101$
   0DA8 C3rAAr0E      [10] 3067 	jp	00102$
   0DAB C3rB9r0E      [10] 3068 	jp	00103$
   0DAE C3rC8r0E      [10] 3069 	jp	00104$
   0DB1 C3rD7r0E      [10] 3070 	jp	00105$
   0DB4 C3rE6r0E      [10] 3071 	jp	00106$
   0DB7 C3rF5r0E      [10] 3072 	jp	00107$
   0DBA C3r04r0F      [10] 3073 	jp	00108$
   0DBD C3r13r0F      [10] 3074 	jp	00109$
   0DC0 C3r21r0F      [10] 3075 	jp	00110$
   0DC3 C3r2Fr0F      [10] 3076 	jp	00111$
   0DC6 C3r3Dr0F      [10] 3077 	jp	00112$
   0DC9 C3r4Br0F      [10] 3078 	jp	00113$
   0DCC C3r59r0F      [10] 3079 	jp	00114$
   0DCF C3r67r0F      [10] 3080 	jp	00115$
   0DD2 C3r75r0F      [10] 3081 	jp	00116$
   0DD5 C3r83r0F      [10] 3082 	jp	00117$
                           3083 ;src/includes/world.h:8: case NONE:
   0DD8                    3084 00101$:
                           3085 ;src/includes/world.h:9: cpct_memset (p_video, cpct_px2byteM1(color,color,color,color), 4);
   0DD8 C5            [11] 3086 	push	bc
   0DD9 D5            [11] 3087 	push	de
   0DDA DD 66 06      [19] 3088 	ld	h,6 (ix)
   0DDD DD 6E 06      [19] 3089 	ld	l,6 (ix)
   0DE0 E5            [11] 3090 	push	hl
   0DE1 DD 66 06      [19] 3091 	ld	h,6 (ix)
   0DE4 DD 6E 06      [19] 3092 	ld	l,6 (ix)
   0DE7 E5            [11] 3093 	push	hl
   0DE8 CDr00r00      [17] 3094 	call	_cpct_px2byteM1
   0DEB F1            [10] 3095 	pop	af
   0DEC F1            [10] 3096 	pop	af
   0DED DD 75 FF      [19] 3097 	ld	-1 (ix),l
   0DF0 D1            [10] 3098 	pop	de
   0DF1 C1            [10] 3099 	pop	bc
   0DF2 D5            [11] 3100 	push	de
   0DF3 21 04 00      [10] 3101 	ld	hl,#0x0004
   0DF6 E5            [11] 3102 	push	hl
   0DF7 DD 7E FF      [19] 3103 	ld	a,-1 (ix)
   0DFA F5            [11] 3104 	push	af
   0DFB 33            [ 6] 3105 	inc	sp
   0DFC C5            [11] 3106 	push	bc
   0DFD CDr00r00      [17] 3107 	call	_cpct_memset
   0E00 D1            [10] 3108 	pop	de
                           3109 ;src/includes/world.h:10: p_video = cpct_getScreenPtr(SCR_VMEM, x*TILESIZE_W, y*TILESIZE_H+1);
   0E01 63            [ 4] 3110 	ld	h,e
   0E02 24            [ 4] 3111 	inc	h
   0E03 D5            [11] 3112 	push	de
   0E04 E5            [11] 3113 	push	hl
   0E05 33            [ 6] 3114 	inc	sp
   0E06 D5            [11] 3115 	push	de
   0E07 33            [ 6] 3116 	inc	sp
   0E08 21 00 C0      [10] 3117 	ld	hl,#0xC000
   0E0B E5            [11] 3118 	push	hl
   0E0C CDr00r00      [17] 3119 	call	_cpct_getScreenPtr
   0E0F D1            [10] 3120 	pop	de
                           3121 ;src/includes/world.h:11: cpct_memset (p_video, cpct_px2byteM1(color,color,color,color), 4);
   0E10 E5            [11] 3122 	push	hl
   0E11 D5            [11] 3123 	push	de
   0E12 DD 66 06      [19] 3124 	ld	h,6 (ix)
   0E15 DD 6E 06      [19] 3125 	ld	l,6 (ix)
   0E18 E5            [11] 3126 	push	hl
   0E19 DD 66 06      [19] 3127 	ld	h,6 (ix)
   0E1C DD 6E 06      [19] 3128 	ld	l,6 (ix)
   0E1F E5            [11] 3129 	push	hl
   0E20 CDr00r00      [17] 3130 	call	_cpct_px2byteM1
   0E23 F1            [10] 3131 	pop	af
   0E24 F1            [10] 3132 	pop	af
   0E25 5D            [ 4] 3133 	ld	e,l
   0E26 F1            [10] 3134 	pop	af
   0E27 57            [ 4] 3135 	ld	d,a
   0E28 C1            [10] 3136 	pop	bc
   0E29 D5            [11] 3137 	push	de
   0E2A 21 04 00      [10] 3138 	ld	hl,#0x0004
   0E2D E5            [11] 3139 	push	hl
   0E2E 7B            [ 4] 3140 	ld	a,e
   0E2F F5            [11] 3141 	push	af
   0E30 33            [ 6] 3142 	inc	sp
   0E31 C5            [11] 3143 	push	bc
   0E32 CDr00r00      [17] 3144 	call	_cpct_memset
   0E35 D1            [10] 3145 	pop	de
                           3146 ;src/includes/world.h:14: p_video = cpct_getScreenPtr(SCR_VMEM, x*TILESIZE_W, (y+1)*TILESIZE_H-1);
   0E36 DD 7E 05      [19] 3147 	ld	a,5 (ix)
   0E39 3C            [ 4] 3148 	inc	a
   0E3A 07            [ 4] 3149 	rlca
   0E3B 07            [ 4] 3150 	rlca
   0E3C 07            [ 4] 3151 	rlca
   0E3D 07            [ 4] 3152 	rlca
   0E3E E6 F0         [ 7] 3153 	and	a,#0xF0
   0E40 5F            [ 4] 3154 	ld	e,a
   0E41 63            [ 4] 3155 	ld	h,e
   0E42 25            [ 4] 3156 	dec	h
   0E43 D5            [11] 3157 	push	de
   0E44 E5            [11] 3158 	push	hl
   0E45 33            [ 6] 3159 	inc	sp
   0E46 D5            [11] 3160 	push	de
   0E47 33            [ 6] 3161 	inc	sp
   0E48 21 00 C0      [10] 3162 	ld	hl,#0xC000
   0E4B E5            [11] 3163 	push	hl
   0E4C CDr00r00      [17] 3164 	call	_cpct_getScreenPtr
   0E4F D1            [10] 3165 	pop	de
                           3166 ;src/includes/world.h:15: cpct_memset (p_video, cpct_px2byteM1(color,color,color,color), 4);
   0E50 E5            [11] 3167 	push	hl
   0E51 D5            [11] 3168 	push	de
   0E52 DD 66 06      [19] 3169 	ld	h,6 (ix)
   0E55 DD 6E 06      [19] 3170 	ld	l,6 (ix)
   0E58 E5            [11] 3171 	push	hl
   0E59 DD 66 06      [19] 3172 	ld	h,6 (ix)
   0E5C DD 6E 06      [19] 3173 	ld	l,6 (ix)
   0E5F E5            [11] 3174 	push	hl
   0E60 CDr00r00      [17] 3175 	call	_cpct_px2byteM1
   0E63 F1            [10] 3176 	pop	af
   0E64 F1            [10] 3177 	pop	af
   0E65 DD 75 FF      [19] 3178 	ld	-1 (ix),l
   0E68 D1            [10] 3179 	pop	de
   0E69 C1            [10] 3180 	pop	bc
   0E6A D5            [11] 3181 	push	de
   0E6B 21 04 00      [10] 3182 	ld	hl,#0x0004
   0E6E E5            [11] 3183 	push	hl
   0E6F DD 7E FF      [19] 3184 	ld	a,-1 (ix)
   0E72 F5            [11] 3185 	push	af
   0E73 33            [ 6] 3186 	inc	sp
   0E74 C5            [11] 3187 	push	bc
   0E75 CDr00r00      [17] 3188 	call	_cpct_memset
   0E78 D1            [10] 3189 	pop	de
                           3190 ;src/includes/world.h:16: p_video = cpct_getScreenPtr(SCR_VMEM, x*TILESIZE_W, (y+1)*TILESIZE_H-2);
   0E79 63            [ 4] 3191 	ld	h,e
   0E7A 25            [ 4] 3192 	dec	h
   0E7B 25            [ 4] 3193 	dec	h
   0E7C E5            [11] 3194 	push	hl
   0E7D 33            [ 6] 3195 	inc	sp
   0E7E D5            [11] 3196 	push	de
   0E7F 33            [ 6] 3197 	inc	sp
   0E80 21 00 C0      [10] 3198 	ld	hl,#0xC000
   0E83 E5            [11] 3199 	push	hl
   0E84 CDr00r00      [17] 3200 	call	_cpct_getScreenPtr
                           3201 ;src/includes/world.h:17: cpct_memset (p_video, cpct_px2byteM1(color,color,color,color), 4);
   0E87 E5            [11] 3202 	push	hl
   0E88 DD 66 06      [19] 3203 	ld	h,6 (ix)
   0E8B DD 6E 06      [19] 3204 	ld	l,6 (ix)
   0E8E E5            [11] 3205 	push	hl
   0E8F DD 66 06      [19] 3206 	ld	h,6 (ix)
   0E92 DD 6E 06      [19] 3207 	ld	l,6 (ix)
   0E95 E5            [11] 3208 	push	hl
   0E96 CDr00r00      [17] 3209 	call	_cpct_px2byteM1
   0E99 F1            [10] 3210 	pop	af
   0E9A F1            [10] 3211 	pop	af
   0E9B 65            [ 4] 3212 	ld	h,l
   0E9C D1            [10] 3213 	pop	de
   0E9D 01 04 00      [10] 3214 	ld	bc,#0x0004
   0EA0 C5            [11] 3215 	push	bc
   0EA1 E5            [11] 3216 	push	hl
   0EA2 33            [ 6] 3217 	inc	sp
   0EA3 D5            [11] 3218 	push	de
   0EA4 CDr00r00      [17] 3219 	call	_cpct_memset
                           3220 ;src/includes/world.h:18: break;
   0EA7 C3r8Fr0F      [10] 3221 	jp	00119$
                           3222 ;src/includes/world.h:19: case T_SSNS:
   0EAA                    3223 00102$:
                           3224 ;src/includes/world.h:20: cpct_drawSprite(station_small_ns, p_video, TILESIZE_W, TILESIZE_H);
   0EAA 11rA9r02      [10] 3225 	ld	de,#_station_small_ns
   0EAD 21 04 10      [10] 3226 	ld	hl,#0x1004
   0EB0 E5            [11] 3227 	push	hl
   0EB1 C5            [11] 3228 	push	bc
   0EB2 D5            [11] 3229 	push	de
   0EB3 CDr00r00      [17] 3230 	call	_cpct_drawSprite
                           3231 ;src/includes/world.h:21: break;
   0EB6 C3r8Fr0F      [10] 3232 	jp	00119$
                           3233 ;src/includes/world.h:22: case T_SSEW:
   0EB9                    3234 00103$:
                           3235 ;src/includes/world.h:23: cpct_drawSprite(station_small_ew, p_video, TILESIZE_W, TILESIZE_H);
   0EB9 11rE9r02      [10] 3236 	ld	de,#_station_small_ew
   0EBC 21 04 10      [10] 3237 	ld	hl,#0x1004
   0EBF E5            [11] 3238 	push	hl
   0EC0 C5            [11] 3239 	push	bc
   0EC1 D5            [11] 3240 	push	de
   0EC2 CDr00r00      [17] 3241 	call	_cpct_drawSprite
                           3242 ;src/includes/world.h:24: break;
   0EC5 C3r8Fr0F      [10] 3243 	jp	00119$
                           3244 ;src/includes/world.h:25: case T_SMNS:
   0EC8                    3245 00104$:
                           3246 ;src/includes/world.h:26: cpct_drawSprite(station_medium_ns, p_video, TILESIZE_W, TILESIZE_H);
   0EC8 11r29r03      [10] 3247 	ld	de,#_station_medium_ns
   0ECB 21 04 10      [10] 3248 	ld	hl,#0x1004
   0ECE E5            [11] 3249 	push	hl
   0ECF C5            [11] 3250 	push	bc
   0ED0 D5            [11] 3251 	push	de
   0ED1 CDr00r00      [17] 3252 	call	_cpct_drawSprite
                           3253 ;src/includes/world.h:27: break;
   0ED4 C3r8Fr0F      [10] 3254 	jp	00119$
                           3255 ;src/includes/world.h:28: case T_SMEW:
   0ED7                    3256 00105$:
                           3257 ;src/includes/world.h:29: cpct_drawSprite(station_medium_ew, p_video, TILESIZE_W, TILESIZE_H);
   0ED7 11r69r03      [10] 3258 	ld	de,#_station_medium_ew
   0EDA 21 04 10      [10] 3259 	ld	hl,#0x1004
   0EDD E5            [11] 3260 	push	hl
   0EDE C5            [11] 3261 	push	bc
   0EDF D5            [11] 3262 	push	de
   0EE0 CDr00r00      [17] 3263 	call	_cpct_drawSprite
                           3264 ;src/includes/world.h:30: break;
   0EE3 C3r8Fr0F      [10] 3265 	jp	00119$
                           3266 ;src/includes/world.h:31: case T_SLNS:
   0EE6                    3267 00106$:
                           3268 ;src/includes/world.h:32: cpct_drawSprite(station_large_ns, p_video, TILESIZE_W, TILESIZE_H);
   0EE6 11rA9r03      [10] 3269 	ld	de,#_station_large_ns
   0EE9 21 04 10      [10] 3270 	ld	hl,#0x1004
   0EEC E5            [11] 3271 	push	hl
   0EED C5            [11] 3272 	push	bc
   0EEE D5            [11] 3273 	push	de
   0EEF CDr00r00      [17] 3274 	call	_cpct_drawSprite
                           3275 ;src/includes/world.h:33: break;
   0EF2 C3r8Fr0F      [10] 3276 	jp	00119$
                           3277 ;src/includes/world.h:34: case T_SLEW:
   0EF5                    3278 00107$:
                           3279 ;src/includes/world.h:35: cpct_drawSprite(station_large_ew, p_video, TILESIZE_W, TILESIZE_H);
   0EF5 11rE9r03      [10] 3280 	ld	de,#_station_large_ew
   0EF8 21 04 10      [10] 3281 	ld	hl,#0x1004
   0EFB E5            [11] 3282 	push	hl
   0EFC C5            [11] 3283 	push	bc
   0EFD D5            [11] 3284 	push	de
   0EFE CDr00r00      [17] 3285 	call	_cpct_drawSprite
                           3286 ;src/includes/world.h:36: break;
   0F01 C3r8Fr0F      [10] 3287 	jp	00119$
                           3288 ;src/includes/world.h:37: case T_REW:
   0F04                    3289 00108$:
                           3290 ;src/includes/world.h:38: cpct_drawSprite(rail_ew, p_video, TILESIZE_W, TILESIZE_H);	
   0F04 11r29r04      [10] 3291 	ld	de,#_rail_ew
   0F07 21 04 10      [10] 3292 	ld	hl,#0x1004
   0F0A E5            [11] 3293 	push	hl
   0F0B C5            [11] 3294 	push	bc
   0F0C D5            [11] 3295 	push	de
   0F0D CDr00r00      [17] 3296 	call	_cpct_drawSprite
                           3297 ;src/includes/world.h:39: break;
   0F10 C3r8Fr0F      [10] 3298 	jp	00119$
                           3299 ;src/includes/world.h:40: case T_RNS:
   0F13                    3300 00109$:
                           3301 ;src/includes/world.h:41: cpct_drawSprite(rail_ns, p_video, TILESIZE_W, TILESIZE_H);	
   0F13 11r69r04      [10] 3302 	ld	de,#_rail_ns
   0F16 21 04 10      [10] 3303 	ld	hl,#0x1004
   0F19 E5            [11] 3304 	push	hl
   0F1A C5            [11] 3305 	push	bc
   0F1B D5            [11] 3306 	push	de
   0F1C CDr00r00      [17] 3307 	call	_cpct_drawSprite
                           3308 ;src/includes/world.h:42: break;
   0F1F 18 6E         [12] 3309 	jr	00119$
                           3310 ;src/includes/world.h:43: case T_REN:
   0F21                    3311 00110$:
                           3312 ;src/includes/world.h:44: cpct_drawSprite(rail_en, p_video, TILESIZE_W, TILESIZE_H);	
   0F21 11rA9r04      [10] 3313 	ld	de,#_rail_en
   0F24 21 04 10      [10] 3314 	ld	hl,#0x1004
   0F27 E5            [11] 3315 	push	hl
   0F28 C5            [11] 3316 	push	bc
   0F29 D5            [11] 3317 	push	de
   0F2A CDr00r00      [17] 3318 	call	_cpct_drawSprite
                           3319 ;src/includes/world.h:45: break;
   0F2D 18 60         [12] 3320 	jr	00119$
                           3321 ;src/includes/world.h:46: case T_RES:
   0F2F                    3322 00111$:
                           3323 ;src/includes/world.h:47: cpct_drawSprite(rail_es, p_video, TILESIZE_W, TILESIZE_H);	
   0F2F 11rE9r04      [10] 3324 	ld	de,#_rail_es
   0F32 21 04 10      [10] 3325 	ld	hl,#0x1004
   0F35 E5            [11] 3326 	push	hl
   0F36 C5            [11] 3327 	push	bc
   0F37 D5            [11] 3328 	push	de
   0F38 CDr00r00      [17] 3329 	call	_cpct_drawSprite
                           3330 ;src/includes/world.h:48: break;
   0F3B 18 52         [12] 3331 	jr	00119$
                           3332 ;src/includes/world.h:49: case T_RWN:
   0F3D                    3333 00112$:
                           3334 ;src/includes/world.h:50: cpct_drawSprite(rail_wn, p_video, TILESIZE_W, TILESIZE_H);	
   0F3D 11r29r05      [10] 3335 	ld	de,#_rail_wn
   0F40 21 04 10      [10] 3336 	ld	hl,#0x1004
   0F43 E5            [11] 3337 	push	hl
   0F44 C5            [11] 3338 	push	bc
   0F45 D5            [11] 3339 	push	de
   0F46 CDr00r00      [17] 3340 	call	_cpct_drawSprite
                           3341 ;src/includes/world.h:51: break;
   0F49 18 44         [12] 3342 	jr	00119$
                           3343 ;src/includes/world.h:52: case T_RWS:
   0F4B                    3344 00113$:
                           3345 ;src/includes/world.h:53: cpct_drawSprite(rail_ws, p_video, TILESIZE_W, TILESIZE_H);	
   0F4B 11r69r05      [10] 3346 	ld	de,#_rail_ws
   0F4E 21 04 10      [10] 3347 	ld	hl,#0x1004
   0F51 E5            [11] 3348 	push	hl
   0F52 C5            [11] 3349 	push	bc
   0F53 D5            [11] 3350 	push	de
   0F54 CDr00r00      [17] 3351 	call	_cpct_drawSprite
                           3352 ;src/includes/world.h:54: break;
   0F57 18 36         [12] 3353 	jr	00119$
                           3354 ;src/includes/world.h:55: case T_REWN:
   0F59                    3355 00114$:
                           3356 ;src/includes/world.h:56: cpct_drawSprite(rail_ew_n, p_video, TILESIZE_W, TILESIZE_H);	
   0F59 11rA9r05      [10] 3357 	ld	de,#_rail_ew_n
   0F5C 21 04 10      [10] 3358 	ld	hl,#0x1004
   0F5F E5            [11] 3359 	push	hl
   0F60 C5            [11] 3360 	push	bc
   0F61 D5            [11] 3361 	push	de
   0F62 CDr00r00      [17] 3362 	call	_cpct_drawSprite
                           3363 ;src/includes/world.h:57: break;
   0F65 18 28         [12] 3364 	jr	00119$
                           3365 ;src/includes/world.h:58: case T_REWS:
   0F67                    3366 00115$:
                           3367 ;src/includes/world.h:59: cpct_drawSprite(rail_ew_s, p_video, TILESIZE_W, TILESIZE_H);	
   0F67 11rE9r05      [10] 3368 	ld	de,#_rail_ew_s
   0F6A 21 04 10      [10] 3369 	ld	hl,#0x1004
   0F6D E5            [11] 3370 	push	hl
   0F6E C5            [11] 3371 	push	bc
   0F6F D5            [11] 3372 	push	de
   0F70 CDr00r00      [17] 3373 	call	_cpct_drawSprite
                           3374 ;src/includes/world.h:60: break;
   0F73 18 1A         [12] 3375 	jr	00119$
                           3376 ;src/includes/world.h:61: case T_RNSE:
   0F75                    3377 00116$:
                           3378 ;src/includes/world.h:62: cpct_drawSprite(rail_ns_e, p_video, TILESIZE_W, TILESIZE_H);	
   0F75 11r69r06      [10] 3379 	ld	de,#_rail_ns_e
   0F78 21 04 10      [10] 3380 	ld	hl,#0x1004
   0F7B E5            [11] 3381 	push	hl
   0F7C C5            [11] 3382 	push	bc
   0F7D D5            [11] 3383 	push	de
   0F7E CDr00r00      [17] 3384 	call	_cpct_drawSprite
                           3385 ;src/includes/world.h:63: break;
   0F81 18 0C         [12] 3386 	jr	00119$
                           3387 ;src/includes/world.h:64: case T_RNSW:
   0F83                    3388 00117$:
                           3389 ;src/includes/world.h:65: cpct_drawSprite(rail_ns_w, p_video, TILESIZE_W, TILESIZE_H);
   0F83 11r29r06      [10] 3390 	ld	de,#_rail_ns_w
   0F86 21 04 10      [10] 3391 	ld	hl,#0x1004
   0F89 E5            [11] 3392 	push	hl
   0F8A C5            [11] 3393 	push	bc
   0F8B D5            [11] 3394 	push	de
   0F8C CDr00r00      [17] 3395 	call	_cpct_drawSprite
                           3396 ;src/includes/world.h:67: }
   0F8F                    3397 00119$:
   0F8F 33            [ 6] 3398 	inc	sp
   0F90 DD E1         [14] 3399 	pop	ix
   0F92 C9            [10] 3400 	ret
                           3401 ;src/includes/world.h:70: void patternTile(u8 tileType, int index, u8 nBitsX, u8 nBitsY, u8 *pattern)
                           3402 ;	---------------------------------
                           3403 ; Function patternTile
                           3404 ; ---------------------------------
   0F93                    3405 _patternTile::
   0F93 DD E5         [15] 3406 	push	ix
   0F95 DD 21 00 00   [14] 3407 	ld	ix,#0
   0F99 DD 39         [15] 3408 	add	ix,sp
   0F9B 21 F5 FF      [10] 3409 	ld	hl,#-11
   0F9E 39            [11] 3410 	add	hl,sp
   0F9F F9            [ 6] 3411 	ld	sp,hl
                           3412 ;src/includes/world.h:75: for(iy=0; iy<nBitsY; iy++)
   0FA0 DD 7E 04      [19] 3413 	ld	a,4 (ix)
   0FA3 D6 08         [ 7] 3414 	sub	a, #0x08
   0FA5 20 04         [12] 3415 	jr	NZ,00153$
   0FA7 3E 01         [ 7] 3416 	ld	a,#0x01
   0FA9 18 01         [12] 3417 	jr	00154$
   0FAB                    3418 00153$:
   0FAB AF            [ 4] 3419 	xor	a,a
   0FAC                    3420 00154$:
   0FAC DD 77 FA      [19] 3421 	ld	-6 (ix),a
   0FAF DD 7E 04      [19] 3422 	ld	a,4 (ix)
   0FB2 D6 02         [ 7] 3423 	sub	a, #0x02
   0FB4 20 04         [12] 3424 	jr	NZ,00155$
   0FB6 3E 01         [ 7] 3425 	ld	a,#0x01
   0FB8 18 01         [12] 3426 	jr	00156$
   0FBA                    3427 00155$:
   0FBA AF            [ 4] 3428 	xor	a,a
   0FBB                    3429 00156$:
   0FBB DD 77 F9      [19] 3430 	ld	-7 (ix),a
   0FBE DD 36 F6 00   [19] 3431 	ld	-10 (ix),#0x00
   0FC2 11 00 00      [10] 3432 	ld	de,#0x0000
   0FC5                    3433 00115$:
   0FC5 DD 7E F6      [19] 3434 	ld	a,-10 (ix)
   0FC8 DD 96 08      [19] 3435 	sub	a, 8 (ix)
   0FCB D2r8Br10      [10] 3436 	jp	NC,00117$
                           3437 ;src/includes/world.h:77: for(ix=0; ix<nBitsX; ix++)
   0FCE DD 7E 05      [19] 3438 	ld	a,5 (ix)
   0FD1 83            [ 4] 3439 	add	a, e
   0FD2 DD 77 F7      [19] 3440 	ld	-9 (ix),a
   0FD5 DD 7E 06      [19] 3441 	ld	a,6 (ix)
   0FD8 8A            [ 4] 3442 	adc	a, d
   0FD9 DD 77 F8      [19] 3443 	ld	-8 (ix),a
   0FDC D5            [11] 3444 	push	de
   0FDD DD 5E 07      [19] 3445 	ld	e,7 (ix)
   0FE0 DD 66 F6      [19] 3446 	ld	h,-10 (ix)
   0FE3 2E 00         [ 7] 3447 	ld	l, #0x00
   0FE5 55            [ 4] 3448 	ld	d, l
   0FE6 06 08         [ 7] 3449 	ld	b, #0x08
   0FE8                    3450 00157$:
   0FE8 29            [11] 3451 	add	hl,hl
   0FE9 30 01         [12] 3452 	jr	NC,00158$
   0FEB 19            [11] 3453 	add	hl,de
   0FEC                    3454 00158$:
   0FEC 10 FA         [13] 3455 	djnz	00157$
   0FEE D1            [10] 3456 	pop	de
   0FEF DD 75 FE      [19] 3457 	ld	-2 (ix),l
   0FF2 DD 74 FF      [19] 3458 	ld	-1 (ix),h
   0FF5 DD 36 F5 00   [19] 3459 	ld	-11 (ix),#0x00
   0FF9                    3460 00112$:
   0FF9 DD 7E F5      [19] 3461 	ld	a,-11 (ix)
   0FFC DD 96 07      [19] 3462 	sub	a, 7 (ix)
   0FFF D2r80r10      [10] 3463 	jp	NC,00116$
                           3464 ;src/includes/world.h:79: if(cpct_getBit (pattern, iy*nBitsX+ix)!=0 && index+iy*WIDTH+ix < WIDTH*HEIGHT)
   1002 DD 7E F5      [19] 3465 	ld	a,-11 (ix)
   1005 DD 77 FC      [19] 3466 	ld	-4 (ix),a
   1008 DD 36 FD 00   [19] 3467 	ld	-3 (ix),#0x00
   100C DD 7E FE      [19] 3468 	ld	a,-2 (ix)
   100F DD 86 FC      [19] 3469 	add	a, -4 (ix)
   1012 6F            [ 4] 3470 	ld	l,a
   1013 DD 7E FF      [19] 3471 	ld	a,-1 (ix)
   1016 DD 8E FD      [19] 3472 	adc	a, -3 (ix)
   1019 67            [ 4] 3473 	ld	h,a
   101A DD 4E 09      [19] 3474 	ld	c,9 (ix)
   101D DD 46 0A      [19] 3475 	ld	b,10 (ix)
   1020 D5            [11] 3476 	push	de
   1021 E5            [11] 3477 	push	hl
   1022 C5            [11] 3478 	push	bc
   1023 CDr00r00      [17] 3479 	call	_cpct_getBit
   1026 DD 75 FB      [19] 3480 	ld	-5 (ix),l
   1029 D1            [10] 3481 	pop	de
   102A DD 7E FB      [19] 3482 	ld	a,-5 (ix)
   102D B7            [ 4] 3483 	or	a, a
   102E 28 4A         [12] 3484 	jr	Z,00113$
   1030 DD 7E F7      [19] 3485 	ld	a,-9 (ix)
   1033 DD 86 FC      [19] 3486 	add	a, -4 (ix)
   1036 4F            [ 4] 3487 	ld	c,a
   1037 DD 7E F8      [19] 3488 	ld	a,-8 (ix)
   103A DD 8E FD      [19] 3489 	adc	a, -3 (ix)
   103D 47            [ 4] 3490 	ld	b,a
   103E EE 80         [ 7] 3491 	xor	a, #0x80
   1040 D6 8F         [ 7] 3492 	sub	a, #0x8F
   1042 30 36         [12] 3493 	jr	NC,00113$
                           3494 ;src/includes/world.h:82: p_world[index+iy*WIDTH+ix] = tileType;
   1044 21r00r00      [10] 3495 	ld	hl,#_p_world
   1047 09            [11] 3496 	add	hl,bc
   1048 4D            [ 4] 3497 	ld	c,l
   1049 44            [ 4] 3498 	ld	b,h
                           3499 ;src/includes/world.h:81: if(tileType == FOREST)
   104A DD 7E FA      [19] 3500 	ld	a,-6 (ix)
   104D B7            [ 4] 3501 	or	a, a
   104E 28 06         [12] 3502 	jr	Z,00104$
                           3503 ;src/includes/world.h:82: p_world[index+iy*WIDTH+ix] = tileType;
   1050 DD 7E 04      [19] 3504 	ld	a,4 (ix)
   1053 02            [ 7] 3505 	ld	(bc),a
   1054 18 24         [12] 3506 	jr	00113$
   1056                    3507 00104$:
                           3508 ;src/includes/world.h:83: else if(tileType==DWELLINGS1)
   1056 DD 7E F9      [19] 3509 	ld	a,-7 (ix)
   1059 B7            [ 4] 3510 	or	a, a
   105A 28 1E         [12] 3511 	jr	Z,00113$
                           3512 ;src/includes/world.h:84: p_world[index+iy*WIDTH+ix] = (u8)cpct_getRandomUniform_u8_f(cpct_count2VSYNC ()%256)%3+2;
   105C C5            [11] 3513 	push	bc
   105D D5            [11] 3514 	push	de
   105E CDr00r00      [17] 3515 	call	_cpct_count2VSYNC
   1061 CDr00r00      [17] 3516 	call	_cpct_getRandomUniform_u8_f
   1064 DD 75 FB      [19] 3517 	ld	-5 (ix),l
   1067 3E 03         [ 7] 3518 	ld	a,#0x03
   1069 F5            [11] 3519 	push	af
   106A 33            [ 6] 3520 	inc	sp
   106B DD 7E FB      [19] 3521 	ld	a,-5 (ix)
   106E F5            [11] 3522 	push	af
   106F 33            [ 6] 3523 	inc	sp
   1070 CDr00r00      [17] 3524 	call	__moduchar
   1073 F1            [10] 3525 	pop	af
   1074 7D            [ 4] 3526 	ld	a,l
   1075 D1            [10] 3527 	pop	de
   1076 C1            [10] 3528 	pop	bc
   1077 C6 02         [ 7] 3529 	add	a, #0x02
   1079 02            [ 7] 3530 	ld	(bc),a
   107A                    3531 00113$:
                           3532 ;src/includes/world.h:77: for(ix=0; ix<nBitsX; ix++)
   107A DD 34 F5      [23] 3533 	inc	-11 (ix)
   107D C3rF9r0F      [10] 3534 	jp	00112$
   1080                    3535 00116$:
                           3536 ;src/includes/world.h:75: for(iy=0; iy<nBitsY; iy++)
   1080 21 50 00      [10] 3537 	ld	hl,#0x0050
   1083 19            [11] 3538 	add	hl,de
   1084 EB            [ 4] 3539 	ex	de,hl
   1085 DD 34 F6      [23] 3540 	inc	-10 (ix)
   1088 C3rC5r0F      [10] 3541 	jp	00115$
   108B                    3542 00117$:
   108B DD F9         [10] 3543 	ld	sp, ix
   108D DD E1         [14] 3544 	pop	ix
   108F C9            [10] 3545 	ret
                           3546 ;src/includes/world.h:91: void generateWorld()
                           3547 ;	---------------------------------
                           3548 ; Function generateWorld
                           3549 ; ---------------------------------
   1090                    3550 _generateWorld::
   1090 DD E5         [15] 3551 	push	ix
   1092 DD 21 00 00   [14] 3552 	ld	ix,#0
   1096 DD 39         [15] 3553 	add	ix,sp
   1098 21 E0 FF      [10] 3554 	ld	hl,#-32
   109B 39            [11] 3555 	add	hl,sp
   109C F9            [ 6] 3556 	ld	sp,hl
                           3557 ;src/includes/world.h:101: cpct_setRandomSeedUniform_u8(0);
   109D 2E 00         [ 7] 3558 	ld	l,#0x00
   109F CDr00r00      [17] 3559 	call	_cpct_setRandomSeedUniform_u8
                           3560 ;src/includes/world.h:103: for(iy=0; iy<HEIGHT*WIDTH;iy++)
   10A2 01r00r00      [10] 3561 	ld	bc,#_p_world+0
   10A5 11 00 00      [10] 3562 	ld	de,#0x0000
   10A8                    3563 00128$:
                           3564 ;src/includes/world.h:105: p_world[iy] = cpct_getRandomUniform_u8_f(0)%2;
   10A8 69            [ 4] 3565 	ld	l, c
   10A9 60            [ 4] 3566 	ld	h, b
   10AA 19            [11] 3567 	add	hl,de
   10AB E5            [11] 3568 	push	hl
   10AC C5            [11] 3569 	push	bc
   10AD D5            [11] 3570 	push	de
   10AE 2E 00         [ 7] 3571 	ld	l,#0x00
   10B0 CDr00r00      [17] 3572 	call	_cpct_getRandomUniform_u8_f
   10B3 7D            [ 4] 3573 	ld	a,l
   10B4 D1            [10] 3574 	pop	de
   10B5 C1            [10] 3575 	pop	bc
   10B6 E1            [10] 3576 	pop	hl
   10B7 E6 01         [ 7] 3577 	and	a, #0x01
   10B9 77            [ 7] 3578 	ld	(hl),a
                           3579 ;src/includes/world.h:103: for(iy=0; iy<HEIGHT*WIDTH;iy++)
   10BA 13            [ 6] 3580 	inc	de
   10BB 7A            [ 4] 3581 	ld	a,d
   10BC EE 80         [ 7] 3582 	xor	a, #0x80
   10BE D6 8F         [ 7] 3583 	sub	a, #0x8F
   10C0 38 E6         [12] 3584 	jr	C,00128$
                           3585 ;src/includes/world.h:109: for(ix=0; ix<NBFOREST; ix++)
   10C2 21 02 00      [10] 3586 	ld	hl,#0x0002
   10C5 39            [11] 3587 	add	hl,sp
   10C6 EB            [ 4] 3588 	ex	de,hl
   10C7 21 00 00      [10] 3589 	ld	hl,#0x0000
   10CA E3            [19] 3590 	ex	(sp), hl
   10CB                    3591 00130$:
                           3592 ;src/includes/world.h:111: iy = cpct_getRandomUniform_u8_f((cpct_count2VSYNC ()+ix)%256)*15;
   10CB C5            [11] 3593 	push	bc
   10CC D5            [11] 3594 	push	de
   10CD CDr00r00      [17] 3595 	call	_cpct_count2VSYNC
   10D0 D1            [10] 3596 	pop	de
   10D1 C1            [10] 3597 	pop	bc
   10D2 DD 7E E0      [19] 3598 	ld	a,-32 (ix)
   10D5 DD 77 FA      [19] 3599 	ld	-6 (ix),a
   10D8 DD 7E E1      [19] 3600 	ld	a,-31 (ix)
   10DB DD 77 FB      [19] 3601 	ld	-5 (ix),a
   10DE 7D            [ 4] 3602 	ld	a,l
   10DF DD 86 FA      [19] 3603 	add	a, -6 (ix)
   10E2 6F            [ 4] 3604 	ld	l,a
   10E3 7C            [ 4] 3605 	ld	a,h
   10E4 DD 8E FB      [19] 3606 	adc	a, -5 (ix)
   10E7 C5            [11] 3607 	push	bc
   10E8 D5            [11] 3608 	push	de
   10E9 CDr00r00      [17] 3609 	call	_cpct_getRandomUniform_u8_f
   10EC D1            [10] 3610 	pop	de
   10ED C1            [10] 3611 	pop	bc
   10EE D5            [11] 3612 	push	de
   10EF 5D            [ 4] 3613 	ld	e,l
   10F0 16 00         [ 7] 3614 	ld	d,#0x00
   10F2 6B            [ 4] 3615 	ld	l, e
   10F3 62            [ 4] 3616 	ld	h, d
   10F4 29            [11] 3617 	add	hl, hl
   10F5 19            [11] 3618 	add	hl, de
   10F6 29            [11] 3619 	add	hl, hl
   10F7 19            [11] 3620 	add	hl, de
   10F8 29            [11] 3621 	add	hl, hl
   10F9 19            [11] 3622 	add	hl, de
   10FA D1            [10] 3623 	pop	de
   10FB DD 75 FC      [19] 3624 	ld	-4 (ix),l
   10FE DD 74 FD      [19] 3625 	ld	-3 (ix),h
                           3626 ;src/includes/world.h:113: switch(cpct_getRandomUniform_u8_f((cpct_count2VSYNC ()+ix)%256)%4)
   1101 C5            [11] 3627 	push	bc
   1102 D5            [11] 3628 	push	de
   1103 CDr00r00      [17] 3629 	call	_cpct_count2VSYNC
   1106 D1            [10] 3630 	pop	de
   1107 C1            [10] 3631 	pop	bc
   1108 DD 7E FA      [19] 3632 	ld	a,-6 (ix)
   110B 85            [ 4] 3633 	add	a, l
   110C 6F            [ 4] 3634 	ld	l,a
   110D DD 7E FB      [19] 3635 	ld	a,-5 (ix)
   1110 8C            [ 4] 3636 	adc	a, h
   1111 C5            [11] 3637 	push	bc
   1112 D5            [11] 3638 	push	de
   1113 CDr00r00      [17] 3639 	call	_cpct_getRandomUniform_u8_f
   1116 7D            [ 4] 3640 	ld	a,l
   1117 D1            [10] 3641 	pop	de
   1118 C1            [10] 3642 	pop	bc
   1119 E6 03         [ 7] 3643 	and	a, #0x03
   111B DD 77 FA      [19] 3644 	ld	-6 (ix),a
   111E 3E 03         [ 7] 3645 	ld	a,#0x03
   1120 DD 96 FA      [19] 3646 	sub	a, -6 (ix)
   1123 DAr65r12      [10] 3647 	jp	C,00106$
                           3648 ;src/includes/world.h:117: p_forest[1] = 0b11000111;
   1126 21 01 00      [10] 3649 	ld	hl,#0x0001
   1129 19            [11] 3650 	add	hl,de
   112A DD 75 F8      [19] 3651 	ld	-8 (ix),l
   112D DD 74 F9      [19] 3652 	ld	-7 (ix),h
                           3653 ;src/includes/world.h:118: p_forest[2] = 0b11011110;
   1130 21 02 00      [10] 3654 	ld	hl,#0x0002
   1133 19            [11] 3655 	add	hl,de
   1134 DD 75 FE      [19] 3656 	ld	-2 (ix),l
   1137 DD 74 FF      [19] 3657 	ld	-1 (ix),h
                           3658 ;src/includes/world.h:119: p_forest[3] = 0b01111110;
   113A 21 03 00      [10] 3659 	ld	hl,#0x0003
   113D 19            [11] 3660 	add	hl,de
   113E DD 75 F0      [19] 3661 	ld	-16 (ix),l
   1141 DD 74 F1      [19] 3662 	ld	-15 (ix),h
                           3663 ;src/includes/world.h:120: p_forest[4] = 0b11111110; 
   1144 21 04 00      [10] 3664 	ld	hl,#0x0004
   1147 19            [11] 3665 	add	hl,de
   1148 DD 75 F2      [19] 3666 	ld	-14 (ix),l
   114B DD 74 F3      [19] 3667 	ld	-13 (ix),h
                           3668 ;src/includes/world.h:121: p_forest[5] = 0b01111111;
   114E 21 05 00      [10] 3669 	ld	hl,#0x0005
   1151 19            [11] 3670 	add	hl,de
   1152 DD 75 F4      [19] 3671 	ld	-12 (ix),l
   1155 DD 74 F5      [19] 3672 	ld	-11 (ix),h
                           3673 ;src/includes/world.h:122: p_forest[6] = 0b11101111;
   1158 21 06 00      [10] 3674 	ld	hl,#0x0006
   115B 19            [11] 3675 	add	hl,de
   115C DD 75 F6      [19] 3676 	ld	-10 (ix),l
   115F DD 74 F7      [19] 3677 	ld	-9 (ix),h
                           3678 ;src/includes/world.h:123: p_forest[7] = 0b11001111;
   1162 FD 21 07 00   [14] 3679 	ld	iy,#0x0007
   1166 FD 19         [15] 3680 	add	iy, de
                           3681 ;src/includes/world.h:113: switch(cpct_getRandomUniform_u8_f((cpct_count2VSYNC ()+ix)%256)%4)
   1168 D5            [11] 3682 	push	de
   1169 DD 5E FA      [19] 3683 	ld	e,-6 (ix)
   116C 16 00         [ 7] 3684 	ld	d,#0x00
   116E 21r76r11      [10] 3685 	ld	hl,#00224$
   1171 19            [11] 3686 	add	hl,de
   1172 19            [11] 3687 	add	hl,de
   1173 19            [11] 3688 	add	hl,de
   1174 D1            [10] 3689 	pop	de
   1175 E9            [ 4] 3690 	jp	(hl)
   1176                    3691 00224$:
   1176 C3r82r11      [10] 3692 	jp	00102$
   1179 C3rBCr11      [10] 3693 	jp	00103$
   117C C3rF5r11      [10] 3694 	jp	00104$
   117F C3r2Er12      [10] 3695 	jp	00105$
                           3696 ;src/includes/world.h:115: case 0:
   1182                    3697 00102$:
                           3698 ;src/includes/world.h:116: p_forest[0] = 0b10000100;
   1182 3E 84         [ 7] 3699 	ld	a,#0x84
   1184 12            [ 7] 3700 	ld	(de),a
                           3701 ;src/includes/world.h:117: p_forest[1] = 0b11000111;
   1185 DD 6E F8      [19] 3702 	ld	l,-8 (ix)
   1188 DD 66 F9      [19] 3703 	ld	h,-7 (ix)
   118B 36 C7         [10] 3704 	ld	(hl),#0xC7
                           3705 ;src/includes/world.h:118: p_forest[2] = 0b11011110;
   118D DD 6E FE      [19] 3706 	ld	l,-2 (ix)
   1190 DD 66 FF      [19] 3707 	ld	h,-1 (ix)
   1193 36 DE         [10] 3708 	ld	(hl),#0xDE
                           3709 ;src/includes/world.h:119: p_forest[3] = 0b01111110;
   1195 DD 6E F0      [19] 3710 	ld	l,-16 (ix)
   1198 DD 66 F1      [19] 3711 	ld	h,-15 (ix)
   119B 36 7E         [10] 3712 	ld	(hl),#0x7E
                           3713 ;src/includes/world.h:120: p_forest[4] = 0b11111110; 
   119D DD 6E F2      [19] 3714 	ld	l,-14 (ix)
   11A0 DD 66 F3      [19] 3715 	ld	h,-13 (ix)
   11A3 36 FE         [10] 3716 	ld	(hl),#0xFE
                           3717 ;src/includes/world.h:121: p_forest[5] = 0b01111111;
   11A5 DD 6E F4      [19] 3718 	ld	l,-12 (ix)
   11A8 DD 66 F5      [19] 3719 	ld	h,-11 (ix)
   11AB 36 7F         [10] 3720 	ld	(hl),#0x7F
                           3721 ;src/includes/world.h:122: p_forest[6] = 0b11101111;
   11AD DD 6E F6      [19] 3722 	ld	l,-10 (ix)
   11B0 DD 66 F7      [19] 3723 	ld	h,-9 (ix)
   11B3 36 EF         [10] 3724 	ld	(hl),#0xEF
                           3725 ;src/includes/world.h:123: p_forest[7] = 0b11001111;
   11B5 FD 36 00 CF   [19] 3726 	ld	0 (iy), #0xCF
                           3727 ;src/includes/world.h:124: break;
   11B9 C3r65r12      [10] 3728 	jp	00106$
                           3729 ;src/includes/world.h:125: case 1:
   11BC                    3730 00103$:
                           3731 ;src/includes/world.h:126: p_forest[0] = 0b00001100;
   11BC 3E 0C         [ 7] 3732 	ld	a,#0x0C
   11BE 12            [ 7] 3733 	ld	(de),a
                           3734 ;src/includes/world.h:127: p_forest[1] = 0b11111000;
   11BF DD 6E F8      [19] 3735 	ld	l,-8 (ix)
   11C2 DD 66 F9      [19] 3736 	ld	h,-7 (ix)
   11C5 36 F8         [10] 3737 	ld	(hl),#0xF8
                           3738 ;src/includes/world.h:128: p_forest[2] = 0b00111111;
   11C7 DD 6E FE      [19] 3739 	ld	l,-2 (ix)
   11CA DD 66 FF      [19] 3740 	ld	h,-1 (ix)
   11CD 36 3F         [10] 3741 	ld	(hl),#0x3F
                           3742 ;src/includes/world.h:129: p_forest[3] = 0b01111110;
   11CF DD 6E F0      [19] 3743 	ld	l,-16 (ix)
   11D2 DD 66 F1      [19] 3744 	ld	h,-15 (ix)
   11D5 36 7E         [10] 3745 	ld	(hl),#0x7E
                           3746 ;src/includes/world.h:130: p_forest[4] = 0b11111110; 
   11D7 DD 6E F2      [19] 3747 	ld	l,-14 (ix)
   11DA DD 66 F3      [19] 3748 	ld	h,-13 (ix)
   11DD 36 FE         [10] 3749 	ld	(hl),#0xFE
                           3750 ;src/includes/world.h:131: p_forest[5] = 0b01011111;
   11DF DD 6E F4      [19] 3751 	ld	l,-12 (ix)
   11E2 DD 66 F5      [19] 3752 	ld	h,-11 (ix)
   11E5 36 5F         [10] 3753 	ld	(hl),#0x5F
                           3754 ;src/includes/world.h:132: p_forest[6] = 0b11001111;
   11E7 DD 6E F6      [19] 3755 	ld	l,-10 (ix)
   11EA DD 66 F7      [19] 3756 	ld	h,-9 (ix)
   11ED 36 CF         [10] 3757 	ld	(hl),#0xCF
                           3758 ;src/includes/world.h:133: p_forest[7] = 0b10001100;
   11EF FD 36 00 8C   [19] 3759 	ld	0 (iy), #0x8C
                           3760 ;src/includes/world.h:134: break;
   11F3 18 70         [12] 3761 	jr	00106$
                           3762 ;src/includes/world.h:135: case 2:
   11F5                    3763 00104$:
                           3764 ;src/includes/world.h:136: p_forest[0] = 0b00110000;
   11F5 3E 30         [ 7] 3765 	ld	a,#0x30
   11F7 12            [ 7] 3766 	ld	(de),a
                           3767 ;src/includes/world.h:137: p_forest[1] = 0b11110100;
   11F8 DD 6E F8      [19] 3768 	ld	l,-8 (ix)
   11FB DD 66 F9      [19] 3769 	ld	h,-7 (ix)
   11FE 36 F4         [10] 3770 	ld	(hl),#0xF4
                           3771 ;src/includes/world.h:138: p_forest[2] = 0b11111111;
   1200 DD 6E FE      [19] 3772 	ld	l,-2 (ix)
   1203 DD 66 FF      [19] 3773 	ld	h,-1 (ix)
   1206 36 FF         [10] 3774 	ld	(hl),#0xFF
                           3775 ;src/includes/world.h:139: p_forest[3] = 0b11111111;
   1208 DD 6E F0      [19] 3776 	ld	l,-16 (ix)
   120B DD 66 F1      [19] 3777 	ld	h,-15 (ix)
   120E 36 FF         [10] 3778 	ld	(hl),#0xFF
                           3779 ;src/includes/world.h:140: p_forest[4] = 0b01111100;
   1210 DD 6E F2      [19] 3780 	ld	l,-14 (ix)
   1213 DD 66 F3      [19] 3781 	ld	h,-13 (ix)
   1216 36 7C         [10] 3782 	ld	(hl),#0x7C
                           3783 ;src/includes/world.h:141: p_forest[5] = 0b01111110;
   1218 DD 6E F4      [19] 3784 	ld	l,-12 (ix)
   121B DD 66 F5      [19] 3785 	ld	h,-11 (ix)
   121E 36 7E         [10] 3786 	ld	(hl),#0x7E
                           3787 ;src/includes/world.h:142: p_forest[6] = 0b00111110;
   1220 DD 6E F6      [19] 3788 	ld	l,-10 (ix)
   1223 DD 66 F7      [19] 3789 	ld	h,-9 (ix)
   1226 36 3E         [10] 3790 	ld	(hl),#0x3E
                           3791 ;src/includes/world.h:143: p_forest[7] = 0b00011000;
   1228 FD 36 00 18   [19] 3792 	ld	0 (iy), #0x18
                           3793 ;src/includes/world.h:144: break;
   122C 18 37         [12] 3794 	jr	00106$
                           3795 ;src/includes/world.h:145: case 3:
   122E                    3796 00105$:
                           3797 ;src/includes/world.h:146: p_forest[0] = 0b11000000 , 
   122E 3E C0         [ 7] 3798 	ld	a,#0xC0
   1230 12            [ 7] 3799 	ld	(de),a
                           3800 ;src/includes/world.h:147: p_forest[1] = 0b11100111;
   1231 DD 6E F8      [19] 3801 	ld	l,-8 (ix)
   1234 DD 66 F9      [19] 3802 	ld	h,-7 (ix)
   1237 36 E7         [10] 3803 	ld	(hl),#0xE7
                           3804 ;src/includes/world.h:148: p_forest[2] = 0b01111110;
   1239 DD 6E FE      [19] 3805 	ld	l,-2 (ix)
   123C DD 66 FF      [19] 3806 	ld	h,-1 (ix)
   123F 36 7E         [10] 3807 	ld	(hl),#0x7E
                           3808 ;src/includes/world.h:149: p_forest[3] = 0b01111110;
   1241 DD 6E F0      [19] 3809 	ld	l,-16 (ix)
   1244 DD 66 F1      [19] 3810 	ld	h,-15 (ix)
   1247 36 7E         [10] 3811 	ld	(hl),#0x7E
                           3812 ;src/includes/world.h:150: p_forest[4] = 0b11111110;
   1249 DD 6E F2      [19] 3813 	ld	l,-14 (ix)
   124C DD 66 F3      [19] 3814 	ld	h,-13 (ix)
   124F 36 FE         [10] 3815 	ld	(hl),#0xFE
                           3816 ;src/includes/world.h:151: p_forest[5] = 0b11111100;
   1251 DD 6E F4      [19] 3817 	ld	l,-12 (ix)
   1254 DD 66 F5      [19] 3818 	ld	h,-11 (ix)
   1257 36 FC         [10] 3819 	ld	(hl),#0xFC
                           3820 ;src/includes/world.h:152: p_forest[6] = 0b01111000;
   1259 DD 6E F6      [19] 3821 	ld	l,-10 (ix)
   125C DD 66 F7      [19] 3822 	ld	h,-9 (ix)
   125F 36 78         [10] 3823 	ld	(hl),#0x78
                           3824 ;src/includes/world.h:153: p_forest[7] = 0b00110000;
   1261 FD 36 00 30   [19] 3825 	ld	0 (iy), #0x30
                           3826 ;src/includes/world.h:155: }
   1265                    3827 00106$:
                           3828 ;src/includes/world.h:156: patternTile(FOREST, iy, 8, 8, p_forest);
   1265 6B            [ 4] 3829 	ld	l, e
   1266 62            [ 4] 3830 	ld	h, d
   1267 C5            [11] 3831 	push	bc
   1268 D5            [11] 3832 	push	de
   1269 E5            [11] 3833 	push	hl
   126A 21 08 08      [10] 3834 	ld	hl,#0x0808
   126D E5            [11] 3835 	push	hl
   126E DD 6E FC      [19] 3836 	ld	l,-4 (ix)
   1271 DD 66 FD      [19] 3837 	ld	h,-3 (ix)
   1274 E5            [11] 3838 	push	hl
   1275 3E 08         [ 7] 3839 	ld	a,#0x08
   1277 F5            [11] 3840 	push	af
   1278 33            [ 6] 3841 	inc	sp
   1279 CDr93r0F      [17] 3842 	call	_patternTile
   127C 21 07 00      [10] 3843 	ld	hl,#7
   127F 39            [11] 3844 	add	hl,sp
   1280 F9            [ 6] 3845 	ld	sp,hl
   1281 D1            [10] 3846 	pop	de
   1282 C1            [10] 3847 	pop	bc
                           3848 ;src/includes/world.h:109: for(ix=0; ix<NBFOREST; ix++)
   1283 DD 34 E0      [23] 3849 	inc	-32 (ix)
   1286 20 03         [12] 3850 	jr	NZ,00225$
   1288 DD 34 E1      [23] 3851 	inc	-31 (ix)
   128B                    3852 00225$:
   128B DD 7E E0      [19] 3853 	ld	a,-32 (ix)
   128E D6 32         [ 7] 3854 	sub	a, #0x32
   1290 DD 7E E1      [19] 3855 	ld	a,-31 (ix)
   1293 17            [ 4] 3856 	rla
   1294 3F            [ 4] 3857 	ccf
   1295 1F            [ 4] 3858 	rra
   1296 DE 80         [ 7] 3859 	sbc	a, #0x80
   1298 DArCBr10      [10] 3860 	jp	C,00130$
                           3861 ;src/includes/world.h:161: cpct_setRandomSeedUniform_u8(1);
   129B C5            [11] 3862 	push	bc
   129C 2E 01         [ 7] 3863 	ld	l,#0x01
   129E CDr00r00      [17] 3864 	call	_cpct_setRandomSeedUniform_u8
   12A1 C1            [10] 3865 	pop	bc
                           3866 ;src/includes/world.h:163: for(ix=0; ix<NBFARM; ix++)
   12A2 21 00 00      [10] 3867 	ld	hl,#0x0000
   12A5 E3            [19] 3868 	ex	(sp), hl
   12A6                    3869 00132$:
                           3870 ;src/includes/world.h:165: iy = cpct_getRandomUniform_u8_f(cpct_count2VSYNC ()%256)*15; // (WIDTH*HEIGHT)/255;
   12A6 C5            [11] 3871 	push	bc
   12A7 CDr00r00      [17] 3872 	call	_cpct_count2VSYNC
   12AA CDr00r00      [17] 3873 	call	_cpct_getRandomUniform_u8_f
   12AD C1            [10] 3874 	pop	bc
   12AE 5D            [ 4] 3875 	ld	e,l
   12AF 16 00         [ 7] 3876 	ld	d,#0x00
   12B1 6B            [ 4] 3877 	ld	l, e
   12B2 62            [ 4] 3878 	ld	h, d
   12B3 29            [11] 3879 	add	hl, hl
   12B4 19            [11] 3880 	add	hl, de
   12B5 29            [11] 3881 	add	hl, hl
   12B6 19            [11] 3882 	add	hl, de
   12B7 29            [11] 3883 	add	hl, hl
   12B8 19            [11] 3884 	add	hl, de
   12B9 DD 75 F6      [19] 3885 	ld	-10 (ix),l
   12BC DD 74 F7      [19] 3886 	ld	-9 (ix),h
                           3887 ;src/includes/world.h:167: shift = cpct_getRandomUniform_u8_f(cpct_count2VSYNC ()%256)%10;
   12BF C5            [11] 3888 	push	bc
   12C0 CDr00r00      [17] 3889 	call	_cpct_count2VSYNC
   12C3 CDr00r00      [17] 3890 	call	_cpct_getRandomUniform_u8_f
   12C6 55            [ 4] 3891 	ld	d,l
   12C7 3E 0A         [ 7] 3892 	ld	a,#0x0A
   12C9 F5            [11] 3893 	push	af
   12CA 33            [ 6] 3894 	inc	sp
   12CB D5            [11] 3895 	push	de
   12CC 33            [ 6] 3896 	inc	sp
   12CD CDr00r00      [17] 3897 	call	__moduchar
   12D0 F1            [10] 3898 	pop	af
   12D1 C1            [10] 3899 	pop	bc
   12D2 26 00         [ 7] 3900 	ld	h,#0x00
                           3901 ;src/includes/world.h:168: shift=iy-shift+5;
   12D4 DD 7E F6      [19] 3902 	ld	a,-10 (ix)
   12D7 95            [ 4] 3903 	sub	a, l
   12D8 5F            [ 4] 3904 	ld	e,a
   12D9 DD 7E F7      [19] 3905 	ld	a,-9 (ix)
   12DC 9C            [ 4] 3906 	sbc	a, h
   12DD 57            [ 4] 3907 	ld	d,a
   12DE 21 05 00      [10] 3908 	ld	hl,#0x0005
   12E1 19            [11] 3909 	add	hl,de
   12E2 54            [ 4] 3910 	ld	d,h
                           3911 ;src/includes/world.h:170: if(shift>0 && shift<WIDTH*HEIGHT)
   12E3 AF            [ 4] 3912 	xor	a, a
   12E4 BD            [ 4] 3913 	cp	a, l
   12E5 9A            [ 4] 3914 	sbc	a, d
   12E6 E2rEBr12      [10] 3915 	jp	PO, 00226$
   12E9 EE 80         [ 7] 3916 	xor	a, #0x80
   12EB                    3917 00226$:
   12EB F2r07r13      [10] 3918 	jp	P,00133$
   12EE 7A            [ 4] 3919 	ld	a,d
   12EF EE 80         [ 7] 3920 	xor	a, #0x80
   12F1 D6 8F         [ 7] 3921 	sub	a, #0x8F
   12F3 30 12         [12] 3922 	jr	NC,00133$
                           3923 ;src/includes/world.h:171: p_world[shift] = (u8)cpct_getRandomUniform_u8_f(cpct_count2VSYNC ()%256)%2+5;
   12F5 62            [ 4] 3924 	ld	h, d
   12F6 09            [11] 3925 	add	hl,bc
   12F7 E5            [11] 3926 	push	hl
   12F8 C5            [11] 3927 	push	bc
   12F9 CDr00r00      [17] 3928 	call	_cpct_count2VSYNC
   12FC CDr00r00      [17] 3929 	call	_cpct_getRandomUniform_u8_f
   12FF 7D            [ 4] 3930 	ld	a,l
   1300 C1            [10] 3931 	pop	bc
   1301 E1            [10] 3932 	pop	hl
   1302 E6 01         [ 7] 3933 	and	a, #0x01
   1304 C6 05         [ 7] 3934 	add	a, #0x05
   1306 77            [ 7] 3935 	ld	(hl),a
   1307                    3936 00133$:
                           3937 ;src/includes/world.h:163: for(ix=0; ix<NBFARM; ix++)
   1307 DD 34 E0      [23] 3938 	inc	-32 (ix)
   130A 20 03         [12] 3939 	jr	NZ,00227$
   130C DD 34 E1      [23] 3940 	inc	-31 (ix)
   130F                    3941 00227$:
   130F DD 7E E0      [19] 3942 	ld	a,-32 (ix)
   1312 D6 3C         [ 7] 3943 	sub	a, #0x3C
   1314 DD 7E E1      [19] 3944 	ld	a,-31 (ix)
   1317 17            [ 4] 3945 	rla
   1318 3F            [ 4] 3946 	ccf
   1319 1F            [ 4] 3947 	rra
   131A DE 80         [ 7] 3948 	sbc	a, #0x80
   131C 38 88         [12] 3949 	jr	C,00132$
                           3950 ;src/includes/world.h:176: cpct_setRandomSeedUniform_u8(2);
   131E C5            [11] 3951 	push	bc
   131F 2E 02         [ 7] 3952 	ld	l,#0x02
   1321 CDr00r00      [17] 3953 	call	_cpct_setRandomSeedUniform_u8
   1324 C1            [10] 3954 	pop	bc
                           3955 ;src/includes/world.h:178: for(ix=0; ix<NBURBAN; ix++)
   1325 21 00 00      [10] 3956 	ld	hl,#0x0000
   1328 E3            [19] 3957 	ex	(sp), hl
   1329                    3958 00134$:
                           3959 ;src/includes/world.h:180: iy = cpct_getRandomUniform_u8_f(0)*15; // (WIDTH*HEIGHT)/255;
   1329 C5            [11] 3960 	push	bc
   132A 2E 00         [ 7] 3961 	ld	l,#0x00
   132C CDr00r00      [17] 3962 	call	_cpct_getRandomUniform_u8_f
   132F C1            [10] 3963 	pop	bc
   1330 5D            [ 4] 3964 	ld	e,l
   1331 16 00         [ 7] 3965 	ld	d,#0x00
   1333 6B            [ 4] 3966 	ld	l, e
   1334 62            [ 4] 3967 	ld	h, d
   1335 29            [11] 3968 	add	hl, hl
   1336 19            [11] 3969 	add	hl, de
   1337 29            [11] 3970 	add	hl, hl
   1338 19            [11] 3971 	add	hl, de
   1339 29            [11] 3972 	add	hl, hl
   133A 19            [11] 3973 	add	hl, de
   133B DD 75 F6      [19] 3974 	ld	-10 (ix),l
   133E DD 74 F7      [19] 3975 	ld	-9 (ix),h
                           3976 ;src/includes/world.h:182: shift = cpct_getRandomUniform_u8_f(0)%10;
   1341 C5            [11] 3977 	push	bc
   1342 2E 00         [ 7] 3978 	ld	l,#0x00
   1344 CDr00r00      [17] 3979 	call	_cpct_getRandomUniform_u8_f
   1347 55            [ 4] 3980 	ld	d,l
   1348 3E 0A         [ 7] 3981 	ld	a,#0x0A
   134A F5            [11] 3982 	push	af
   134B 33            [ 6] 3983 	inc	sp
   134C D5            [11] 3984 	push	de
   134D 33            [ 6] 3985 	inc	sp
   134E CDr00r00      [17] 3986 	call	__moduchar
   1351 F1            [10] 3987 	pop	af
   1352 C1            [10] 3988 	pop	bc
   1353 26 00         [ 7] 3989 	ld	h,#0x00
                           3990 ;src/includes/world.h:183: shift=iy-shift+5;
   1355 DD 7E F6      [19] 3991 	ld	a,-10 (ix)
   1358 95            [ 4] 3992 	sub	a, l
   1359 5F            [ 4] 3993 	ld	e,a
   135A DD 7E F7      [19] 3994 	ld	a,-9 (ix)
   135D 9C            [ 4] 3995 	sbc	a, h
   135E 57            [ 4] 3996 	ld	d,a
   135F 21 05 00      [10] 3997 	ld	hl,#0x0005
   1362 19            [11] 3998 	add	hl,de
   1363 DD 75 EA      [19] 3999 	ld	-22 (ix),l
   1366 DD 74 EB      [19] 4000 	ld	-21 (ix),h
                           4001 ;src/includes/world.h:185: if(shift>0 && shift<WIDTH*HEIGHT)
   1369 AF            [ 4] 4002 	xor	a, a
   136A DD BE EA      [19] 4003 	cp	a, -22 (ix)
   136D DD 9E EB      [19] 4004 	sbc	a, -21 (ix)
   1370 E2r75r13      [10] 4005 	jp	PO, 00228$
   1373 EE 80         [ 7] 4006 	xor	a, #0x80
   1375                    4007 00228$:
   1375 F2rABr13      [10] 4008 	jp	P,00135$
   1378 DD 7E EB      [19] 4009 	ld	a,-21 (ix)
   137B EE 80         [ 7] 4010 	xor	a, #0x80
   137D D6 8F         [ 7] 4011 	sub	a, #0x8F
   137F 30 2A         [12] 4012 	jr	NC,00135$
                           4013 ;src/includes/world.h:186: p_world[shift] = (u8)cpct_getRandomUniform_u8_f(0)%3+2;
   1381 79            [ 4] 4014 	ld	a,c
   1382 DD 86 EA      [19] 4015 	add	a, -22 (ix)
   1385 DD 77 F6      [19] 4016 	ld	-10 (ix),a
   1388 78            [ 4] 4017 	ld	a,b
   1389 DD 8E EB      [19] 4018 	adc	a, -21 (ix)
   138C DD 77 F7      [19] 4019 	ld	-9 (ix),a
   138F C5            [11] 4020 	push	bc
   1390 2E 00         [ 7] 4021 	ld	l,#0x00
   1392 CDr00r00      [17] 4022 	call	_cpct_getRandomUniform_u8_f
   1395 55            [ 4] 4023 	ld	d,l
   1396 3E 03         [ 7] 4024 	ld	a,#0x03
   1398 F5            [11] 4025 	push	af
   1399 33            [ 6] 4026 	inc	sp
   139A D5            [11] 4027 	push	de
   139B 33            [ 6] 4028 	inc	sp
   139C CDr00r00      [17] 4029 	call	__moduchar
   139F F1            [10] 4030 	pop	af
   13A0 7D            [ 4] 4031 	ld	a,l
   13A1 C1            [10] 4032 	pop	bc
   13A2 C6 02         [ 7] 4033 	add	a, #0x02
   13A4 DD 6E F6      [19] 4034 	ld	l,-10 (ix)
   13A7 DD 66 F7      [19] 4035 	ld	h,-9 (ix)
   13AA 77            [ 7] 4036 	ld	(hl),a
   13AB                    4037 00135$:
                           4038 ;src/includes/world.h:178: for(ix=0; ix<NBURBAN; ix++)
   13AB DD 34 E0      [23] 4039 	inc	-32 (ix)
   13AE 20 03         [12] 4040 	jr	NZ,00229$
   13B0 DD 34 E1      [23] 4041 	inc	-31 (ix)
   13B3                    4042 00229$:
   13B3 DD 7E E0      [19] 4043 	ld	a,-32 (ix)
   13B6 D6 14         [ 7] 4044 	sub	a, #0x14
   13B8 DD 7E E1      [19] 4045 	ld	a,-31 (ix)
   13BB 17            [ 4] 4046 	rla
   13BC 3F            [ 4] 4047 	ccf
   13BD 1F            [ 4] 4048 	rra
   13BE DE 80         [ 7] 4049 	sbc	a, #0x80
   13C0 DAr29r13      [10] 4050 	jp	C,00134$
                           4051 ;src/includes/world.h:189: cpct_setRandomSeedUniform_u8(3);
   13C3 C5            [11] 4052 	push	bc
   13C4 2E 03         [ 7] 4053 	ld	l,#0x03
   13C6 CDr00r00      [17] 4054 	call	_cpct_setRandomSeedUniform_u8
   13C9 C1            [10] 4055 	pop	bc
                           4056 ;src/includes/world.h:190: for(ix=0; ix<NBURBAN; ix++)
   13CA 21 0C 00      [10] 4057 	ld	hl,#0x000C
   13CD 39            [11] 4058 	add	hl,sp
   13CE DD 75 F6      [19] 4059 	ld	-10 (ix),l
   13D1 DD 74 F7      [19] 4060 	ld	-9 (ix),h
   13D4 21 00 00      [10] 4061 	ld	hl,#0x0000
   13D7 E3            [19] 4062 	ex	(sp), hl
   13D8                    4063 00136$:
                           4064 ;src/includes/world.h:192: iy = cpct_getRandomUniform_u8_f((cpct_count2VSYNC ()+ix)%256)*15; // (WIDTH*HEIGHT)/255;
   13D8 C5            [11] 4065 	push	bc
   13D9 CDr00r00      [17] 4066 	call	_cpct_count2VSYNC
   13DC C1            [10] 4067 	pop	bc
   13DD DD 7E E0      [19] 4068 	ld	a,-32 (ix)
   13E0 DD 77 F4      [19] 4069 	ld	-12 (ix),a
   13E3 DD 7E E1      [19] 4070 	ld	a,-31 (ix)
   13E6 DD 77 F5      [19] 4071 	ld	-11 (ix),a
   13E9 DD 5E F4      [19] 4072 	ld	e,-12 (ix)
   13EC DD 56 F5      [19] 4073 	ld	d,-11 (ix)
   13EF 19            [11] 4074 	add	hl,de
   13F0 C5            [11] 4075 	push	bc
   13F1 CDr00r00      [17] 4076 	call	_cpct_getRandomUniform_u8_f
   13F4 C1            [10] 4077 	pop	bc
   13F5 5D            [ 4] 4078 	ld	e,l
   13F6 16 00         [ 7] 4079 	ld	d,#0x00
   13F8 6B            [ 4] 4080 	ld	l, e
   13F9 62            [ 4] 4081 	ld	h, d
   13FA 29            [11] 4082 	add	hl, hl
   13FB 19            [11] 4083 	add	hl, de
   13FC 29            [11] 4084 	add	hl, hl
   13FD 19            [11] 4085 	add	hl, de
   13FE 29            [11] 4086 	add	hl, hl
   13FF 19            [11] 4087 	add	hl, de
   1400 DD 75 EE      [19] 4088 	ld	-18 (ix),l
   1403 DD 74 EF      [19] 4089 	ld	-17 (ix),h
                           4090 ;src/includes/world.h:193: shift = cpct_getRandomUniform_u8_f((cpct_count2VSYNC ()-shift)%256)%10;
   1406 C5            [11] 4091 	push	bc
   1407 CDr00r00      [17] 4092 	call	_cpct_count2VSYNC
   140A C1            [10] 4093 	pop	bc
   140B DD 5E EA      [19] 4094 	ld	e,-22 (ix)
   140E DD 56 EB      [19] 4095 	ld	d,-21 (ix)
   1411 BF            [ 4] 4096 	cp	a, a
   1412 ED 52         [15] 4097 	sbc	hl, de
   1414 C5            [11] 4098 	push	bc
   1415 CDr00r00      [17] 4099 	call	_cpct_getRandomUniform_u8_f
   1418 55            [ 4] 4100 	ld	d,l
   1419 3E 0A         [ 7] 4101 	ld	a,#0x0A
   141B F5            [11] 4102 	push	af
   141C 33            [ 6] 4103 	inc	sp
   141D D5            [11] 4104 	push	de
   141E 33            [ 6] 4105 	inc	sp
   141F CDr00r00      [17] 4106 	call	__moduchar
   1422 F1            [10] 4107 	pop	af
   1423 C1            [10] 4108 	pop	bc
   1424 DD 75 EA      [19] 4109 	ld	-22 (ix),l
   1427 DD 36 EB 00   [19] 4110 	ld	-21 (ix),#0x00
                           4111 ;src/includes/world.h:194: iy-=shift+5;
   142B DD 7E EA      [19] 4112 	ld	a,-22 (ix)
   142E C6 05         [ 7] 4113 	add	a, #0x05
   1430 67            [ 4] 4114 	ld	h,a
   1431 DD 7E EB      [19] 4115 	ld	a,-21 (ix)
   1434 CE 00         [ 7] 4116 	adc	a, #0x00
   1436 6F            [ 4] 4117 	ld	l,a
   1437 DD 7E EE      [19] 4118 	ld	a,-18 (ix)
   143A 94            [ 4] 4119 	sub	a, h
   143B DD 77 F2      [19] 4120 	ld	-14 (ix),a
   143E DD 7E EF      [19] 4121 	ld	a,-17 (ix)
   1441 9D            [ 4] 4122 	sbc	a, l
   1442 DD 77 F3      [19] 4123 	ld	-13 (ix),a
                           4124 ;src/includes/world.h:196: switch(cpct_getRandomUniform_u8_f((cpct_count2VSYNC ()+ix)%256)%6)
   1445 C5            [11] 4125 	push	bc
   1446 CDr00r00      [17] 4126 	call	_cpct_count2VSYNC
   1449 C1            [10] 4127 	pop	bc
   144A DD 5E F4      [19] 4128 	ld	e,-12 (ix)
   144D DD 56 F5      [19] 4129 	ld	d,-11 (ix)
   1450 19            [11] 4130 	add	hl,de
   1451 C5            [11] 4131 	push	bc
   1452 CDr00r00      [17] 4132 	call	_cpct_getRandomUniform_u8_f
   1455 55            [ 4] 4133 	ld	d,l
   1456 3E 06         [ 7] 4134 	ld	a,#0x06
   1458 F5            [11] 4135 	push	af
   1459 33            [ 6] 4136 	inc	sp
   145A D5            [11] 4137 	push	de
   145B 33            [ 6] 4138 	inc	sp
   145C CDr00r00      [17] 4139 	call	__moduchar
   145F F1            [10] 4140 	pop	af
   1460 DD 75 F4      [19] 4141 	ld	-12 (ix),l
   1463 C1            [10] 4142 	pop	bc
   1464 3E 05         [ 7] 4143 	ld	a,#0x05
   1466 DD 96 F4      [19] 4144 	sub	a, -12 (ix)
   1469 38 6C         [12] 4145 	jr	C,00122$
                           4146 ;src/includes/world.h:200: p_cities[1] = 0b01000110; // 01100010;
   146B DD 5E F6      [19] 4147 	ld	e,-10 (ix)
   146E DD 56 F7      [19] 4148 	ld	d,-9 (ix)
   1471 13            [ 6] 4149 	inc	de
                           4150 ;src/includes/world.h:196: switch(cpct_getRandomUniform_u8_f((cpct_count2VSYNC ()+ix)%256)%6)
   1472 D5            [11] 4151 	push	de
   1473 DD 5E F4      [19] 4152 	ld	e,-12 (ix)
   1476 16 00         [ 7] 4153 	ld	d,#0x00
   1478 21r7Fr14      [10] 4154 	ld	hl,#00230$
   147B 19            [11] 4155 	add	hl,de
   147C 19            [11] 4156 	add	hl,de
                           4157 ;src/includes/world.h:198: case 0:
   147D D1            [10] 4158 	pop	de
   147E E9            [ 4] 4159 	jp	(hl)
   147F                    4160 00230$:
   147F 18 0A         [12] 4161 	jr	00116$
   1481 18 15         [12] 4162 	jr	00117$
   1483 18 20         [12] 4163 	jr	00118$
   1485 18 2B         [12] 4164 	jr	00119$
   1487 18 36         [12] 4165 	jr	00120$
   1489 18 41         [12] 4166 	jr	00121$
   148B                    4167 00116$:
                           4168 ;src/includes/world.h:199: p_cities[0] = 0b01110010; // 01001110;
   148B DD 6E F6      [19] 4169 	ld	l,-10 (ix)
   148E DD 66 F7      [19] 4170 	ld	h,-9 (ix)
   1491 36 72         [10] 4171 	ld	(hl),#0x72
                           4172 ;src/includes/world.h:200: p_cities[1] = 0b01000110; // 01100010;
   1493 3E 46         [ 7] 4173 	ld	a,#0x46
   1495 12            [ 7] 4174 	ld	(de),a
                           4175 ;src/includes/world.h:201: break;
   1496 18 3F         [12] 4176 	jr	00122$
                           4177 ;src/includes/world.h:203: case 1:
   1498                    4178 00117$:
                           4179 ;src/includes/world.h:204: p_cities[0] = 0b01100000; // 00000110;
   1498 DD 6E F6      [19] 4180 	ld	l,-10 (ix)
   149B DD 66 F7      [19] 4181 	ld	h,-9 (ix)
   149E 36 60         [10] 4182 	ld	(hl),#0x60
                           4183 ;src/includes/world.h:205: p_cities[1] = 0b00000110; // 01100000;
   14A0 3E 06         [ 7] 4184 	ld	a,#0x06
   14A2 12            [ 7] 4185 	ld	(de),a
                           4186 ;src/includes/world.h:206: break;
   14A3 18 32         [12] 4187 	jr	00122$
                           4188 ;src/includes/world.h:208: case 2:
   14A5                    4189 00118$:
                           4190 ;src/includes/world.h:209: p_cities[0] = 0b00010000; // 00001000;
   14A5 DD 6E F6      [19] 4191 	ld	l,-10 (ix)
   14A8 DD 66 F7      [19] 4192 	ld	h,-9 (ix)
   14AB 36 10         [10] 4193 	ld	(hl),#0x10
                           4194 ;src/includes/world.h:210: p_cities[1] = 0b00000110; // 01100000;
   14AD 3E 06         [ 7] 4195 	ld	a,#0x06
   14AF 12            [ 7] 4196 	ld	(de),a
                           4197 ;src/includes/world.h:211: break;
   14B0 18 25         [12] 4198 	jr	00122$
                           4199 ;src/includes/world.h:213: case 3:
   14B2                    4200 00119$:
                           4201 ;src/includes/world.h:214: p_cities[0] = 0b11000000; // 00000011;
   14B2 DD 6E F6      [19] 4202 	ld	l,-10 (ix)
   14B5 DD 66 F7      [19] 4203 	ld	h,-9 (ix)
   14B8 36 C0         [10] 4204 	ld	(hl),#0xC0
                           4205 ;src/includes/world.h:215: p_cities[1] = 0b00110001; // 10001100;
   14BA 3E 31         [ 7] 4206 	ld	a,#0x31
   14BC 12            [ 7] 4207 	ld	(de),a
                           4208 ;src/includes/world.h:216: break;
   14BD 18 18         [12] 4209 	jr	00122$
                           4210 ;src/includes/world.h:218: case 4:
   14BF                    4211 00120$:
                           4212 ;src/includes/world.h:219: p_cities[0] = 0b11000100; // 00100011;
   14BF DD 6E F6      [19] 4213 	ld	l,-10 (ix)
   14C2 DD 66 F7      [19] 4214 	ld	h,-9 (ix)
   14C5 36 C4         [10] 4215 	ld	(hl),#0xC4
                           4216 ;src/includes/world.h:220: p_cities[1] = 0b00001110; // 01110000;
   14C7 3E 0E         [ 7] 4217 	ld	a,#0x0E
   14C9 12            [ 7] 4218 	ld	(de),a
                           4219 ;src/includes/world.h:221: break;
   14CA 18 0B         [12] 4220 	jr	00122$
                           4221 ;src/includes/world.h:223: case 5:
   14CC                    4222 00121$:
                           4223 ;src/includes/world.h:224: p_cities[0] = 0b01000000; // 00000010;
   14CC DD 6E F6      [19] 4224 	ld	l,-10 (ix)
   14CF DD 66 F7      [19] 4225 	ld	h,-9 (ix)
   14D2 36 40         [10] 4226 	ld	(hl),#0x40
                           4227 ;src/includes/world.h:225: p_cities[1] = 0b01001110; // 01110010;
   14D4 3E 4E         [ 7] 4228 	ld	a,#0x4E
   14D6 12            [ 7] 4229 	ld	(de),a
                           4230 ;src/includes/world.h:227: }
   14D7                    4231 00122$:
                           4232 ;src/includes/world.h:229: patternTile(DWELLINGS1, iy, 4, 4, p_cities);
   14D7 DD 6E F6      [19] 4233 	ld	l,-10 (ix)
   14DA DD 66 F7      [19] 4234 	ld	h,-9 (ix)
   14DD C5            [11] 4235 	push	bc
   14DE E5            [11] 4236 	push	hl
   14DF 21 04 04      [10] 4237 	ld	hl,#0x0404
   14E2 E5            [11] 4238 	push	hl
   14E3 DD 6E F2      [19] 4239 	ld	l,-14 (ix)
   14E6 DD 66 F3      [19] 4240 	ld	h,-13 (ix)
   14E9 E5            [11] 4241 	push	hl
   14EA 3E 02         [ 7] 4242 	ld	a,#0x02
   14EC F5            [11] 4243 	push	af
   14ED 33            [ 6] 4244 	inc	sp
   14EE CDr93r0F      [17] 4245 	call	_patternTile
   14F1 21 07 00      [10] 4246 	ld	hl,#7
   14F4 39            [11] 4247 	add	hl,sp
   14F5 F9            [ 6] 4248 	ld	sp,hl
   14F6 C1            [10] 4249 	pop	bc
                           4250 ;src/includes/world.h:190: for(ix=0; ix<NBURBAN; ix++)
   14F7 DD 34 E0      [23] 4251 	inc	-32 (ix)
   14FA 20 03         [12] 4252 	jr	NZ,00231$
   14FC DD 34 E1      [23] 4253 	inc	-31 (ix)
   14FF                    4254 00231$:
   14FF DD 7E E0      [19] 4255 	ld	a,-32 (ix)
   1502 D6 14         [ 7] 4256 	sub	a, #0x14
   1504 DD 7E E1      [19] 4257 	ld	a,-31 (ix)
   1507 17            [ 4] 4258 	rla
   1508 3F            [ 4] 4259 	ccf
   1509 1F            [ 4] 4260 	rra
   150A DE 80         [ 7] 4261 	sbc	a, #0x80
   150C DArD8r13      [10] 4262 	jp	C,00136$
                           4263 ;src/includes/world.h:234: cpct_setRandomSeedUniform_u8(4);
   150F C5            [11] 4264 	push	bc
   1510 2E 04         [ 7] 4265 	ld	l,#0x04
   1512 CDr00r00      [17] 4266 	call	_cpct_setRandomSeedUniform_u8
   1515 C1            [10] 4267 	pop	bc
                           4268 ;src/includes/world.h:236: for(ix=0; ix<NBLIVESTOCK; ix++)
   1516 21 00 00      [10] 4269 	ld	hl,#0x0000
   1519 E3            [19] 4270 	ex	(sp), hl
   151A                    4271 00138$:
                           4272 ;src/includes/world.h:238: iy = cpct_getRandomUniform_u8_f(cpct_count2VSYNC ()%256)*15; // (WIDTH*HEIGHT)/255;
   151A C5            [11] 4273 	push	bc
   151B CDr00r00      [17] 4274 	call	_cpct_count2VSYNC
   151E CDr00r00      [17] 4275 	call	_cpct_getRandomUniform_u8_f
   1521 C1            [10] 4276 	pop	bc
   1522 5D            [ 4] 4277 	ld	e,l
   1523 16 00         [ 7] 4278 	ld	d,#0x00
   1525 6B            [ 4] 4279 	ld	l, e
   1526 62            [ 4] 4280 	ld	h, d
   1527 29            [11] 4281 	add	hl, hl
   1528 19            [11] 4282 	add	hl, de
   1529 29            [11] 4283 	add	hl, hl
   152A 19            [11] 4284 	add	hl, de
   152B 29            [11] 4285 	add	hl, hl
   152C 19            [11] 4286 	add	hl, de
   152D DD 75 F6      [19] 4287 	ld	-10 (ix),l
   1530 DD 74 F7      [19] 4288 	ld	-9 (ix),h
                           4289 ;src/includes/world.h:240: shift = cpct_getRandomUniform_u8_f(cpct_count2VSYNC ()%256)%10;
   1533 C5            [11] 4290 	push	bc
   1534 CDr00r00      [17] 4291 	call	_cpct_count2VSYNC
   1537 CDr00r00      [17] 4292 	call	_cpct_getRandomUniform_u8_f
   153A 55            [ 4] 4293 	ld	d,l
   153B 3E 0A         [ 7] 4294 	ld	a,#0x0A
   153D F5            [11] 4295 	push	af
   153E 33            [ 6] 4296 	inc	sp
   153F D5            [11] 4297 	push	de
   1540 33            [ 6] 4298 	inc	sp
   1541 CDr00r00      [17] 4299 	call	__moduchar
   1544 F1            [10] 4300 	pop	af
   1545 C1            [10] 4301 	pop	bc
   1546 26 00         [ 7] 4302 	ld	h,#0x00
                           4303 ;src/includes/world.h:241: shift=iy-shift+5;
   1548 DD 7E F6      [19] 4304 	ld	a,-10 (ix)
   154B 95            [ 4] 4305 	sub	a, l
   154C 6F            [ 4] 4306 	ld	l,a
   154D DD 7E F7      [19] 4307 	ld	a,-9 (ix)
   1550 9C            [ 4] 4308 	sbc	a, h
   1551 67            [ 4] 4309 	ld	h,a
   1552 11 05 00      [10] 4310 	ld	de,#0x0005
   1555 19            [11] 4311 	add	hl,de
                           4312 ;src/includes/world.h:243: if(shift>0 && shift<WIDTH*HEIGHT)
   1556 AF            [ 4] 4313 	xor	a, a
   1557 BD            [ 4] 4314 	cp	a, l
   1558 9C            [ 4] 4315 	sbc	a, h
   1559 E2r5Er15      [10] 4316 	jp	PO, 00232$
   155C EE 80         [ 7] 4317 	xor	a, #0x80
   155E                    4318 00232$:
   155E F2r6Br15      [10] 4319 	jp	P,00139$
   1561 7C            [ 4] 4320 	ld	a,h
   1562 EE 80         [ 7] 4321 	xor	a, #0x80
   1564 D6 8F         [ 7] 4322 	sub	a, #0x8F
   1566 30 03         [12] 4323 	jr	NC,00139$
                           4324 ;src/includes/world.h:244: p_world[shift] = LIVESTOCK;
   1568 09            [11] 4325 	add	hl,bc
   1569 36 09         [10] 4326 	ld	(hl),#0x09
   156B                    4327 00139$:
                           4328 ;src/includes/world.h:236: for(ix=0; ix<NBLIVESTOCK; ix++)
   156B DD 34 E0      [23] 4329 	inc	-32 (ix)
   156E 20 03         [12] 4330 	jr	NZ,00233$
   1570 DD 34 E1      [23] 4331 	inc	-31 (ix)
   1573                    4332 00233$:
   1573 DD 7E E0      [19] 4333 	ld	a,-32 (ix)
   1576 D6 13         [ 7] 4334 	sub	a, #0x13
   1578 DD 7E E1      [19] 4335 	ld	a,-31 (ix)
   157B 17            [ 4] 4336 	rla
   157C 3F            [ 4] 4337 	ccf
   157D 1F            [ 4] 4338 	rra
   157E DE 80         [ 7] 4339 	sbc	a, #0x80
   1580 38 98         [12] 4340 	jr	C,00138$
   1582 DD F9         [10] 4341 	ld	sp, ix
   1584 DD E1         [14] 4342 	pop	ix
   1586 C9            [10] 4343 	ret
                           4344 ;src/includes/world.h:248: void drawTile(u8 x_, u8 y_, u8 ix, u8 iy)
                           4345 ;	---------------------------------
                           4346 ; Function drawTile
                           4347 ; ---------------------------------
   1587                    4348 _drawTile::
   1587 DD E5         [15] 4349 	push	ix
   1589 DD 21 00 00   [14] 4350 	ld	ix,#0
   158D DD 39         [15] 4351 	add	ix,sp
                           4352 ;src/includes/world.h:251: int adress = (y_+iy)*WIDTH+x_+ix;
   158F DD 6E 05      [19] 4353 	ld	l,5 (ix)
   1592 26 00         [ 7] 4354 	ld	h,#0x00
   1594 DD 5E 07      [19] 4355 	ld	e,7 (ix)
   1597 16 00         [ 7] 4356 	ld	d,#0x00
   1599 19            [11] 4357 	add	hl,de
   159A 4D            [ 4] 4358 	ld	c, l
   159B 44            [ 4] 4359 	ld	b, h
   159C 29            [11] 4360 	add	hl, hl
   159D 29            [11] 4361 	add	hl, hl
   159E 09            [11] 4362 	add	hl, bc
   159F 29            [11] 4363 	add	hl, hl
   15A0 29            [11] 4364 	add	hl, hl
   15A1 29            [11] 4365 	add	hl, hl
   15A2 29            [11] 4366 	add	hl, hl
   15A3 DD 5E 04      [19] 4367 	ld	e,4 (ix)
   15A6 16 00         [ 7] 4368 	ld	d,#0x00
   15A8 19            [11] 4369 	add	hl,de
   15A9 DD 5E 06      [19] 4370 	ld	e,6 (ix)
   15AC 16 00         [ 7] 4371 	ld	d,#0x00
   15AE 19            [11] 4372 	add	hl,de
   15AF 5D            [ 4] 4373 	ld	e, l
   15B0 54            [ 4] 4374 	ld	d, h
                           4375 ;src/includes/world.h:253: p_video = cpct_getScreenPtr(SCR_VMEM, ix*TILESIZE_W, iy*TILESIZE_H);
   15B1 DD 7E 07      [19] 4376 	ld	a,7 (ix)
   15B4 07            [ 4] 4377 	rlca
   15B5 07            [ 4] 4378 	rlca
   15B6 07            [ 4] 4379 	rlca
   15B7 07            [ 4] 4380 	rlca
   15B8 E6 F0         [ 7] 4381 	and	a,#0xF0
   15BA 67            [ 4] 4382 	ld	h,a
   15BB DD 7E 06      [19] 4383 	ld	a,6 (ix)
   15BE 87            [ 4] 4384 	add	a, a
   15BF 87            [ 4] 4385 	add	a, a
   15C0 D5            [11] 4386 	push	de
   15C1 E5            [11] 4387 	push	hl
   15C2 33            [ 6] 4388 	inc	sp
   15C3 F5            [11] 4389 	push	af
   15C4 33            [ 6] 4390 	inc	sp
   15C5 21 00 C0      [10] 4391 	ld	hl,#0xC000
   15C8 E5            [11] 4392 	push	hl
   15C9 CDr00r00      [17] 4393 	call	_cpct_getScreenPtr
   15CC D1            [10] 4394 	pop	de
   15CD 4D            [ 4] 4395 	ld	c, l
   15CE 44            [ 4] 4396 	ld	b, h
                           4397 ;src/includes/world.h:255: switch(p_world[adress])
   15CF 21r00r00      [10] 4398 	ld	hl,#_p_world
   15D2 19            [11] 4399 	add	hl,de
   15D3 5E            [ 7] 4400 	ld	e,(hl)
   15D4 3E 19         [ 7] 4401 	ld	a,#0x19
   15D6 93            [ 4] 4402 	sub	a, e
   15D7 DArACr17      [10] 4403 	jp	C,00128$
   15DA 16 00         [ 7] 4404 	ld	d,#0x00
   15DC 21rE3r15      [10] 4405 	ld	hl,#00134$
   15DF 19            [11] 4406 	add	hl,de
   15E0 19            [11] 4407 	add	hl,de
   15E1 19            [11] 4408 	add	hl,de
   15E2 E9            [ 4] 4409 	jp	(hl)
   15E3                    4410 00134$:
   15E3 C3r31r16      [10] 4411 	jp	00101$
   15E6 C3r40r16      [10] 4412 	jp	00102$
   15E9 C3r4Fr16      [10] 4413 	jp	00103$
   15EC C3r5Er16      [10] 4414 	jp	00104$
   15EF C3r6Dr16      [10] 4415 	jp	00105$
   15F2 C3r7Cr16      [10] 4416 	jp	00106$
   15F5 C3r8Br16      [10] 4417 	jp	00107$
   15F8 C3r9Ar16      [10] 4418 	jp	00108$
   15FB C3rA9r16      [10] 4419 	jp	00109$
   15FE C3rB8r16      [10] 4420 	jp	00110$
   1601 C3rC7r16      [10] 4421 	jp	00111$
   1604 C3rD6r16      [10] 4422 	jp	00112$
   1607 C3rE5r16      [10] 4423 	jp	00113$
   160A C3rF4r16      [10] 4424 	jp	00114$
   160D C3r03r17      [10] 4425 	jp	00115$
   1610 C3r12r17      [10] 4426 	jp	00116$
   1613 C3r21r17      [10] 4427 	jp	00117$
   1616 C3r30r17      [10] 4428 	jp	00118$
   1619 C3r3Er17      [10] 4429 	jp	00119$
   161C C3r4Cr17      [10] 4430 	jp	00120$
   161F C3r5Ar17      [10] 4431 	jp	00121$
   1622 C3r68r17      [10] 4432 	jp	00122$
   1625 C3r76r17      [10] 4433 	jp	00123$
   1628 C3r84r17      [10] 4434 	jp	00124$
   162B C3r92r17      [10] 4435 	jp	00125$
   162E C3rA0r17      [10] 4436 	jp	00126$
                           4437 ;src/includes/world.h:257: case GRASS1:
   1631                    4438 00101$:
                           4439 ;src/includes/world.h:258: cpct_drawSprite(grass1, p_video, TILESIZE_W, TILESIZE_H);
   1631 11r29r00      [10] 4440 	ld	de,#_grass1
   1634 21 04 10      [10] 4441 	ld	hl,#0x1004
   1637 E5            [11] 4442 	push	hl
   1638 C5            [11] 4443 	push	bc
   1639 D5            [11] 4444 	push	de
   163A CDr00r00      [17] 4445 	call	_cpct_drawSprite
                           4446 ;src/includes/world.h:259: break;
   163D C3rACr17      [10] 4447 	jp	00128$
                           4448 ;src/includes/world.h:260: case GRASS2:
   1640                    4449 00102$:
                           4450 ;src/includes/world.h:261: cpct_drawSprite(grass2, p_video, TILESIZE_W, TILESIZE_H);
   1640 11r69r00      [10] 4451 	ld	de,#_grass2
   1643 21 04 10      [10] 4452 	ld	hl,#0x1004
   1646 E5            [11] 4453 	push	hl
   1647 C5            [11] 4454 	push	bc
   1648 D5            [11] 4455 	push	de
   1649 CDr00r00      [17] 4456 	call	_cpct_drawSprite
                           4457 ;src/includes/world.h:262: break;
   164C C3rACr17      [10] 4458 	jp	00128$
                           4459 ;src/includes/world.h:263: case DWELLINGS1:
   164F                    4460 00103$:
                           4461 ;src/includes/world.h:264: cpct_drawSprite(dwellings1, p_video, TILESIZE_W, TILESIZE_H);
   164F 11rE9r00      [10] 4462 	ld	de,#_dwellings1
   1652 21 04 10      [10] 4463 	ld	hl,#0x1004
   1655 E5            [11] 4464 	push	hl
   1656 C5            [11] 4465 	push	bc
   1657 D5            [11] 4466 	push	de
   1658 CDr00r00      [17] 4467 	call	_cpct_drawSprite
                           4468 ;src/includes/world.h:265: break;
   165B C3rACr17      [10] 4469 	jp	00128$
                           4470 ;src/includes/world.h:266: case DWELLINGS2:
   165E                    4471 00104$:
                           4472 ;src/includes/world.h:267: cpct_drawSprite(dwellings2, p_video, TILESIZE_W, TILESIZE_H);
   165E 11r29r01      [10] 4473 	ld	de,#_dwellings2
   1661 21 04 10      [10] 4474 	ld	hl,#0x1004
   1664 E5            [11] 4475 	push	hl
   1665 C5            [11] 4476 	push	bc
   1666 D5            [11] 4477 	push	de
   1667 CDr00r00      [17] 4478 	call	_cpct_drawSprite
                           4479 ;src/includes/world.h:268: break;
   166A C3rACr17      [10] 4480 	jp	00128$
                           4481 ;src/includes/world.h:269: case DWELLINGS3:
   166D                    4482 00105$:
                           4483 ;src/includes/world.h:270: cpct_drawSprite(dwellings3, p_video, TILESIZE_W, TILESIZE_H);
   166D 11r69r01      [10] 4484 	ld	de,#_dwellings3
   1670 21 04 10      [10] 4485 	ld	hl,#0x1004
   1673 E5            [11] 4486 	push	hl
   1674 C5            [11] 4487 	push	bc
   1675 D5            [11] 4488 	push	de
   1676 CDr00r00      [17] 4489 	call	_cpct_drawSprite
                           4490 ;src/includes/world.h:271: break;
   1679 C3rACr17      [10] 4491 	jp	00128$
                           4492 ;src/includes/world.h:272: case FARM1:
   167C                    4493 00106$:
                           4494 ;src/includes/world.h:273: cpct_drawSprite(farm1, p_video, TILESIZE_W, TILESIZE_H);
   167C 11rE9r01      [10] 4495 	ld	de,#_farm1
   167F 21 04 10      [10] 4496 	ld	hl,#0x1004
   1682 E5            [11] 4497 	push	hl
   1683 C5            [11] 4498 	push	bc
   1684 D5            [11] 4499 	push	de
   1685 CDr00r00      [17] 4500 	call	_cpct_drawSprite
                           4501 ;src/includes/world.h:274: break;
   1688 C3rACr17      [10] 4502 	jp	00128$
                           4503 ;src/includes/world.h:275: case FARM2:
   168B                    4504 00107$:
                           4505 ;src/includes/world.h:276: cpct_drawSprite(farm2, p_video, TILESIZE_W, TILESIZE_H);
   168B 11r29r02      [10] 4506 	ld	de,#_farm2
   168E 21 04 10      [10] 4507 	ld	hl,#0x1004
   1691 E5            [11] 4508 	push	hl
   1692 C5            [11] 4509 	push	bc
   1693 D5            [11] 4510 	push	de
   1694 CDr00r00      [17] 4511 	call	_cpct_drawSprite
                           4512 ;src/includes/world.h:277: break;
   1697 C3rACr17      [10] 4513 	jp	00128$
                           4514 ;src/includes/world.h:278: case WATER:
   169A                    4515 00108$:
                           4516 ;src/includes/world.h:279: cpct_drawSprite(water, p_video, TILESIZE_W, TILESIZE_H);
   169A 11rA9r01      [10] 4517 	ld	de,#_water
   169D 21 04 10      [10] 4518 	ld	hl,#0x1004
   16A0 E5            [11] 4519 	push	hl
   16A1 C5            [11] 4520 	push	bc
   16A2 D5            [11] 4521 	push	de
   16A3 CDr00r00      [17] 4522 	call	_cpct_drawSprite
                           4523 ;src/includes/world.h:280: break;
   16A6 C3rACr17      [10] 4524 	jp	00128$
                           4525 ;src/includes/world.h:281: case FOREST:
   16A9                    4526 00109$:
                           4527 ;src/includes/world.h:282: cpct_drawSprite(forest, p_video, TILESIZE_W, TILESIZE_H);
   16A9 11rA9r00      [10] 4528 	ld	de,#_forest
   16AC 21 04 10      [10] 4529 	ld	hl,#0x1004
   16AF E5            [11] 4530 	push	hl
   16B0 C5            [11] 4531 	push	bc
   16B1 D5            [11] 4532 	push	de
   16B2 CDr00r00      [17] 4533 	call	_cpct_drawSprite
                           4534 ;src/includes/world.h:283: break;
   16B5 C3rACr17      [10] 4535 	jp	00128$
                           4536 ;src/includes/world.h:284: case LIVESTOCK:
   16B8                    4537 00110$:
                           4538 ;src/includes/world.h:285: cpct_drawSprite(livestock, p_video, TILESIZE_W, TILESIZE_H);
   16B8 11r69r02      [10] 4539 	ld	de,#_livestock
   16BB 21 04 10      [10] 4540 	ld	hl,#0x1004
   16BE E5            [11] 4541 	push	hl
   16BF C5            [11] 4542 	push	bc
   16C0 D5            [11] 4543 	push	de
   16C1 CDr00r00      [17] 4544 	call	_cpct_drawSprite
                           4545 ;src/includes/world.h:286: break;
   16C4 C3rACr17      [10] 4546 	jp	00128$
                           4547 ;src/includes/world.h:287: case SSNS:
   16C7                    4548 00111$:
                           4549 ;src/includes/world.h:288: cpct_drawSprite(station_small_ns, p_video, TILESIZE_W, TILESIZE_H);
   16C7 11rA9r02      [10] 4550 	ld	de,#_station_small_ns
   16CA 21 04 10      [10] 4551 	ld	hl,#0x1004
   16CD E5            [11] 4552 	push	hl
   16CE C5            [11] 4553 	push	bc
   16CF D5            [11] 4554 	push	de
   16D0 CDr00r00      [17] 4555 	call	_cpct_drawSprite
                           4556 ;src/includes/world.h:289: break;
   16D3 C3rACr17      [10] 4557 	jp	00128$
                           4558 ;src/includes/world.h:290: case SSEW:
   16D6                    4559 00112$:
                           4560 ;src/includes/world.h:291: cpct_drawSprite(station_small_ew, p_video, TILESIZE_W, TILESIZE_H);
   16D6 11rE9r02      [10] 4561 	ld	de,#_station_small_ew
   16D9 21 04 10      [10] 4562 	ld	hl,#0x1004
   16DC E5            [11] 4563 	push	hl
   16DD C5            [11] 4564 	push	bc
   16DE D5            [11] 4565 	push	de
   16DF CDr00r00      [17] 4566 	call	_cpct_drawSprite
                           4567 ;src/includes/world.h:292: break;
   16E2 C3rACr17      [10] 4568 	jp	00128$
                           4569 ;src/includes/world.h:293: case SMNS:
   16E5                    4570 00113$:
                           4571 ;src/includes/world.h:294: cpct_drawSprite(station_medium_ns, p_video, TILESIZE_W, TILESIZE_H);
   16E5 11r29r03      [10] 4572 	ld	de,#_station_medium_ns
   16E8 21 04 10      [10] 4573 	ld	hl,#0x1004
   16EB E5            [11] 4574 	push	hl
   16EC C5            [11] 4575 	push	bc
   16ED D5            [11] 4576 	push	de
   16EE CDr00r00      [17] 4577 	call	_cpct_drawSprite
                           4578 ;src/includes/world.h:295: break;
   16F1 C3rACr17      [10] 4579 	jp	00128$
                           4580 ;src/includes/world.h:296: case SMEW:
   16F4                    4581 00114$:
                           4582 ;src/includes/world.h:297: cpct_drawSprite(station_medium_ew, p_video, TILESIZE_W, TILESIZE_H);
   16F4 11r69r03      [10] 4583 	ld	de,#_station_medium_ew
   16F7 21 04 10      [10] 4584 	ld	hl,#0x1004
   16FA E5            [11] 4585 	push	hl
   16FB C5            [11] 4586 	push	bc
   16FC D5            [11] 4587 	push	de
   16FD CDr00r00      [17] 4588 	call	_cpct_drawSprite
                           4589 ;src/includes/world.h:298: break;
   1700 C3rACr17      [10] 4590 	jp	00128$
                           4591 ;src/includes/world.h:299: case SLNS:
   1703                    4592 00115$:
                           4593 ;src/includes/world.h:300: cpct_drawSprite(station_large_ns, p_video, TILESIZE_W, TILESIZE_H);
   1703 11rA9r03      [10] 4594 	ld	de,#_station_large_ns
   1706 21 04 10      [10] 4595 	ld	hl,#0x1004
   1709 E5            [11] 4596 	push	hl
   170A C5            [11] 4597 	push	bc
   170B D5            [11] 4598 	push	de
   170C CDr00r00      [17] 4599 	call	_cpct_drawSprite
                           4600 ;src/includes/world.h:301: break;
   170F C3rACr17      [10] 4601 	jp	00128$
                           4602 ;src/includes/world.h:302: case SLEW:
   1712                    4603 00116$:
                           4604 ;src/includes/world.h:303: cpct_drawSprite(station_large_ew, p_video, TILESIZE_W, TILESIZE_H);
   1712 11rE9r03      [10] 4605 	ld	de,#_station_large_ew
   1715 21 04 10      [10] 4606 	ld	hl,#0x1004
   1718 E5            [11] 4607 	push	hl
   1719 C5            [11] 4608 	push	bc
   171A D5            [11] 4609 	push	de
   171B CDr00r00      [17] 4610 	call	_cpct_drawSprite
                           4611 ;src/includes/world.h:304: break;
   171E C3rACr17      [10] 4612 	jp	00128$
                           4613 ;src/includes/world.h:305: case REW:
   1721                    4614 00117$:
                           4615 ;src/includes/world.h:306: cpct_drawSprite(rail_ew, p_video, TILESIZE_W, TILESIZE_H);	
   1721 11r29r04      [10] 4616 	ld	de,#_rail_ew
   1724 21 04 10      [10] 4617 	ld	hl,#0x1004
   1727 E5            [11] 4618 	push	hl
   1728 C5            [11] 4619 	push	bc
   1729 D5            [11] 4620 	push	de
   172A CDr00r00      [17] 4621 	call	_cpct_drawSprite
                           4622 ;src/includes/world.h:307: break;
   172D C3rACr17      [10] 4623 	jp	00128$
                           4624 ;src/includes/world.h:308: case RNS:
   1730                    4625 00118$:
                           4626 ;src/includes/world.h:309: cpct_drawSprite(rail_ns, p_video, TILESIZE_W, TILESIZE_H);	
   1730 11r69r04      [10] 4627 	ld	de,#_rail_ns
   1733 21 04 10      [10] 4628 	ld	hl,#0x1004
   1736 E5            [11] 4629 	push	hl
   1737 C5            [11] 4630 	push	bc
   1738 D5            [11] 4631 	push	de
   1739 CDr00r00      [17] 4632 	call	_cpct_drawSprite
                           4633 ;src/includes/world.h:310: break;
   173C 18 6E         [12] 4634 	jr	00128$
                           4635 ;src/includes/world.h:311: case REN:
   173E                    4636 00119$:
                           4637 ;src/includes/world.h:312: cpct_drawSprite(rail_en, p_video, TILESIZE_W, TILESIZE_H);	
   173E 11rA9r04      [10] 4638 	ld	de,#_rail_en
   1741 21 04 10      [10] 4639 	ld	hl,#0x1004
   1744 E5            [11] 4640 	push	hl
   1745 C5            [11] 4641 	push	bc
   1746 D5            [11] 4642 	push	de
   1747 CDr00r00      [17] 4643 	call	_cpct_drawSprite
                           4644 ;src/includes/world.h:313: break;
   174A 18 60         [12] 4645 	jr	00128$
                           4646 ;src/includes/world.h:314: case RES:
   174C                    4647 00120$:
                           4648 ;src/includes/world.h:315: cpct_drawSprite(rail_es, p_video, TILESIZE_W, TILESIZE_H);	
   174C 11rE9r04      [10] 4649 	ld	de,#_rail_es
   174F 21 04 10      [10] 4650 	ld	hl,#0x1004
   1752 E5            [11] 4651 	push	hl
   1753 C5            [11] 4652 	push	bc
   1754 D5            [11] 4653 	push	de
   1755 CDr00r00      [17] 4654 	call	_cpct_drawSprite
                           4655 ;src/includes/world.h:316: break;
   1758 18 52         [12] 4656 	jr	00128$
                           4657 ;src/includes/world.h:317: case RWN:
   175A                    4658 00121$:
                           4659 ;src/includes/world.h:318: cpct_drawSprite(rail_wn, p_video, TILESIZE_W, TILESIZE_H);	
   175A 11r29r05      [10] 4660 	ld	de,#_rail_wn
   175D 21 04 10      [10] 4661 	ld	hl,#0x1004
   1760 E5            [11] 4662 	push	hl
   1761 C5            [11] 4663 	push	bc
   1762 D5            [11] 4664 	push	de
   1763 CDr00r00      [17] 4665 	call	_cpct_drawSprite
                           4666 ;src/includes/world.h:319: break;
   1766 18 44         [12] 4667 	jr	00128$
                           4668 ;src/includes/world.h:320: case RWS:
   1768                    4669 00122$:
                           4670 ;src/includes/world.h:321: cpct_drawSprite(rail_ws, p_video, TILESIZE_W, TILESIZE_H);	
   1768 11r69r05      [10] 4671 	ld	de,#_rail_ws
   176B 21 04 10      [10] 4672 	ld	hl,#0x1004
   176E E5            [11] 4673 	push	hl
   176F C5            [11] 4674 	push	bc
   1770 D5            [11] 4675 	push	de
   1771 CDr00r00      [17] 4676 	call	_cpct_drawSprite
                           4677 ;src/includes/world.h:322: break;
   1774 18 36         [12] 4678 	jr	00128$
                           4679 ;src/includes/world.h:323: case REWN:
   1776                    4680 00123$:
                           4681 ;src/includes/world.h:324: cpct_drawSprite(rail_ew_n, p_video, TILESIZE_W, TILESIZE_H);	
   1776 11rA9r05      [10] 4682 	ld	de,#_rail_ew_n
   1779 21 04 10      [10] 4683 	ld	hl,#0x1004
   177C E5            [11] 4684 	push	hl
   177D C5            [11] 4685 	push	bc
   177E D5            [11] 4686 	push	de
   177F CDr00r00      [17] 4687 	call	_cpct_drawSprite
                           4688 ;src/includes/world.h:325: break;
   1782 18 28         [12] 4689 	jr	00128$
                           4690 ;src/includes/world.h:326: case REWS:
   1784                    4691 00124$:
                           4692 ;src/includes/world.h:327: cpct_drawSprite(rail_ew_s, p_video, TILESIZE_W, TILESIZE_H);	
   1784 11rE9r05      [10] 4693 	ld	de,#_rail_ew_s
   1787 21 04 10      [10] 4694 	ld	hl,#0x1004
   178A E5            [11] 4695 	push	hl
   178B C5            [11] 4696 	push	bc
   178C D5            [11] 4697 	push	de
   178D CDr00r00      [17] 4698 	call	_cpct_drawSprite
                           4699 ;src/includes/world.h:328: break;
   1790 18 1A         [12] 4700 	jr	00128$
                           4701 ;src/includes/world.h:329: case RNSE:
   1792                    4702 00125$:
                           4703 ;src/includes/world.h:330: cpct_drawSprite(rail_ns_e, p_video, TILESIZE_W, TILESIZE_H);	
   1792 11r69r06      [10] 4704 	ld	de,#_rail_ns_e
   1795 21 04 10      [10] 4705 	ld	hl,#0x1004
   1798 E5            [11] 4706 	push	hl
   1799 C5            [11] 4707 	push	bc
   179A D5            [11] 4708 	push	de
   179B CDr00r00      [17] 4709 	call	_cpct_drawSprite
                           4710 ;src/includes/world.h:331: break;
   179E 18 0C         [12] 4711 	jr	00128$
                           4712 ;src/includes/world.h:332: case RNSW:
   17A0                    4713 00126$:
                           4714 ;src/includes/world.h:333: cpct_drawSprite(rail_ns_w, p_video, TILESIZE_W, TILESIZE_H);
   17A0 11r29r06      [10] 4715 	ld	de,#_rail_ns_w
   17A3 21 04 10      [10] 4716 	ld	hl,#0x1004
   17A6 E5            [11] 4717 	push	hl
   17A7 C5            [11] 4718 	push	bc
   17A8 D5            [11] 4719 	push	de
   17A9 CDr00r00      [17] 4720 	call	_cpct_drawSprite
                           4721 ;src/includes/world.h:335: }
   17AC                    4722 00128$:
   17AC DD E1         [14] 4723 	pop	ix
   17AE C9            [10] 4724 	ret
                           4725 ;src/includes/world.h:338: void drawScrolls(u8 x_, u8 y_)
                           4726 ;	---------------------------------
                           4727 ; Function drawScrolls
                           4728 ; ---------------------------------
   17AF                    4729 _drawScrolls::
   17AF DD E5         [15] 4730 	push	ix
   17B1 DD 21 00 00   [14] 4731 	ld	ix,#0
   17B5 DD 39         [15] 4732 	add	ix,sp
   17B7 3B            [ 6] 4733 	dec	sp
                           4734 ;src/includes/world.h:344: scrollx = x_* (WIDTH-TILESIZE_W)/(WIDTH-NBTILE_W);
   17B8 DD 4E 04      [19] 4735 	ld	c,4 (ix)
   17BB 06 00         [ 7] 4736 	ld	b,#0x00
   17BD 69            [ 4] 4737 	ld	l, c
   17BE 60            [ 4] 4738 	ld	h, b
   17BF 29            [11] 4739 	add	hl, hl
   17C0 29            [11] 4740 	add	hl, hl
   17C1 29            [11] 4741 	add	hl, hl
   17C2 09            [11] 4742 	add	hl, bc
   17C3 29            [11] 4743 	add	hl, hl
   17C4 09            [11] 4744 	add	hl, bc
   17C5 29            [11] 4745 	add	hl, hl
   17C6 29            [11] 4746 	add	hl, hl
   17C7 01 3C 00      [10] 4747 	ld	bc,#0x003C
   17CA C5            [11] 4748 	push	bc
   17CB E5            [11] 4749 	push	hl
   17CC CDr00r00      [17] 4750 	call	__divsint
   17CF F1            [10] 4751 	pop	af
   17D0 F1            [10] 4752 	pop	af
   17D1 55            [ 4] 4753 	ld	d,l
                           4754 ;src/includes/world.h:345: scrolly = y_* (HEIGHT*TILESIZE_W-TILESIZE_H)/(HEIGHT-NBTILE_H);
   17D2 DD 4E 05      [19] 4755 	ld	c,5 (ix)
   17D5 06 00         [ 7] 4756 	ld	b,#0x00
   17D7 69            [ 4] 4757 	ld	l, c
   17D8 60            [ 4] 4758 	ld	h, b
   17D9 29            [11] 4759 	add	hl, hl
   17DA 29            [11] 4760 	add	hl, hl
   17DB 09            [11] 4761 	add	hl, bc
   17DC 29            [11] 4762 	add	hl, hl
   17DD 09            [11] 4763 	add	hl, bc
   17DE 29            [11] 4764 	add	hl, hl
   17DF 29            [11] 4765 	add	hl, hl
   17E0 29            [11] 4766 	add	hl, hl
   17E1 29            [11] 4767 	add	hl, hl
   17E2 D5            [11] 4768 	push	de
   17E3 01 24 00      [10] 4769 	ld	bc,#0x0024
   17E6 C5            [11] 4770 	push	bc
   17E7 E5            [11] 4771 	push	hl
   17E8 CDr00r00      [17] 4772 	call	__divsint
   17EB F1            [10] 4773 	pop	af
   17EC F1            [10] 4774 	pop	af
   17ED D1            [10] 4775 	pop	de
   17EE DD 75 FF      [19] 4776 	ld	-1 (ix),l
                           4777 ;src/includes/world.h:347: p_video = cpct_getScreenPtr(SCR_VMEM, scrollx, 0);
   17F1 AF            [ 4] 4778 	xor	a, a
   17F2 F5            [11] 4779 	push	af
   17F3 33            [ 6] 4780 	inc	sp
   17F4 D5            [11] 4781 	push	de
   17F5 33            [ 6] 4782 	inc	sp
   17F6 21 00 C0      [10] 4783 	ld	hl,#0xC000
   17F9 E5            [11] 4784 	push	hl
   17FA CDr00r00      [17] 4785 	call	_cpct_getScreenPtr
                           4786 ;src/includes/world.h:348: cpct_drawSolidBox(p_video, cpct_px2byteM1(0,0,0,0), 4, TILESIZE_W);
   17FD E5            [11] 4787 	push	hl
   17FE 21 00 00      [10] 4788 	ld	hl,#0x0000
   1801 E5            [11] 4789 	push	hl
   1802 2E 00         [ 7] 4790 	ld	l, #0x00
   1804 E5            [11] 4791 	push	hl
   1805 CDr00r00      [17] 4792 	call	_cpct_px2byteM1
   1808 F1            [10] 4793 	pop	af
   1809 F1            [10] 4794 	pop	af
   180A 45            [ 4] 4795 	ld	b,l
   180B D1            [10] 4796 	pop	de
   180C 21 04 04      [10] 4797 	ld	hl,#0x0404
   180F E5            [11] 4798 	push	hl
   1810 C5            [11] 4799 	push	bc
   1811 33            [ 6] 4800 	inc	sp
   1812 D5            [11] 4801 	push	de
   1813 CDr00r00      [17] 4802 	call	_cpct_drawSolidBox
   1816 F1            [10] 4803 	pop	af
   1817 F1            [10] 4804 	pop	af
   1818 33            [ 6] 4805 	inc	sp
                           4806 ;src/includes/world.h:350: p_video = cpct_getScreenPtr(SCR_VMEM, 0, scrolly);
   1819 DD 7E FF      [19] 4807 	ld	a,-1 (ix)
   181C F5            [11] 4808 	push	af
   181D 33            [ 6] 4809 	inc	sp
   181E AF            [ 4] 4810 	xor	a, a
   181F F5            [11] 4811 	push	af
   1820 33            [ 6] 4812 	inc	sp
   1821 21 00 C0      [10] 4813 	ld	hl,#0xC000
   1824 E5            [11] 4814 	push	hl
   1825 CDr00r00      [17] 4815 	call	_cpct_getScreenPtr
                           4816 ;src/includes/world.h:351: cpct_drawSolidBox(p_video, cpct_px2byteM1(0,0,0,0), 1, TILESIZE_H);
   1828 E5            [11] 4817 	push	hl
   1829 21 00 00      [10] 4818 	ld	hl,#0x0000
   182C E5            [11] 4819 	push	hl
   182D 2E 00         [ 7] 4820 	ld	l, #0x00
   182F E5            [11] 4821 	push	hl
   1830 CDr00r00      [17] 4822 	call	_cpct_px2byteM1
   1833 F1            [10] 4823 	pop	af
   1834 F1            [10] 4824 	pop	af
   1835 45            [ 4] 4825 	ld	b,l
   1836 D1            [10] 4826 	pop	de
   1837 21 01 10      [10] 4827 	ld	hl,#0x1001
   183A E5            [11] 4828 	push	hl
   183B C5            [11] 4829 	push	bc
   183C 33            [ 6] 4830 	inc	sp
   183D D5            [11] 4831 	push	de
   183E CDr00r00      [17] 4832 	call	_cpct_drawSolidBox
   1841 F1            [10] 4833 	pop	af
   1842 F1            [10] 4834 	pop	af
   1843 33            [ 6] 4835 	inc	sp
   1844 33            [ 6] 4836 	inc	sp
   1845 DD E1         [14] 4837 	pop	ix
   1847 C9            [10] 4838 	ret
                           4839 ;src/includes/world.h:354: void drawWorld(u8 x_, u8 y_)
                           4840 ;	---------------------------------
                           4841 ; Function drawWorld
                           4842 ; ---------------------------------
   1848                    4843 _drawWorld::
                           4844 ;src/includes/world.h:359: for(iy=0; iy<NBTILE_H;iy++)
   1848 16 00         [ 7] 4845 	ld	d,#0x00
                           4846 ;src/includes/world.h:361: for(ix=0; ix<NBTILE_W;ix++)
   184A                    4847 00109$:
   184A 1E 00         [ 7] 4848 	ld	e,#0x00
   184C                    4849 00103$:
                           4850 ;src/includes/world.h:363: drawTile(x_, y_, ix, iy);
   184C D5            [11] 4851 	push	de
   184D D5            [11] 4852 	push	de
   184E 21 07 00      [10] 4853 	ld	hl, #7+0
   1851 39            [11] 4854 	add	hl, sp
   1852 7E            [ 7] 4855 	ld	a, (hl)
   1853 F5            [11] 4856 	push	af
   1854 33            [ 6] 4857 	inc	sp
   1855 21 07 00      [10] 4858 	ld	hl, #7+0
   1858 39            [11] 4859 	add	hl, sp
   1859 7E            [ 7] 4860 	ld	a, (hl)
   185A F5            [11] 4861 	push	af
   185B 33            [ 6] 4862 	inc	sp
   185C CDr87r15      [17] 4863 	call	_drawTile
   185F F1            [10] 4864 	pop	af
   1860 F1            [10] 4865 	pop	af
   1861 D1            [10] 4866 	pop	de
                           4867 ;src/includes/world.h:361: for(ix=0; ix<NBTILE_W;ix++)
   1862 1C            [ 4] 4868 	inc	e
   1863 7B            [ 4] 4869 	ld	a,e
   1864 D6 14         [ 7] 4870 	sub	a, #0x14
   1866 38 E4         [12] 4871 	jr	C,00103$
                           4872 ;src/includes/world.h:359: for(iy=0; iy<NBTILE_H;iy++)
   1868 14            [ 4] 4873 	inc	d
   1869 7A            [ 4] 4874 	ld	a,d
   186A D6 0C         [ 7] 4875 	sub	a, #0x0C
   186C 38 DC         [12] 4876 	jr	C,00109$
                           4877 ;src/includes/world.h:367: drawScrolls(x_, y_);
   186E 21 03 00      [10] 4878 	ld	hl, #3+0
   1871 39            [11] 4879 	add	hl, sp
   1872 7E            [ 7] 4880 	ld	a, (hl)
   1873 F5            [11] 4881 	push	af
   1874 33            [ 6] 4882 	inc	sp
   1875 21 03 00      [10] 4883 	ld	hl, #3+0
   1878 39            [11] 4884 	add	hl, sp
   1879 7E            [ 7] 4885 	ld	a, (hl)
   187A F5            [11] 4886 	push	af
   187B 33            [ 6] 4887 	inc	sp
   187C CDrAFr17      [17] 4888 	call	_drawScrolls
   187F F1            [10] 4889 	pop	af
   1880 C9            [10] 4890 	ret
                           4891 ;src/includes/game.h:1: void windowInfoTile(u8 x, u8 y)
                           4892 ;	---------------------------------
                           4893 ; Function windowInfoTile
                           4894 ; ---------------------------------
   1881                    4895 _windowInfoTile::
   1881 DD E5         [15] 4896 	push	ix
   1883 DD 21 00 00   [14] 4897 	ld	ix,#0
   1887 DD 39         [15] 4898 	add	ix,sp
   1889 21 F8 FF      [10] 4899 	ld	hl,#-8
   188C 39            [11] 4900 	add	hl,sp
   188D F9            [ 6] 4901 	ld	sp,hl
                           4902 ;src/includes/game.h:5: switch(p_world[y*WIDTH+x])
   188E DD 4E 05      [19] 4903 	ld	c,5 (ix)
   1891 06 00         [ 7] 4904 	ld	b,#0x00
   1893 69            [ 4] 4905 	ld	l, c
   1894 60            [ 4] 4906 	ld	h, b
   1895 29            [11] 4907 	add	hl, hl
   1896 29            [11] 4908 	add	hl, hl
   1897 09            [11] 4909 	add	hl, bc
   1898 29            [11] 4910 	add	hl, hl
   1899 29            [11] 4911 	add	hl, hl
   189A 29            [11] 4912 	add	hl, hl
   189B 29            [11] 4913 	add	hl, hl
   189C DD 5E 04      [19] 4914 	ld	e,4 (ix)
   189F 16 00         [ 7] 4915 	ld	d,#0x00
   18A1 19            [11] 4916 	add	hl,de
   18A2 11r00r00      [10] 4917 	ld	de,#_p_world
   18A5 19            [11] 4918 	add	hl,de
   18A6 4E            [ 7] 4919 	ld	c,(hl)
   18A7 3E 09         [ 7] 4920 	ld	a,#0x09
   18A9 91            [ 4] 4921 	sub	a, c
   18AA DArDBr19      [10] 4922 	jp	C,00111$
   18AD 59            [ 4] 4923 	ld	e,c
   18AE 16 00         [ 7] 4924 	ld	d,#0x00
   18B0 21rB7r18      [10] 4925 	ld	hl,#00119$
   18B3 19            [11] 4926 	add	hl,de
   18B4 19            [11] 4927 	add	hl,de
   18B5 19            [11] 4928 	add	hl,de
   18B6 E9            [ 4] 4929 	jp	(hl)
   18B7                    4930 00119$:
   18B7 C3rD5r18      [10] 4931 	jp	00101$
   18BA C3rD5r18      [10] 4932 	jp	00102$
   18BD C3r01r19      [10] 4933 	jp	00103$
   18C0 C3r01r19      [10] 4934 	jp	00104$
   18C3 C3r01r19      [10] 4935 	jp	00105$
   18C6 C3r2Dr19      [10] 4936 	jp	00106$
   18C9 C3r2Dr19      [10] 4937 	jp	00107$
   18CC C3r59r19      [10] 4938 	jp	00108$
   18CF C3r85r19      [10] 4939 	jp	00109$
   18D2 C3rB0r19      [10] 4940 	jp	00110$
                           4941 ;src/includes/game.h:7: case GRASS1:
   18D5                    4942 00101$:
                           4943 ;src/includes/game.h:8: case GRASS2:
   18D5                    4944 00102$:
                           4945 ;src/includes/game.h:9: txtWindowInfoTile[0] = "Grassland";
   18D5 21 00 00      [10] 4946 	ld	hl,#0x0000
   18D8 39            [11] 4947 	add	hl,sp
   18D9 5D            [ 4] 4948 	ld	e,l
   18DA 54            [ 4] 4949 	ld	d,h
   18DB 36r16         [10] 4950 	ld	(hl),#<(___str_2)
   18DD 23            [ 6] 4951 	inc	hl
   18DE 36s1A         [10] 4952 	ld	(hl),#>(___str_2)
                           4953 ;src/includes/game.h:10: txtWindowInfoTile[1] = "";
   18E0 6B            [ 4] 4954 	ld	l, e
   18E1 62            [ 4] 4955 	ld	h, d
   18E2 23            [ 6] 4956 	inc	hl
   18E3 23            [ 6] 4957 	inc	hl
   18E4 01r20r1A      [10] 4958 	ld	bc,#___str_3+0
   18E7 71            [ 7] 4959 	ld	(hl),c
   18E8 23            [ 6] 4960 	inc	hl
   18E9 70            [ 7] 4961 	ld	(hl),b
                           4962 ;src/includes/game.h:11: txtWindowInfoTile[2] = "Production: nothing";
   18EA 21 04 00      [10] 4963 	ld	hl,#0x0004
   18ED 19            [11] 4964 	add	hl,de
   18EE 01r21r1A      [10] 4965 	ld	bc,#___str_4+0
   18F1 71            [ 7] 4966 	ld	(hl),c
   18F2 23            [ 6] 4967 	inc	hl
   18F3 70            [ 7] 4968 	ld	(hl),b
                           4969 ;src/includes/game.h:12: txtWindowInfoTile[3] = "Demand: nothing";
   18F4 21 06 00      [10] 4970 	ld	hl,#0x0006
   18F7 19            [11] 4971 	add	hl,de
   18F8 11r35r1A      [10] 4972 	ld	de,#___str_5+0
   18FB 73            [ 7] 4973 	ld	(hl),e
   18FC 23            [ 6] 4974 	inc	hl
   18FD 72            [ 7] 4975 	ld	(hl),d
                           4976 ;src/includes/game.h:13: break;
   18FE C3r04r1A      [10] 4977 	jp	00112$
                           4978 ;src/includes/game.h:14: case DWELLINGS1:
   1901                    4979 00103$:
                           4980 ;src/includes/game.h:15: case DWELLINGS2:
   1901                    4981 00104$:
                           4982 ;src/includes/game.h:16: case DWELLINGS3:
   1901                    4983 00105$:
                           4984 ;src/includes/game.h:17: txtWindowInfoTile[0] = "City";
   1901 21 00 00      [10] 4985 	ld	hl,#0x0000
   1904 39            [11] 4986 	add	hl,sp
   1905 5D            [ 4] 4987 	ld	e,l
   1906 54            [ 4] 4988 	ld	d,h
   1907 36r45         [10] 4989 	ld	(hl),#<(___str_6)
   1909 23            [ 6] 4990 	inc	hl
   190A 36s1A         [10] 4991 	ld	(hl),#>(___str_6)
                           4992 ;src/includes/game.h:18: txtWindowInfoTile[1] = "";
   190C 6B            [ 4] 4993 	ld	l, e
   190D 62            [ 4] 4994 	ld	h, d
   190E 23            [ 6] 4995 	inc	hl
   190F 23            [ 6] 4996 	inc	hl
   1910 01r20r1A      [10] 4997 	ld	bc,#___str_3+0
   1913 71            [ 7] 4998 	ld	(hl),c
   1914 23            [ 6] 4999 	inc	hl
   1915 70            [ 7] 5000 	ld	(hl),b
                           5001 ;src/includes/game.h:19: txtWindowInfoTile[2] = "Production: Passengers, mail";
   1916 21 04 00      [10] 5002 	ld	hl,#0x0004
   1919 19            [11] 5003 	add	hl,de
   191A 01r4Ar1A      [10] 5004 	ld	bc,#___str_7+0
   191D 71            [ 7] 5005 	ld	(hl),c
   191E 23            [ 6] 5006 	inc	hl
   191F 70            [ 7] 5007 	ld	(hl),b
                           5008 ;src/includes/game.h:20: txtWindowInfoTile[3] = "Demand: Passenger, mail, food, goods";
   1920 21 06 00      [10] 5009 	ld	hl,#0x0006
   1923 19            [11] 5010 	add	hl,de
   1924 11r67r1A      [10] 5011 	ld	de,#___str_8+0
   1927 73            [ 7] 5012 	ld	(hl),e
   1928 23            [ 6] 5013 	inc	hl
   1929 72            [ 7] 5014 	ld	(hl),d
                           5015 ;src/includes/game.h:21: break;
   192A C3r04r1A      [10] 5016 	jp	00112$
                           5017 ;src/includes/game.h:22: case FARM1:
   192D                    5018 00106$:
                           5019 ;src/includes/game.h:23: case FARM2:
   192D                    5020 00107$:
                           5021 ;src/includes/game.h:24: txtWindowInfoTile[0] = "Farm";
   192D 21 00 00      [10] 5022 	ld	hl,#0x0000
   1930 39            [11] 5023 	add	hl,sp
   1931 5D            [ 4] 5024 	ld	e,l
   1932 54            [ 4] 5025 	ld	d,h
   1933 36r8C         [10] 5026 	ld	(hl),#<(___str_9)
   1935 23            [ 6] 5027 	inc	hl
   1936 36s1A         [10] 5028 	ld	(hl),#>(___str_9)
                           5029 ;src/includes/game.h:25: txtWindowInfoTile[1] = "";
   1938 6B            [ 4] 5030 	ld	l, e
   1939 62            [ 4] 5031 	ld	h, d
   193A 23            [ 6] 5032 	inc	hl
   193B 23            [ 6] 5033 	inc	hl
   193C 01r20r1A      [10] 5034 	ld	bc,#___str_3+0
   193F 71            [ 7] 5035 	ld	(hl),c
   1940 23            [ 6] 5036 	inc	hl
   1941 70            [ 7] 5037 	ld	(hl),b
                           5038 ;src/includes/game.h:26: txtWindowInfoTile[2] = "Production: Cereal";
   1942 21 04 00      [10] 5039 	ld	hl,#0x0004
   1945 19            [11] 5040 	add	hl,de
   1946 01r91r1A      [10] 5041 	ld	bc,#___str_10+0
   1949 71            [ 7] 5042 	ld	(hl),c
   194A 23            [ 6] 5043 	inc	hl
   194B 70            [ 7] 5044 	ld	(hl),b
                           5045 ;src/includes/game.h:27: txtWindowInfoTile[3] = "Demand: Nothing";
   194C 21 06 00      [10] 5046 	ld	hl,#0x0006
   194F 19            [11] 5047 	add	hl,de
   1950 11rA4r1A      [10] 5048 	ld	de,#___str_11+0
   1953 73            [ 7] 5049 	ld	(hl),e
   1954 23            [ 6] 5050 	inc	hl
   1955 72            [ 7] 5051 	ld	(hl),d
                           5052 ;src/includes/game.h:28: break;
   1956 C3r04r1A      [10] 5053 	jp	00112$
                           5054 ;src/includes/game.h:29: case WATER:
   1959                    5055 00108$:
                           5056 ;src/includes/game.h:30: txtWindowInfoTile[0] = "Water";
   1959 21 00 00      [10] 5057 	ld	hl,#0x0000
   195C 39            [11] 5058 	add	hl,sp
   195D 5D            [ 4] 5059 	ld	e,l
   195E 54            [ 4] 5060 	ld	d,h
   195F 36rB4         [10] 5061 	ld	(hl),#<(___str_12)
   1961 23            [ 6] 5062 	inc	hl
   1962 36s1A         [10] 5063 	ld	(hl),#>(___str_12)
                           5064 ;src/includes/game.h:31: txtWindowInfoTile[1] = "";
   1964 6B            [ 4] 5065 	ld	l, e
   1965 62            [ 4] 5066 	ld	h, d
   1966 23            [ 6] 5067 	inc	hl
   1967 23            [ 6] 5068 	inc	hl
   1968 01r20r1A      [10] 5069 	ld	bc,#___str_3+0
   196B 71            [ 7] 5070 	ld	(hl),c
   196C 23            [ 6] 5071 	inc	hl
   196D 70            [ 7] 5072 	ld	(hl),b
                           5073 ;src/includes/game.h:32: txtWindowInfoTile[2] = "Production: Nothing";
   196E 21 04 00      [10] 5074 	ld	hl,#0x0004
   1971 19            [11] 5075 	add	hl,de
   1972 01rBAr1A      [10] 5076 	ld	bc,#___str_13+0
   1975 71            [ 7] 5077 	ld	(hl),c
   1976 23            [ 6] 5078 	inc	hl
   1977 70            [ 7] 5079 	ld	(hl),b
                           5080 ;src/includes/game.h:33: txtWindowInfoTile[3] = "Demand: Nothing";
   1978 21 06 00      [10] 5081 	ld	hl,#0x0006
   197B 19            [11] 5082 	add	hl,de
   197C 11rA4r1A      [10] 5083 	ld	de,#___str_11+0
   197F 73            [ 7] 5084 	ld	(hl),e
   1980 23            [ 6] 5085 	inc	hl
   1981 72            [ 7] 5086 	ld	(hl),d
                           5087 ;src/includes/game.h:34: break;
   1982 C3r04r1A      [10] 5088 	jp	00112$
                           5089 ;src/includes/game.h:35: case FOREST:
   1985                    5090 00109$:
                           5091 ;src/includes/game.h:36: txtWindowInfoTile[0] = "Forest";
   1985 21 00 00      [10] 5092 	ld	hl,#0x0000
   1988 39            [11] 5093 	add	hl,sp
   1989 5D            [ 4] 5094 	ld	e,l
   198A 54            [ 4] 5095 	ld	d,h
   198B 36rCE         [10] 5096 	ld	(hl),#<(___str_14)
   198D 23            [ 6] 5097 	inc	hl
   198E 36s1A         [10] 5098 	ld	(hl),#>(___str_14)
                           5099 ;src/includes/game.h:37: txtWindowInfoTile[1] = "";
   1990 6B            [ 4] 5100 	ld	l, e
   1991 62            [ 4] 5101 	ld	h, d
   1992 23            [ 6] 5102 	inc	hl
   1993 23            [ 6] 5103 	inc	hl
   1994 01r20r1A      [10] 5104 	ld	bc,#___str_3+0
   1997 71            [ 7] 5105 	ld	(hl),c
   1998 23            [ 6] 5106 	inc	hl
   1999 70            [ 7] 5107 	ld	(hl),b
                           5108 ;src/includes/game.h:38: txtWindowInfoTile[2] = "Production: Nothing";
   199A 21 04 00      [10] 5109 	ld	hl,#0x0004
   199D 19            [11] 5110 	add	hl,de
   199E 01rBAr1A      [10] 5111 	ld	bc,#___str_13+0
   19A1 71            [ 7] 5112 	ld	(hl),c
   19A2 23            [ 6] 5113 	inc	hl
   19A3 70            [ 7] 5114 	ld	(hl),b
                           5115 ;src/includes/game.h:39: txtWindowInfoTile[3] = "Demand: Nothing";
   19A4 21 06 00      [10] 5116 	ld	hl,#0x0006
   19A7 19            [11] 5117 	add	hl,de
   19A8 11rA4r1A      [10] 5118 	ld	de,#___str_11+0
   19AB 73            [ 7] 5119 	ld	(hl),e
   19AC 23            [ 6] 5120 	inc	hl
   19AD 72            [ 7] 5121 	ld	(hl),d
                           5122 ;src/includes/game.h:40: break;
   19AE 18 54         [12] 5123 	jr	00112$
                           5124 ;src/includes/game.h:41: case LIVESTOCK:
   19B0                    5125 00110$:
                           5126 ;src/includes/game.h:42: txtWindowInfoTile[0] = "Livestock farming";
   19B0 21 00 00      [10] 5127 	ld	hl,#0x0000
   19B3 39            [11] 5128 	add	hl,sp
   19B4 5D            [ 4] 5129 	ld	e,l
   19B5 54            [ 4] 5130 	ld	d,h
   19B6 36rD5         [10] 5131 	ld	(hl),#<(___str_15)
   19B8 23            [ 6] 5132 	inc	hl
   19B9 36s1A         [10] 5133 	ld	(hl),#>(___str_15)
                           5134 ;src/includes/game.h:43: txtWindowInfoTile[1] = "";
   19BB 6B            [ 4] 5135 	ld	l, e
   19BC 62            [ 4] 5136 	ld	h, d
   19BD 23            [ 6] 5137 	inc	hl
   19BE 23            [ 6] 5138 	inc	hl
   19BF 01r20r1A      [10] 5139 	ld	bc,#___str_3+0
   19C2 71            [ 7] 5140 	ld	(hl),c
   19C3 23            [ 6] 5141 	inc	hl
   19C4 70            [ 7] 5142 	ld	(hl),b
                           5143 ;src/includes/game.h:44: txtWindowInfoTile[2] = "Production: Livestock, wool";
   19C5 21 04 00      [10] 5144 	ld	hl,#0x0004
   19C8 19            [11] 5145 	add	hl,de
   19C9 01rE7r1A      [10] 5146 	ld	bc,#___str_16+0
   19CC 71            [ 7] 5147 	ld	(hl),c
   19CD 23            [ 6] 5148 	inc	hl
   19CE 70            [ 7] 5149 	ld	(hl),b
                           5150 ;src/includes/game.h:45: txtWindowInfoTile[3] = "Demand: Cereal";
   19CF 21 06 00      [10] 5151 	ld	hl,#0x0006
   19D2 19            [11] 5152 	add	hl,de
   19D3 11r03r1B      [10] 5153 	ld	de,#___str_17+0
   19D6 73            [ 7] 5154 	ld	(hl),e
   19D7 23            [ 6] 5155 	inc	hl
   19D8 72            [ 7] 5156 	ld	(hl),d
                           5157 ;src/includes/game.h:46: break;
   19D9 18 29         [12] 5158 	jr	00112$
                           5159 ;src/includes/game.h:47: default:
   19DB                    5160 00111$:
                           5161 ;src/includes/game.h:48: txtWindowInfoTile[0] = "Not yet implemented";
   19DB 21 00 00      [10] 5162 	ld	hl,#0x0000
   19DE 39            [11] 5163 	add	hl,sp
   19DF 5D            [ 4] 5164 	ld	e,l
   19E0 54            [ 4] 5165 	ld	d,h
   19E1 36r12         [10] 5166 	ld	(hl),#<(___str_18)
   19E3 23            [ 6] 5167 	inc	hl
   19E4 36s1B         [10] 5168 	ld	(hl),#>(___str_18)
                           5169 ;src/includes/game.h:49: txtWindowInfoTile[1] = "";
   19E6 6B            [ 4] 5170 	ld	l, e
   19E7 62            [ 4] 5171 	ld	h, d
   19E8 23            [ 6] 5172 	inc	hl
   19E9 23            [ 6] 5173 	inc	hl
   19EA 01r20r1A      [10] 5174 	ld	bc,#___str_3+0
   19ED 71            [ 7] 5175 	ld	(hl),c
   19EE 23            [ 6] 5176 	inc	hl
   19EF 70            [ 7] 5177 	ld	(hl),b
                           5178 ;src/includes/game.h:50: txtWindowInfoTile[2] = "Production: ?";
   19F0 21 04 00      [10] 5179 	ld	hl,#0x0004
   19F3 19            [11] 5180 	add	hl,de
   19F4 01r26r1B      [10] 5181 	ld	bc,#___str_19+0
   19F7 71            [ 7] 5182 	ld	(hl),c
   19F8 23            [ 6] 5183 	inc	hl
   19F9 70            [ 7] 5184 	ld	(hl),b
                           5185 ;src/includes/game.h:51: txtWindowInfoTile[3] = "Demand: ?";
   19FA 21 06 00      [10] 5186 	ld	hl,#0x0006
   19FD 19            [11] 5187 	add	hl,de
   19FE 11r34r1B      [10] 5188 	ld	de,#___str_20+0
   1A01 73            [ 7] 5189 	ld	(hl),e
   1A02 23            [ 6] 5190 	inc	hl
   1A03 72            [ 7] 5191 	ld	(hl),d
                           5192 ;src/includes/game.h:53: }
   1A04                    5193 00112$:
                           5194 ;src/includes/game.h:55: drawWindow(txtWindowInfoTile, 4, 0);
   1A04 21 00 00      [10] 5195 	ld	hl,#0x0000
   1A07 39            [11] 5196 	add	hl,sp
   1A08 EB            [ 4] 5197 	ex	de,hl
   1A09 21 04 00      [10] 5198 	ld	hl,#0x0004
   1A0C E5            [11] 5199 	push	hl
   1A0D D5            [11] 5200 	push	de
   1A0E CDrC1r0B      [17] 5201 	call	_drawWindow
   1A11 DD F9         [10] 5202 	ld	sp,ix
   1A13 DD E1         [14] 5203 	pop	ix
   1A15 C9            [10] 5204 	ret
   1A16                    5205 ___str_2:
   1A16 47 72 61 73 73 6C  5206 	.ascii "Grassland"
        61 6E 64
   1A1F 00                 5207 	.db 0x00
   1A20                    5208 ___str_3:
   1A20 00                 5209 	.db 0x00
   1A21                    5210 ___str_4:
   1A21 50 72 6F 64 75 63  5211 	.ascii "Production: nothing"
        74 69 6F 6E 3A 20
        6E 6F 74 68 69 6E
        67
   1A34 00                 5212 	.db 0x00
   1A35                    5213 ___str_5:
   1A35 44 65 6D 61 6E 64  5214 	.ascii "Demand: nothing"
        3A 20 6E 6F 74 68
        69 6E 67
   1A44 00                 5215 	.db 0x00
   1A45                    5216 ___str_6:
   1A45 43 69 74 79        5217 	.ascii "City"
   1A49 00                 5218 	.db 0x00
   1A4A                    5219 ___str_7:
   1A4A 50 72 6F 64 75 63  5220 	.ascii "Production: Passengers, mail"
        74 69 6F 6E 3A 20
        50 61 73 73 65 6E
        67 65 72 73 2C 20
        6D 61 69 6C
   1A66 00                 5221 	.db 0x00
   1A67                    5222 ___str_8:
   1A67 44 65 6D 61 6E 64  5223 	.ascii "Demand: Passenger, mail, food, goods"
        3A 20 50 61 73 73
        65 6E 67 65 72 2C
        20 6D 61 69 6C 2C
        20 66 6F 6F 64 2C
        20 67 6F 6F 64 73
   1A8B 00                 5224 	.db 0x00
   1A8C                    5225 ___str_9:
   1A8C 46 61 72 6D        5226 	.ascii "Farm"
   1A90 00                 5227 	.db 0x00
   1A91                    5228 ___str_10:
   1A91 50 72 6F 64 75 63  5229 	.ascii "Production: Cereal"
        74 69 6F 6E 3A 20
        43 65 72 65 61 6C
   1AA3 00                 5230 	.db 0x00
   1AA4                    5231 ___str_11:
   1AA4 44 65 6D 61 6E 64  5232 	.ascii "Demand: Nothing"
        3A 20 4E 6F 74 68
        69 6E 67
   1AB3 00                 5233 	.db 0x00
   1AB4                    5234 ___str_12:
   1AB4 57 61 74 65 72     5235 	.ascii "Water"
   1AB9 00                 5236 	.db 0x00
   1ABA                    5237 ___str_13:
   1ABA 50 72 6F 64 75 63  5238 	.ascii "Production: Nothing"
        74 69 6F 6E 3A 20
        4E 6F 74 68 69 6E
        67
   1ACD 00                 5239 	.db 0x00
   1ACE                    5240 ___str_14:
   1ACE 46 6F 72 65 73 74  5241 	.ascii "Forest"
   1AD4 00                 5242 	.db 0x00
   1AD5                    5243 ___str_15:
   1AD5 4C 69 76 65 73 74  5244 	.ascii "Livestock farming"
        6F 63 6B 20 66 61
        72 6D 69 6E 67
   1AE6 00                 5245 	.db 0x00
   1AE7                    5246 ___str_16:
   1AE7 50 72 6F 64 75 63  5247 	.ascii "Production: Livestock, wool"
        74 69 6F 6E 3A 20
        4C 69 76 65 73 74
        6F 63 6B 2C 20 77
        6F 6F 6C
   1B02 00                 5248 	.db 0x00
   1B03                    5249 ___str_17:
   1B03 44 65 6D 61 6E 64  5250 	.ascii "Demand: Cereal"
        3A 20 43 65 72 65
        61 6C
   1B11 00                 5251 	.db 0x00
   1B12                    5252 ___str_18:
   1B12 4E 6F 74 20 79 65  5253 	.ascii "Not yet implemented"
        74 20 69 6D 70 6C
        65 6D 65 6E 74 65
        64
   1B25 00                 5254 	.db 0x00
   1B26                    5255 ___str_19:
   1B26 50 72 6F 64 75 63  5256 	.ascii "Production: ?"
        74 69 6F 6E 3A 20
        3F
   1B33 00                 5257 	.db 0x00
   1B34                    5258 ___str_20:
   1B34 44 65 6D 61 6E 64  5259 	.ascii "Demand: ?"
        3A 20 3F
   1B3D 00                 5260 	.db 0x00
                           5261 ;src/includes/game.h:58: void menuStations()
                           5262 ;	---------------------------------
                           5263 ; Function menuStations
                           5264 ; ---------------------------------
   1B3E                    5265 _menuStations::
   1B3E DD E5         [15] 5266 	push	ix
   1B40 DD 21 00 00   [14] 5267 	ld	ix,#0
   1B44 DD 39         [15] 5268 	add	ix,sp
   1B46 21 FA FF      [10] 5269 	ld	hl,#-6
   1B49 39            [11] 5270 	add	hl,sp
   1B4A F9            [ 6] 5271 	ld	sp,hl
                           5272 ;src/includes/game.h:62: const char *txtMenuSizeStation[] = { 
   1B4B 21 00 00      [10] 5273 	ld	hl,#0x0000
   1B4E 39            [11] 5274 	add	hl,sp
   1B4F 5D            [ 4] 5275 	ld	e,l
   1B50 54            [ 4] 5276 	ld	d,h
   1B51 36rA0         [10] 5277 	ld	(hl),#<(___str_21)
   1B53 23            [ 6] 5278 	inc	hl
   1B54 36s1B         [10] 5279 	ld	(hl),#>(___str_21)
   1B56 6B            [ 4] 5280 	ld	l, e
   1B57 62            [ 4] 5281 	ld	h, d
   1B58 23            [ 6] 5282 	inc	hl
   1B59 23            [ 6] 5283 	inc	hl
   1B5A 01rA6r1B      [10] 5284 	ld	bc,#___str_22+0
   1B5D 71            [ 7] 5285 	ld	(hl),c
   1B5E 23            [ 6] 5286 	inc	hl
   1B5F 70            [ 7] 5287 	ld	(hl),b
   1B60 21 04 00      [10] 5288 	ld	hl,#0x0004
   1B63 19            [11] 5289 	add	hl,de
   1B64 01rADr1B      [10] 5290 	ld	bc,#___str_23+0
   1B67 71            [ 7] 5291 	ld	(hl),c
   1B68 23            [ 6] 5292 	inc	hl
   1B69 70            [ 7] 5293 	ld	(hl),b
                           5294 ;src/includes/game.h:68: result = drawMenu(txtMenuSizeStation,3);
   1B6A 3E 03         [ 7] 5295 	ld	a,#0x03
   1B6C F5            [11] 5296 	push	af
   1B6D 33            [ 6] 5297 	inc	sp
   1B6E D5            [11] 5298 	push	de
   1B6F CDrC3r0A      [17] 5299 	call	_drawMenu
   1B72 F1            [10] 5300 	pop	af
   1B73 33            [ 6] 5301 	inc	sp
   1B74 5D            [ 4] 5302 	ld	e,l
                           5303 ;src/includes/game.h:70: switch(result)
   1B75 3E 02         [ 7] 5304 	ld	a,#0x02
   1B77 93            [ 4] 5305 	sub	a, e
   1B78 38 21         [12] 5306 	jr	C,00105$
   1B7A 16 00         [ 7] 5307 	ld	d,#0x00
   1B7C 21r82r1B      [10] 5308 	ld	hl,#00111$
   1B7F 19            [11] 5309 	add	hl,de
   1B80 19            [11] 5310 	add	hl,de
                           5311 ;src/includes/game.h:72: case 0:
   1B81 E9            [ 4] 5312 	jp	(hl)
   1B82                    5313 00111$:
   1B82 18 04         [12] 5314 	jr	00101$
   1B84 18 09         [12] 5315 	jr	00102$
   1B86 18 0E         [12] 5316 	jr	00103$
   1B88                    5317 00101$:
                           5318 ;src/includes/game.h:73: CURSOR_MODE=T_SSEW;
   1B88 21r00r00      [10] 5319 	ld	hl,#_CURSOR_MODE + 0
   1B8B 36 02         [10] 5320 	ld	(hl), #0x02
                           5321 ;src/includes/game.h:74: break;
   1B8D 18 0C         [12] 5322 	jr	00105$
                           5323 ;src/includes/game.h:76: case 1:
   1B8F                    5324 00102$:
                           5325 ;src/includes/game.h:77: CURSOR_MODE=T_SMEW;
   1B8F 21r00r00      [10] 5326 	ld	hl,#_CURSOR_MODE + 0
   1B92 36 04         [10] 5327 	ld	(hl), #0x04
                           5328 ;src/includes/game.h:78: break;
   1B94 18 05         [12] 5329 	jr	00105$
                           5330 ;src/includes/game.h:80: case 2:
   1B96                    5331 00103$:
                           5332 ;src/includes/game.h:81: CURSOR_MODE=T_SLEW;
   1B96 21r00r00      [10] 5333 	ld	hl,#_CURSOR_MODE + 0
   1B99 36 06         [10] 5334 	ld	(hl), #0x06
                           5335 ;src/includes/game.h:83: }
   1B9B                    5336 00105$:
   1B9B DD F9         [10] 5337 	ld	sp, ix
   1B9D DD E1         [14] 5338 	pop	ix
   1B9F C9            [10] 5339 	ret
   1BA0                    5340 ___str_21:
   1BA0 53 6D 61 6C 6C     5341 	.ascii "Small"
   1BA5 00                 5342 	.db 0x00
   1BA6                    5343 ___str_22:
   1BA6 4D 65 64 69 75 6D  5344 	.ascii "Medium"
   1BAC 00                 5345 	.db 0x00
   1BAD                    5346 ___str_23:
   1BAD 4C 61 72 67 65     5347 	.ascii "Large"
   1BB2 00                 5348 	.db 0x00
                           5349 ;src/includes/game.h:86: void menuTile(u8 x, u8 y)
                           5350 ;	---------------------------------
                           5351 ; Function menuTile
                           5352 ; ---------------------------------
   1BB3                    5353 _menuTile::
   1BB3 DD E5         [15] 5354 	push	ix
   1BB5 DD 21 00 00   [14] 5355 	ld	ix,#0
   1BB9 DD 39         [15] 5356 	add	ix,sp
   1BBB 21 E6 FF      [10] 5357 	ld	hl,#-26
   1BBE 39            [11] 5358 	add	hl,sp
   1BBF F9            [ 6] 5359 	ld	sp,hl
                           5360 ;src/includes/game.h:90: const char *txtMenuTile[] = { 
   1BC0 21 06 00      [10] 5361 	ld	hl,#0x0006
   1BC3 39            [11] 5362 	add	hl,sp
   1BC4 5D            [ 4] 5363 	ld	e,l
   1BC5 54            [ 4] 5364 	ld	d,h
   1BC6 36rDB         [10] 5365 	ld	(hl),#<(___str_24)
   1BC8 23            [ 6] 5366 	inc	hl
   1BC9 36s1C         [10] 5367 	ld	(hl),#>(___str_24)
   1BCB 6B            [ 4] 5368 	ld	l, e
   1BCC 62            [ 4] 5369 	ld	h, d
   1BCD 23            [ 6] 5370 	inc	hl
   1BCE 23            [ 6] 5371 	inc	hl
   1BCF 01rEBr1C      [10] 5372 	ld	bc,#___str_25+0
   1BD2 71            [ 7] 5373 	ld	(hl),c
   1BD3 23            [ 6] 5374 	inc	hl
   1BD4 70            [ 7] 5375 	ld	(hl),b
   1BD5 21 04 00      [10] 5376 	ld	hl,#0x0004
   1BD8 19            [11] 5377 	add	hl,de
   1BD9 01rFBr1C      [10] 5378 	ld	bc,#___str_26+0
   1BDC 71            [ 7] 5379 	ld	(hl),c
   1BDD 23            [ 6] 5380 	inc	hl
   1BDE 70            [ 7] 5381 	ld	(hl),b
   1BDF 21 06 00      [10] 5382 	ld	hl,#0x0006
   1BE2 19            [11] 5383 	add	hl,de
   1BE3 01r0Br1D      [10] 5384 	ld	bc,#___str_27+0
   1BE6 71            [ 7] 5385 	ld	(hl),c
   1BE7 23            [ 6] 5386 	inc	hl
   1BE8 70            [ 7] 5387 	ld	(hl),b
   1BE9 21 08 00      [10] 5388 	ld	hl,#0x0008
   1BEC 19            [11] 5389 	add	hl,de
   1BED 01r13r1D      [10] 5390 	ld	bc,#___str_28+0
   1BF0 71            [ 7] 5391 	ld	(hl),c
   1BF1 23            [ 6] 5392 	inc	hl
   1BF2 70            [ 7] 5393 	ld	(hl),b
   1BF3 21 0A 00      [10] 5394 	ld	hl,#0x000A
   1BF6 19            [11] 5395 	add	hl,de
   1BF7 01r22r1D      [10] 5396 	ld	bc,#___str_29+0
   1BFA 71            [ 7] 5397 	ld	(hl),c
   1BFB 23            [ 6] 5398 	inc	hl
   1BFC 70            [ 7] 5399 	ld	(hl),b
   1BFD 21 0C 00      [10] 5400 	ld	hl,#0x000C
   1C00 19            [11] 5401 	add	hl,de
   1C01 01r2Dr1D      [10] 5402 	ld	bc,#___str_30+0
   1C04 71            [ 7] 5403 	ld	(hl),c
   1C05 23            [ 6] 5404 	inc	hl
   1C06 70            [ 7] 5405 	ld	(hl),b
                           5406 ;src/includes/game.h:100: const char *txtWindowDestroy[] = { 
   1C07 21 00 00      [10] 5407 	ld	hl,#0x0000
   1C0A 39            [11] 5408 	add	hl,sp
   1C0B 4D            [ 4] 5409 	ld	c,l
   1C0C 44            [ 4] 5410 	ld	b,h
   1C0D 36r34         [10] 5411 	ld	(hl),#<(___str_31)
   1C0F 23            [ 6] 5412 	inc	hl
   1C10 36s1D         [10] 5413 	ld	(hl),#>(___str_31)
   1C12 21 02 00      [10] 5414 	ld	hl,#0x0002
   1C15 09            [11] 5415 	add	hl,bc
   1C16 DD 75 FE      [19] 5416 	ld	-2 (ix),l
   1C19 DD 74 FF      [19] 5417 	ld	-1 (ix),h
   1C1C DD 6E FE      [19] 5418 	ld	l,-2 (ix)
   1C1F DD 66 FF      [19] 5419 	ld	h,-1 (ix)
   1C22 36r57         [10] 5420 	ld	(hl),#<(___str_32)
   1C24 23            [ 6] 5421 	inc	hl
   1C25 36s1D         [10] 5422 	ld	(hl),#>(___str_32)
   1C27 21 04 00      [10] 5423 	ld	hl,#0x0004
   1C2A 09            [11] 5424 	add	hl,bc
   1C2B DD 75 FE      [19] 5425 	ld	-2 (ix),l
   1C2E DD 74 FF      [19] 5426 	ld	-1 (ix),h
   1C31 DD 6E FE      [19] 5427 	ld	l,-2 (ix)
   1C34 DD 66 FF      [19] 5428 	ld	h,-1 (ix)
   1C37 36r58         [10] 5429 	ld	(hl),#<(___str_33)
   1C39 23            [ 6] 5430 	inc	hl
   1C3A 36s1D         [10] 5431 	ld	(hl),#>(___str_33)
                           5432 ;src/includes/game.h:107: putM2();
   1C3C C5            [11] 5433 	push	bc
   1C3D D5            [11] 5434 	push	de
   1C3E CDrBDr06      [17] 5435 	call	_putM2
   1C41 D1            [10] 5436 	pop	de
   1C42 C1            [10] 5437 	pop	bc
                           5438 ;src/includes/game.h:109: do{
   1C43 D5            [11] 5439 	push	de
   1C44 DD 5E 05      [19] 5440 	ld	e,5 (ix)
   1C47 16 00         [ 7] 5441 	ld	d,#0x00
   1C49 6B            [ 4] 5442 	ld	l, e
   1C4A 62            [ 4] 5443 	ld	h, d
   1C4B 29            [11] 5444 	add	hl, hl
   1C4C 29            [11] 5445 	add	hl, hl
   1C4D 19            [11] 5446 	add	hl, de
   1C4E 29            [11] 5447 	add	hl, hl
   1C4F 29            [11] 5448 	add	hl, hl
   1C50 29            [11] 5449 	add	hl, hl
   1C51 29            [11] 5450 	add	hl, hl
   1C52 D1            [10] 5451 	pop	de
   1C53 DD 75 FE      [19] 5452 	ld	-2 (ix),l
   1C56 DD 74 FF      [19] 5453 	ld	-1 (ix),h
   1C59 DD 71 FC      [19] 5454 	ld	-4 (ix),c
   1C5C DD 70 FD      [19] 5455 	ld	-3 (ix),b
   1C5F DD 73 FA      [19] 5456 	ld	-6 (ix),e
   1C62 DD 72 FB      [19] 5457 	ld	-5 (ix),d
   1C65                    5458 00114$:
                           5459 ;src/includes/game.h:110: menuChoice = drawMenu(txtMenuTile,7);
   1C65 DD 5E FA      [19] 5460 	ld	e,-6 (ix)
   1C68 DD 56 FB      [19] 5461 	ld	d,-5 (ix)
   1C6B 3E 07         [ 7] 5462 	ld	a,#0x07
   1C6D F5            [11] 5463 	push	af
   1C6E 33            [ 6] 5464 	inc	sp
   1C6F D5            [11] 5465 	push	de
   1C70 CDrC3r0A      [17] 5466 	call	_drawMenu
   1C73 F1            [10] 5467 	pop	af
   1C74 33            [ 6] 5468 	inc	sp
   1C75 55            [ 4] 5469 	ld	d,l
                           5470 ;src/includes/game.h:112: if(menuChoice==0)
   1C76 7A            [ 4] 5471 	ld	a,d
   1C77 B7            [ 4] 5472 	or	a, a
   1C78 20 0F         [12] 5473 	jr	NZ,00112$
                           5474 ;src/includes/game.h:113: windowInfoTile(x, y);
   1C7A D5            [11] 5475 	push	de
   1C7B DD 66 05      [19] 5476 	ld	h,5 (ix)
   1C7E DD 6E 04      [19] 5477 	ld	l,4 (ix)
   1C81 E5            [11] 5478 	push	hl
   1C82 CDr81r18      [17] 5479 	call	_windowInfoTile
   1C85 F1            [10] 5480 	pop	af
   1C86 D1            [10] 5481 	pop	de
   1C87 18 45         [12] 5482 	jr	00115$
   1C89                    5483 00112$:
                           5484 ;src/includes/game.h:114: else if(menuChoice==1)
   1C89 7A            [ 4] 5485 	ld	a,d
   1C8A 3D            [ 4] 5486 	dec	a
   1C8B 20 09         [12] 5487 	jr	NZ,00109$
                           5488 ;src/includes/game.h:116: CURSOR_MODE=T_REW;
   1C8D 21r00r00      [10] 5489 	ld	hl,#_CURSOR_MODE + 0
   1C90 36 07         [10] 5490 	ld	(hl), #0x07
                           5491 ;src/includes/game.h:117: menuChoice=6;
   1C92 16 06         [ 7] 5492 	ld	d,#0x06
   1C94 18 38         [12] 5493 	jr	00115$
   1C96                    5494 00109$:
                           5495 ;src/includes/game.h:119: else if(menuChoice==2)
   1C96 7A            [ 4] 5496 	ld	a,d
   1C97 D6 02         [ 7] 5497 	sub	a, #0x02
   1C99 20 07         [12] 5498 	jr	NZ,00106$
                           5499 ;src/includes/game.h:121: menuStations();
   1C9B CDr3Er1B      [17] 5500 	call	_menuStations
                           5501 ;src/includes/game.h:122: menuChoice=6;
   1C9E 16 06         [ 7] 5502 	ld	d,#0x06
   1CA0 18 2C         [12] 5503 	jr	00115$
   1CA2                    5504 00106$:
                           5505 ;src/includes/game.h:124: else if(menuChoice==3)
   1CA2 7A            [ 4] 5506 	ld	a,d
   1CA3 D6 03         [ 7] 5507 	sub	a, #0x03
   1CA5 20 27         [12] 5508 	jr	NZ,00115$
                           5509 ;src/includes/game.h:126: if(	drawWindow(txtWindowDestroy,3,1) == 1)
   1CA7 DD 5E FC      [19] 5510 	ld	e,-4 (ix)
   1CAA DD 56 FD      [19] 5511 	ld	d,-3 (ix)
   1CAD 21 03 01      [10] 5512 	ld	hl,#0x0103
   1CB0 E5            [11] 5513 	push	hl
   1CB1 D5            [11] 5514 	push	de
   1CB2 CDrC1r0B      [17] 5515 	call	_drawWindow
   1CB5 F1            [10] 5516 	pop	af
   1CB6 F1            [10] 5517 	pop	af
   1CB7 2D            [ 4] 5518 	dec	l
   1CB8 20 12         [12] 5519 	jr	NZ,00102$
                           5520 ;src/includes/game.h:127: p_world[x+y*WIDTH] = GRASS1;
   1CBA DD 6E 04      [19] 5521 	ld	l,4 (ix)
   1CBD 26 00         [ 7] 5522 	ld	h,#0x00
   1CBF DD 5E FE      [19] 5523 	ld	e,-2 (ix)
   1CC2 DD 56 FF      [19] 5524 	ld	d,-1 (ix)
   1CC5 19            [11] 5525 	add	hl,de
   1CC6 11r00r00      [10] 5526 	ld	de,#_p_world
   1CC9 19            [11] 5527 	add	hl,de
   1CCA 36 00         [10] 5528 	ld	(hl),#0x00
   1CCC                    5529 00102$:
                           5530 ;src/includes/game.h:129: menuChoice=6;
   1CCC 16 06         [ 7] 5531 	ld	d,#0x06
   1CCE                    5532 00115$:
                           5533 ;src/includes/game.h:133: while(menuChoice!=6);
   1CCE 7A            [ 4] 5534 	ld	a,d
   1CCF D6 06         [ 7] 5535 	sub	a, #0x06
   1CD1 20 92         [12] 5536 	jr	NZ,00114$
                           5537 ;src/includes/game.h:135: putM1();
   1CD3 CDrA9r06      [17] 5538 	call	_putM1
   1CD6 DD F9         [10] 5539 	ld	sp, ix
   1CD8 DD E1         [14] 5540 	pop	ix
   1CDA C9            [10] 5541 	ret
   1CDB                    5542 ___str_24:
   1CDB 41 62 6F 75 74 20  5543 	.ascii "About this tile"
        74 68 69 73 20 74
        69 6C 65
   1CEA 00                 5544 	.db 0x00
   1CEB                    5545 ___str_25:
   1CEB 42 75 69 6C 64 20  5546 	.ascii "Build a railway"
        61 20 72 61 69 6C
        77 61 79
   1CFA 00                 5547 	.db 0x00
   1CFB                    5548 ___str_26:
   1CFB 42 75 69 6C 64 20  5549 	.ascii "Build a station"
        61 20 73 74 61 74
        69 6F 6E
   1D0A 00                 5550 	.db 0x00
   1D0B                    5551 ___str_27:
   1D0B 44 65 73 74 72 6F  5552 	.ascii "Destroy"
        79
   1D12 00                 5553 	.db 0x00
   1D13                    5554 ___str_28:
   1D13 52 61 69 6C 72 6F  5555 	.ascii "Railroad depot"
        61 64 20 64 65 70
        6F 74
   1D21 00                 5556 	.db 0x00
   1D22                    5557 ___str_29:
   1D22 41 63 63 6F 75 6E  5558 	.ascii "Accounting"
        74 69 6E 67
   1D2C 00                 5559 	.db 0x00
   1D2D                    5560 ___str_30:
   1D2D 52 65 73 75 6D 65  5561 	.ascii "Resume"
   1D33 00                 5562 	.db 0x00
   1D34                    5563 ___str_31:
   1D34 44 65 73 74 72 6F  5564 	.ascii "Destroy this place will cost 100 $"
        79 20 74 68 69 73
        20 70 6C 61 63 65
        20 77 69 6C 6C 20
        63 6F 73 74 20 31
        30 30 20 24
   1D56 00                 5565 	.db 0x00
   1D57                    5566 ___str_32:
   1D57 00                 5567 	.db 0x00
   1D58                    5568 ___str_33:
   1D58 43 6F 6E 74 69 6E  5569 	.ascii "Continue ?"
        75 65 20 3F
   1D62 00                 5570 	.db 0x00
                           5571 ;src/includes/game.h:139: void game()
                           5572 ;	---------------------------------
                           5573 ; Function game
                           5574 ; ---------------------------------
   1D63                    5575 _game::
   1D63 DD E5         [15] 5576 	push	ix
   1D65 DD 21 00 00   [14] 5577 	ld	ix,#0
   1D69 DD 39         [15] 5578 	add	ix,sp
   1D6B 21 EA FF      [10] 5579 	ld	hl,#-22
   1D6E 39            [11] 5580 	add	hl,sp
   1D6F F9            [ 6] 5581 	ld	sp,hl
                           5582 ;src/includes/game.h:142: int ulx = 0;
   1D70 DD 36 F2 00   [19] 5583 	ld	-14 (ix),#0x00
   1D74 DD 36 F3 00   [19] 5584 	ld	-13 (ix),#0x00
                           5585 ;src/includes/game.h:143: int uly = 0;
   1D78 DD 36 F4 00   [19] 5586 	ld	-12 (ix),#0x00
   1D7C DD 36 F5 00   [19] 5587 	ld	-11 (ix),#0x00
                           5588 ;src/includes/game.h:144: int xCursor = 10;
   1D80 DD 36 F6 0A   [19] 5589 	ld	-10 (ix),#0x0A
   1D84 DD 36 F7 00   [19] 5590 	ld	-9 (ix),#0x00
                           5591 ;src/includes/game.h:145: int yCursor = 6;
   1D88 DD 36 F8 06   [19] 5592 	ld	-8 (ix),#0x06
   1D8C DD 36 F9 00   [19] 5593 	ld	-7 (ix),#0x00
                           5594 ;src/includes/game.h:147: u8 exit=0;
   1D90 DD 36 FA 00   [19] 5595 	ld	-6 (ix),#0x00
                           5596 ;src/includes/game.h:150: drawBoxM2(50, 50);
   1D94 21 32 00      [10] 5597 	ld	hl,#0x0032
   1D97 E5            [11] 5598 	push	hl
   1D98 2E 32         [ 7] 5599 	ld	l, #0x32
   1D9A E5            [11] 5600 	push	hl
   1D9B CDrF9r07      [17] 5601 	call	_drawBoxM2
   1D9E F1            [10] 5602 	pop	af
                           5603 ;src/includes/game.h:151: p_video = cpct_getScreenPtr(SCR_VMEM, 32, 95);
   1D9F 21 20 5F      [10] 5604 	ld	hl, #0x5F20
   1DA2 E3            [19] 5605 	ex	(sp),hl
   1DA3 21 00 C0      [10] 5606 	ld	hl,#0xC000
   1DA6 E5            [11] 5607 	push	hl
   1DA7 CDr00r00      [17] 5608 	call	_cpct_getScreenPtr
                           5609 ;src/includes/game.h:152: cpct_drawStringM2 ("Generating world...", p_video, 0);	
   1DAA 4D            [ 4] 5610 	ld	c, l
   1DAB 44            [ 4] 5611 	ld	b, h
   1DAC 11r4Br22      [10] 5612 	ld	de,#___str_37
   1DAF AF            [ 4] 5613 	xor	a, a
   1DB0 F5            [11] 5614 	push	af
   1DB1 33            [ 6] 5615 	inc	sp
   1DB2 C5            [11] 5616 	push	bc
   1DB3 D5            [11] 5617 	push	de
   1DB4 CDr00r00      [17] 5618 	call	_cpct_drawStringM2
   1DB7 F1            [10] 5619 	pop	af
   1DB8 F1            [10] 5620 	pop	af
   1DB9 33            [ 6] 5621 	inc	sp
                           5622 ;src/includes/game.h:154: generateWorld();
   1DBA CDr90r10      [17] 5623 	call	_generateWorld
                           5624 ;src/includes/game.h:156: putM1();
   1DBD CDrA9r06      [17] 5625 	call	_putM1
                           5626 ;src/includes/game.h:157: cpct_clearScreen(cpct_px2byteM1(0,0,0,0));
   1DC0 21 00 00      [10] 5627 	ld	hl,#0x0000
   1DC3 E5            [11] 5628 	push	hl
   1DC4 2E 00         [ 7] 5629 	ld	l, #0x00
   1DC6 E5            [11] 5630 	push	hl
   1DC7 CDr00r00      [17] 5631 	call	_cpct_px2byteM1
   1DCA F1            [10] 5632 	pop	af
   1DCB F1            [10] 5633 	pop	af
   1DCC 65            [ 4] 5634 	ld	h,l
   1DCD 01 00 40      [10] 5635 	ld	bc,#0x4000
   1DD0 C5            [11] 5636 	push	bc
   1DD1 E5            [11] 5637 	push	hl
   1DD2 33            [ 6] 5638 	inc	sp
   1DD3 21 00 C0      [10] 5639 	ld	hl,#0xC000
   1DD6 E5            [11] 5640 	push	hl
   1DD7 CDr00r00      [17] 5641 	call	_cpct_memset
                           5642 ;src/includes/game.h:158: drawWorld(ulx, uly);
   1DDA 21 00 00      [10] 5643 	ld	hl,#0x0000
   1DDD E5            [11] 5644 	push	hl
   1DDE CDr48r18      [17] 5645 	call	_drawWorld
   1DE1 F1            [10] 5646 	pop	af
                           5647 ;src/includes/game.h:160: do{
   1DE2                    5648 00181$:
                           5649 ;src/includes/game.h:161: cpct_scanKeyboard(); 
   1DE2 CDr00r00      [17] 5650 	call	_cpct_scanKeyboard
                           5651 ;src/includes/game.h:163: if ( cpct_isKeyPressed(Key_CursorUp) )
   1DE5 21 00 01      [10] 5652 	ld	hl,#0x0100
   1DE8 CDr00r00      [17] 5653 	call	_cpct_isKeyPressed
   1DEB DD 75 FE      [19] 5654 	ld	-2 (ix),l
                           5655 ;src/includes/game.h:165: drawTile(ulx, uly, xCursor, yCursor);
   1DEE DD 7E F8      [19] 5656 	ld	a,-8 (ix)
   1DF1 DD 77 FF      [19] 5657 	ld	-1 (ix),a
   1DF4 DD 7E F6      [19] 5658 	ld	a,-10 (ix)
   1DF7 DD 77 FD      [19] 5659 	ld	-3 (ix),a
   1DFA DD 7E F4      [19] 5660 	ld	a,-12 (ix)
   1DFD DD 77 FC      [19] 5661 	ld	-4 (ix),a
   1E00 DD 7E F2      [19] 5662 	ld	a,-14 (ix)
   1E03 DD 77 FB      [19] 5663 	ld	-5 (ix),a
                           5664 ;src/includes/game.h:163: if ( cpct_isKeyPressed(Key_CursorUp) )
   1E06 DD 7E FE      [19] 5665 	ld	a,-2 (ix)
   1E09 B7            [ 4] 5666 	or	a, a
   1E0A CAr8Cr1E      [10] 5667 	jp	Z,00179$
                           5668 ;src/includes/game.h:165: drawTile(ulx, uly, xCursor, yCursor);
   1E0D DD 7E FF      [19] 5669 	ld	a,-1 (ix)
   1E10 F5            [11] 5670 	push	af
   1E11 33            [ 6] 5671 	inc	sp
   1E12 DD 7E FD      [19] 5672 	ld	a,-3 (ix)
   1E15 F5            [11] 5673 	push	af
   1E16 33            [ 6] 5674 	inc	sp
   1E17 DD 7E FC      [19] 5675 	ld	a,-4 (ix)
   1E1A F5            [11] 5676 	push	af
   1E1B 33            [ 6] 5677 	inc	sp
   1E1C DD 7E FB      [19] 5678 	ld	a,-5 (ix)
   1E1F F5            [11] 5679 	push	af
   1E20 33            [ 6] 5680 	inc	sp
   1E21 CDr87r15      [17] 5681 	call	_drawTile
   1E24 F1            [10] 5682 	pop	af
   1E25 F1            [10] 5683 	pop	af
                           5684 ;src/includes/game.h:167: yCursor-=1;
   1E26 DD 6E F8      [19] 5685 	ld	l,-8 (ix)
   1E29 DD 66 F9      [19] 5686 	ld	h,-7 (ix)
   1E2C 2B            [ 6] 5687 	dec	hl
   1E2D DD 75 F8      [19] 5688 	ld	-8 (ix),l
   1E30 DD 74 F9      [19] 5689 	ld	-7 (ix),h
                           5690 ;src/includes/game.h:170: if(yCursor<0)
   1E33 DD CB F9 7E   [20] 5691 	bit	7, -7 (ix)
   1E37 28 35         [12] 5692 	jr	Z,00210$
                           5693 ;src/includes/game.h:172: yCursor=0;
   1E39 DD 36 F8 00   [19] 5694 	ld	-8 (ix),#0x00
   1E3D DD 36 F9 00   [19] 5695 	ld	-7 (ix),#0x00
                           5696 ;src/includes/game.h:175: if(uly>0)
   1E41 AF            [ 4] 5697 	xor	a, a
   1E42 DD BE F4      [19] 5698 	cp	a, -12 (ix)
   1E45 DD 9E F5      [19] 5699 	sbc	a, -11 (ix)
   1E48 E2r4Dr1E      [10] 5700 	jp	PO, 00387$
   1E4B EE 80         [ 7] 5701 	xor	a, #0x80
   1E4D                    5702 00387$:
   1E4D F2r6Er1E      [10] 5703 	jp	P,00210$
                           5704 ;src/includes/game.h:177: uly-=1;
   1E50 DD 6E F4      [19] 5705 	ld	l,-12 (ix)
   1E53 DD 66 F5      [19] 5706 	ld	h,-11 (ix)
   1E56 2B            [ 6] 5707 	dec	hl
   1E57 DD 75 F4      [19] 5708 	ld	-12 (ix),l
   1E5A DD 74 F5      [19] 5709 	ld	-11 (ix),h
                           5710 ;src/includes/game.h:165: drawTile(ulx, uly, xCursor, yCursor);
   1E5D DD 7E F4      [19] 5711 	ld	a,-12 (ix)
                           5712 ;src/includes/game.h:178: drawWorld(ulx, uly);
   1E60 DD 77 FC      [19] 5713 	ld	-4 (ix), a
   1E63 F5            [11] 5714 	push	af
   1E64 33            [ 6] 5715 	inc	sp
   1E65 DD 7E FB      [19] 5716 	ld	a,-5 (ix)
   1E68 F5            [11] 5717 	push	af
   1E69 33            [ 6] 5718 	inc	sp
   1E6A CDr48r18      [17] 5719 	call	_drawWorld
   1E6D F1            [10] 5720 	pop	af
                           5721 ;src/includes/game.h:183: for(i=0; i<5000; i++) {}
   1E6E                    5722 00210$:
   1E6E DD 36 F0 88   [19] 5723 	ld	-16 (ix),#0x88
   1E72 DD 36 F1 13   [19] 5724 	ld	-15 (ix),#0x13
   1E76                    5725 00186$:
   1E76 DD 6E F0      [19] 5726 	ld	l,-16 (ix)
   1E79 DD 66 F1      [19] 5727 	ld	h,-15 (ix)
   1E7C 2B            [ 6] 5728 	dec	hl
   1E7D DD 75 F0      [19] 5729 	ld	-16 (ix),l
   1E80 DD 74 F1      [19] 5730 	ld	-15 (ix), h
   1E83 7C            [ 4] 5731 	ld	a, h
   1E84 DD B6 F0      [19] 5732 	or	a,-16 (ix)
   1E87 20 ED         [12] 5733 	jr	NZ,00186$
   1E89 C3rEAr21      [10] 5734 	jp	00180$
   1E8C                    5735 00179$:
                           5736 ;src/includes/game.h:186: else if ( cpct_isKeyPressed(Key_CursorDown) )
   1E8C 21 00 04      [10] 5737 	ld	hl,#0x0400
   1E8F CDr00r00      [17] 5738 	call	_cpct_isKeyPressed
   1E92 7D            [ 4] 5739 	ld	a,l
   1E93 B7            [ 4] 5740 	or	a, a
   1E94 CAr18r1F      [10] 5741 	jp	Z,00176$
                           5742 ;src/includes/game.h:188: drawTile(ulx, uly, xCursor, yCursor);
   1E97 DD 7E FF      [19] 5743 	ld	a,-1 (ix)
   1E9A F5            [11] 5744 	push	af
   1E9B 33            [ 6] 5745 	inc	sp
   1E9C DD 7E FD      [19] 5746 	ld	a,-3 (ix)
   1E9F F5            [11] 5747 	push	af
   1EA0 33            [ 6] 5748 	inc	sp
   1EA1 DD 7E FC      [19] 5749 	ld	a,-4 (ix)
   1EA4 F5            [11] 5750 	push	af
   1EA5 33            [ 6] 5751 	inc	sp
   1EA6 DD 7E FB      [19] 5752 	ld	a,-5 (ix)
   1EA9 F5            [11] 5753 	push	af
   1EAA 33            [ 6] 5754 	inc	sp
   1EAB CDr87r15      [17] 5755 	call	_drawTile
   1EAE F1            [10] 5756 	pop	af
   1EAF F1            [10] 5757 	pop	af
                           5758 ;src/includes/game.h:189: yCursor+=1;
   1EB0 DD 34 F8      [23] 5759 	inc	-8 (ix)
   1EB3 20 03         [12] 5760 	jr	NZ,00388$
   1EB5 DD 34 F9      [23] 5761 	inc	-7 (ix)
   1EB8                    5762 00388$:
                           5763 ;src/includes/game.h:190: if(yCursor>NBTILE_H-1)
   1EB8 3E 0B         [ 7] 5764 	ld	a,#0x0B
   1EBA DD BE F8      [19] 5765 	cp	a, -8 (ix)
   1EBD 3E 00         [ 7] 5766 	ld	a,#0x00
   1EBF DD 9E F9      [19] 5767 	sbc	a, -7 (ix)
   1EC2 E2rC7r1E      [10] 5768 	jp	PO, 00389$
   1EC5 EE 80         [ 7] 5769 	xor	a, #0x80
   1EC7                    5770 00389$:
   1EC7 F2rFAr1E      [10] 5771 	jp	P,00215$
                           5772 ;src/includes/game.h:192: yCursor=NBTILE_H-1;
   1ECA DD 36 F8 0B   [19] 5773 	ld	-8 (ix),#0x0B
   1ECE DD 36 F9 00   [19] 5774 	ld	-7 (ix),#0x00
                           5775 ;src/includes/game.h:193: if(uly<HEIGHT-NBTILE_H)
   1ED2 DD 7E F4      [19] 5776 	ld	a,-12 (ix)
   1ED5 D6 24         [ 7] 5777 	sub	a, #0x24
   1ED7 DD 7E F5      [19] 5778 	ld	a,-11 (ix)
   1EDA 17            [ 4] 5779 	rla
   1EDB 3F            [ 4] 5780 	ccf
   1EDC 1F            [ 4] 5781 	rra
   1EDD DE 80         [ 7] 5782 	sbc	a, #0x80
   1EDF 30 19         [12] 5783 	jr	NC,00215$
                           5784 ;src/includes/game.h:195: uly+=1;
   1EE1 DD 34 F4      [23] 5785 	inc	-12 (ix)
   1EE4 20 03         [12] 5786 	jr	NZ,00390$
   1EE6 DD 34 F5      [23] 5787 	inc	-11 (ix)
   1EE9                    5788 00390$:
                           5789 ;src/includes/game.h:165: drawTile(ulx, uly, xCursor, yCursor);
   1EE9 DD 7E F4      [19] 5790 	ld	a,-12 (ix)
                           5791 ;src/includes/game.h:196: drawWorld(ulx, uly);
   1EEC DD 77 FC      [19] 5792 	ld	-4 (ix), a
   1EEF F5            [11] 5793 	push	af
   1EF0 33            [ 6] 5794 	inc	sp
   1EF1 DD 7E FB      [19] 5795 	ld	a,-5 (ix)
   1EF4 F5            [11] 5796 	push	af
   1EF5 33            [ 6] 5797 	inc	sp
   1EF6 CDr48r18      [17] 5798 	call	_drawWorld
   1EF9 F1            [10] 5799 	pop	af
                           5800 ;src/includes/game.h:201: for(i=0; i<5000; i++) {}
   1EFA                    5801 00215$:
   1EFA DD 36 F0 88   [19] 5802 	ld	-16 (ix),#0x88
   1EFE DD 36 F1 13   [19] 5803 	ld	-15 (ix),#0x13
   1F02                    5804 00189$:
   1F02 DD 6E F0      [19] 5805 	ld	l,-16 (ix)
   1F05 DD 66 F1      [19] 5806 	ld	h,-15 (ix)
   1F08 2B            [ 6] 5807 	dec	hl
   1F09 DD 75 F0      [19] 5808 	ld	-16 (ix),l
   1F0C DD 74 F1      [19] 5809 	ld	-15 (ix), h
   1F0F 7C            [ 4] 5810 	ld	a, h
   1F10 DD B6 F0      [19] 5811 	or	a,-16 (ix)
   1F13 20 ED         [12] 5812 	jr	NZ,00189$
   1F15 C3rEAr21      [10] 5813 	jp	00180$
   1F18                    5814 00176$:
                           5815 ;src/includes/game.h:204: else if ( cpct_isKeyPressed(Key_CursorLeft) )
   1F18 21 01 01      [10] 5816 	ld	hl,#0x0101
   1F1B CDr00r00      [17] 5817 	call	_cpct_isKeyPressed
   1F1E 7D            [ 4] 5818 	ld	a,l
   1F1F B7            [ 4] 5819 	or	a, a
   1F20 28 6F         [12] 5820 	jr	Z,00173$
                           5821 ;src/includes/game.h:206: drawTile(ulx, uly, xCursor, yCursor);
   1F22 DD 7E FF      [19] 5822 	ld	a,-1 (ix)
   1F25 F5            [11] 5823 	push	af
   1F26 33            [ 6] 5824 	inc	sp
   1F27 DD 7E FD      [19] 5825 	ld	a,-3 (ix)
   1F2A F5            [11] 5826 	push	af
   1F2B 33            [ 6] 5827 	inc	sp
   1F2C DD 7E FC      [19] 5828 	ld	a,-4 (ix)
   1F2F F5            [11] 5829 	push	af
   1F30 33            [ 6] 5830 	inc	sp
   1F31 DD 7E FB      [19] 5831 	ld	a,-5 (ix)
   1F34 F5            [11] 5832 	push	af
   1F35 33            [ 6] 5833 	inc	sp
   1F36 CDr87r15      [17] 5834 	call	_drawTile
   1F39 F1            [10] 5835 	pop	af
   1F3A F1            [10] 5836 	pop	af
                           5837 ;src/includes/game.h:207: xCursor-=1;
   1F3B DD 6E F6      [19] 5838 	ld	l,-10 (ix)
   1F3E DD 66 F7      [19] 5839 	ld	h,-9 (ix)
   1F41 2B            [ 6] 5840 	dec	hl
   1F42 DD 75 F6      [19] 5841 	ld	-10 (ix),l
   1F45 DD 74 F7      [19] 5842 	ld	-9 (ix),h
                           5843 ;src/includes/game.h:208: if(xCursor<0)
   1F48 DD CB F7 7E   [20] 5844 	bit	7, -9 (ix)
   1F4C 28 38         [12] 5845 	jr	Z,00220$
                           5846 ;src/includes/game.h:210: xCursor=0;
   1F4E DD 36 F6 00   [19] 5847 	ld	-10 (ix),#0x00
   1F52 DD 36 F7 00   [19] 5848 	ld	-9 (ix),#0x00
                           5849 ;src/includes/game.h:211: if(ulx>0)
   1F56 AF            [ 4] 5850 	xor	a, a
   1F57 DD BE F2      [19] 5851 	cp	a, -14 (ix)
   1F5A DD 9E F3      [19] 5852 	sbc	a, -13 (ix)
   1F5D E2r62r1F      [10] 5853 	jp	PO, 00391$
   1F60 EE 80         [ 7] 5854 	xor	a, #0x80
   1F62                    5855 00391$:
   1F62 F2r86r1F      [10] 5856 	jp	P,00220$
                           5857 ;src/includes/game.h:213: ulx-=1;
   1F65 DD 6E F2      [19] 5858 	ld	l,-14 (ix)
   1F68 DD 66 F3      [19] 5859 	ld	h,-13 (ix)
   1F6B 2B            [ 6] 5860 	dec	hl
   1F6C DD 75 F2      [19] 5861 	ld	-14 (ix),l
   1F6F DD 74 F3      [19] 5862 	ld	-13 (ix),h
                           5863 ;src/includes/game.h:165: drawTile(ulx, uly, xCursor, yCursor);
   1F72 DD 7E F2      [19] 5864 	ld	a,-14 (ix)
   1F75 DD 77 FB      [19] 5865 	ld	-5 (ix),a
                           5866 ;src/includes/game.h:214: drawWorld(ulx, uly);
   1F78 DD 7E FC      [19] 5867 	ld	a,-4 (ix)
   1F7B F5            [11] 5868 	push	af
   1F7C 33            [ 6] 5869 	inc	sp
   1F7D DD 7E FB      [19] 5870 	ld	a,-5 (ix)
   1F80 F5            [11] 5871 	push	af
   1F81 33            [ 6] 5872 	inc	sp
   1F82 CDr48r18      [17] 5873 	call	_drawWorld
   1F85 F1            [10] 5874 	pop	af
                           5875 ;src/includes/game.h:219: for(i=0; i<14000; i++) {}
   1F86                    5876 00220$:
   1F86 21 B0 36      [10] 5877 	ld	hl,#0x36B0
   1F89                    5878 00192$:
   1F89 2B            [ 6] 5879 	dec	hl
   1F8A 7C            [ 4] 5880 	ld	a,h
   1F8B B5            [ 4] 5881 	or	a,l
   1F8C 20 FB         [12] 5882 	jr	NZ,00192$
   1F8E C3rEAr21      [10] 5883 	jp	00180$
   1F91                    5884 00173$:
                           5885 ;src/includes/game.h:222: else if ( cpct_isKeyPressed(Key_CursorRight) )
   1F91 21 00 02      [10] 5886 	ld	hl,#0x0200
   1F94 CDr00r00      [17] 5887 	call	_cpct_isKeyPressed
   1F97 7D            [ 4] 5888 	ld	a,l
   1F98 B7            [ 4] 5889 	or	a, a
   1F99 28 71         [12] 5890 	jr	Z,00170$
                           5891 ;src/includes/game.h:224: drawTile(ulx, uly, xCursor, yCursor);
   1F9B DD 7E FF      [19] 5892 	ld	a,-1 (ix)
   1F9E F5            [11] 5893 	push	af
   1F9F 33            [ 6] 5894 	inc	sp
   1FA0 DD 7E FD      [19] 5895 	ld	a,-3 (ix)
   1FA3 F5            [11] 5896 	push	af
   1FA4 33            [ 6] 5897 	inc	sp
   1FA5 DD 7E FC      [19] 5898 	ld	a,-4 (ix)
   1FA8 F5            [11] 5899 	push	af
   1FA9 33            [ 6] 5900 	inc	sp
   1FAA DD 7E FB      [19] 5901 	ld	a,-5 (ix)
   1FAD F5            [11] 5902 	push	af
   1FAE 33            [ 6] 5903 	inc	sp
   1FAF CDr87r15      [17] 5904 	call	_drawTile
   1FB2 F1            [10] 5905 	pop	af
   1FB3 F1            [10] 5906 	pop	af
                           5907 ;src/includes/game.h:225: xCursor+=1;
   1FB4 DD 34 F6      [23] 5908 	inc	-10 (ix)
   1FB7 20 03         [12] 5909 	jr	NZ,00392$
   1FB9 DD 34 F7      [23] 5910 	inc	-9 (ix)
   1FBC                    5911 00392$:
                           5912 ;src/includes/game.h:226: if(xCursor>NBTILE_W-1)
   1FBC 3E 13         [ 7] 5913 	ld	a,#0x13
   1FBE DD BE F6      [19] 5914 	cp	a, -10 (ix)
   1FC1 3E 00         [ 7] 5915 	ld	a,#0x00
   1FC3 DD 9E F7      [19] 5916 	sbc	a, -9 (ix)
   1FC6 E2rCBr1F      [10] 5917 	jp	PO, 00393$
   1FC9 EE 80         [ 7] 5918 	xor	a, #0x80
   1FCB                    5919 00393$:
   1FCB F2r01r20      [10] 5920 	jp	P,00225$
                           5921 ;src/includes/game.h:228: xCursor=NBTILE_W-1;
   1FCE DD 36 F6 13   [19] 5922 	ld	-10 (ix),#0x13
   1FD2 DD 36 F7 00   [19] 5923 	ld	-9 (ix),#0x00
                           5924 ;src/includes/game.h:229: if(ulx<WIDTH-NBTILE_W)
   1FD6 DD 7E F2      [19] 5925 	ld	a,-14 (ix)
   1FD9 D6 3C         [ 7] 5926 	sub	a, #0x3C
   1FDB DD 7E F3      [19] 5927 	ld	a,-13 (ix)
   1FDE 17            [ 4] 5928 	rla
   1FDF 3F            [ 4] 5929 	ccf
   1FE0 1F            [ 4] 5930 	rra
   1FE1 DE 80         [ 7] 5931 	sbc	a, #0x80
   1FE3 30 1C         [12] 5932 	jr	NC,00225$
                           5933 ;src/includes/game.h:231: ulx+=1;
   1FE5 DD 34 F2      [23] 5934 	inc	-14 (ix)
   1FE8 20 03         [12] 5935 	jr	NZ,00394$
   1FEA DD 34 F3      [23] 5936 	inc	-13 (ix)
   1FED                    5937 00394$:
                           5938 ;src/includes/game.h:165: drawTile(ulx, uly, xCursor, yCursor);
   1FED DD 7E F2      [19] 5939 	ld	a,-14 (ix)
   1FF0 DD 77 FB      [19] 5940 	ld	-5 (ix),a
                           5941 ;src/includes/game.h:232: drawWorld(ulx, uly);
   1FF3 DD 7E FC      [19] 5942 	ld	a,-4 (ix)
   1FF6 F5            [11] 5943 	push	af
   1FF7 33            [ 6] 5944 	inc	sp
   1FF8 DD 7E FB      [19] 5945 	ld	a,-5 (ix)
   1FFB F5            [11] 5946 	push	af
   1FFC 33            [ 6] 5947 	inc	sp
   1FFD CDr48r18      [17] 5948 	call	_drawWorld
   2000 F1            [10] 5949 	pop	af
                           5950 ;src/includes/game.h:237: for(i=0; i<14000; i++) {}
   2001                    5951 00225$:
   2001 21 B0 36      [10] 5952 	ld	hl,#0x36B0
   2004                    5953 00195$:
   2004 2B            [ 6] 5954 	dec	hl
   2005 7C            [ 4] 5955 	ld	a,h
   2006 B5            [ 4] 5956 	or	a,l
   2007 20 FB         [12] 5957 	jr	NZ,00195$
   2009 C3rEAr21      [10] 5958 	jp	00180$
   200C                    5959 00170$:
                           5960 ;src/includes/game.h:241: else if ( cpct_isKeyPressed(Key_Space) )
   200C 21 05 80      [10] 5961 	ld	hl,#0x8005
   200F CDr00r00      [17] 5962 	call	_cpct_isKeyPressed
   2012 7D            [ 4] 5963 	ld	a,l
   2013 B7            [ 4] 5964 	or	a, a
   2014 CAr92r20      [10] 5965 	jp	Z,00167$
                           5966 ;src/includes/game.h:243: if(CURSOR_MODE==T_SSNS)
   2017 3Ar00r00      [13] 5967 	ld	a,(#_CURSOR_MODE + 0)
   201A 3D            [ 4] 5968 	dec	a
   201B 20 07         [12] 5969 	jr	NZ,00143$
                           5970 ;src/includes/game.h:244: CURSOR_MODE=T_SSEW;
   201D 21r00r00      [10] 5971 	ld	hl,#_CURSOR_MODE + 0
   2020 36 02         [10] 5972 	ld	(hl), #0x02
   2022 18 63         [12] 5973 	jr	00237$
   2024                    5974 00143$:
                           5975 ;src/includes/game.h:245: else if(CURSOR_MODE==T_SSEW)
   2024 3Ar00r00      [13] 5976 	ld	a,(#_CURSOR_MODE + 0)
   2027 D6 02         [ 7] 5977 	sub	a, #0x02
   2029 20 07         [12] 5978 	jr	NZ,00140$
                           5979 ;src/includes/game.h:246: CURSOR_MODE=T_SSNS;
   202B 21r00r00      [10] 5980 	ld	hl,#_CURSOR_MODE + 0
   202E 36 01         [10] 5981 	ld	(hl), #0x01
   2030 18 55         [12] 5982 	jr	00237$
   2032                    5983 00140$:
                           5984 ;src/includes/game.h:247: else if(CURSOR_MODE==T_SMNS)
   2032 3Ar00r00      [13] 5985 	ld	a,(#_CURSOR_MODE + 0)
   2035 D6 03         [ 7] 5986 	sub	a, #0x03
   2037 20 07         [12] 5987 	jr	NZ,00137$
                           5988 ;src/includes/game.h:248: CURSOR_MODE=T_SMEW;
   2039 21r00r00      [10] 5989 	ld	hl,#_CURSOR_MODE + 0
   203C 36 04         [10] 5990 	ld	(hl), #0x04
   203E 18 47         [12] 5991 	jr	00237$
   2040                    5992 00137$:
                           5993 ;src/includes/game.h:249: else if(CURSOR_MODE==T_SMEW)
   2040 3Ar00r00      [13] 5994 	ld	a,(#_CURSOR_MODE + 0)
   2043 D6 04         [ 7] 5995 	sub	a, #0x04
   2045 20 07         [12] 5996 	jr	NZ,00134$
                           5997 ;src/includes/game.h:250: CURSOR_MODE=T_SMNS;
   2047 21r00r00      [10] 5998 	ld	hl,#_CURSOR_MODE + 0
   204A 36 03         [10] 5999 	ld	(hl), #0x03
   204C 18 39         [12] 6000 	jr	00237$
   204E                    6001 00134$:
                           6002 ;src/includes/game.h:251: else if(CURSOR_MODE==T_SLNS)
   204E 3Ar00r00      [13] 6003 	ld	a,(#_CURSOR_MODE + 0)
   2051 D6 05         [ 7] 6004 	sub	a, #0x05
   2053 20 07         [12] 6005 	jr	NZ,00131$
                           6006 ;src/includes/game.h:252: CURSOR_MODE=T_SLEW;
   2055 21r00r00      [10] 6007 	ld	hl,#_CURSOR_MODE + 0
   2058 36 06         [10] 6008 	ld	(hl), #0x06
   205A 18 2B         [12] 6009 	jr	00237$
   205C                    6010 00131$:
                           6011 ;src/includes/game.h:253: else if(CURSOR_MODE==T_SLEW)
   205C 3Ar00r00      [13] 6012 	ld	a,(#_CURSOR_MODE + 0)
   205F D6 06         [ 7] 6013 	sub	a, #0x06
   2061 20 07         [12] 6014 	jr	NZ,00128$
                           6015 ;src/includes/game.h:254: CURSOR_MODE=T_SLNS;
   2063 21r00r00      [10] 6016 	ld	hl,#_CURSOR_MODE + 0
   2066 36 05         [10] 6017 	ld	(hl), #0x05
   2068 18 1D         [12] 6018 	jr	00237$
   206A                    6019 00128$:
                           6020 ;src/includes/game.h:255: else if(CURSOR_MODE>=T_REW && CURSOR_MODE<T_RNSW)
   206A 3Ar00r00      [13] 6021 	ld	a,(#_CURSOR_MODE + 0)
   206D FE 07         [ 7] 6022 	cp	a,#0x07
   206F 38 0A         [12] 6023 	jr	C,00124$
   2071 D6 10         [ 7] 6024 	sub	a, #0x10
   2073 30 06         [12] 6025 	jr	NC,00124$
                           6026 ;src/includes/game.h:256: CURSOR_MODE+=1;
   2075 21r00r00      [10] 6027 	ld	hl, #_CURSOR_MODE+0
   2078 34            [11] 6028 	inc	(hl)
   2079 18 0C         [12] 6029 	jr	00237$
   207B                    6030 00124$:
                           6031 ;src/includes/game.h:257: else if(CURSOR_MODE==T_RNSW)
   207B 3Ar00r00      [13] 6032 	ld	a,(#_CURSOR_MODE + 0)
   207E D6 10         [ 7] 6033 	sub	a, #0x10
   2080 20 05         [12] 6034 	jr	NZ,00237$
                           6035 ;src/includes/game.h:258: CURSOR_MODE=T_REW;
   2082 21r00r00      [10] 6036 	ld	hl,#_CURSOR_MODE + 0
   2085 36 07         [10] 6037 	ld	(hl), #0x07
                           6038 ;src/includes/game.h:260: for(i=0; i<14000; i++) {}
   2087                    6039 00237$:
   2087 21 B0 36      [10] 6040 	ld	hl,#0x36B0
   208A                    6041 00198$:
   208A 2B            [ 6] 6042 	dec	hl
   208B 7C            [ 4] 6043 	ld	a,h
   208C B5            [ 4] 6044 	or	a,l
   208D 20 FB         [12] 6045 	jr	NZ,00198$
   208F C3rEAr21      [10] 6046 	jp	00180$
   2092                    6047 00167$:
                           6048 ;src/includes/game.h:263: else if ( cpct_isKeyPressed(Key_Esc) )
   2092 21 08 04      [10] 6049 	ld	hl,#0x0408
   2095 CDr00r00      [17] 6050 	call	_cpct_isKeyPressed
   2098 7D            [ 4] 6051 	ld	a,l
   2099 B7            [ 4] 6052 	or	a, a
   209A CAr31r21      [10] 6053 	jp	Z,00164$
                           6054 ;src/includes/game.h:266: if(CURSOR_MODE==NONE)
   209D 3Ar00r00      [13] 6055 	ld	a,(#_CURSOR_MODE + 0)
   20A0 B7            [ 4] 6056 	or	a, a
   20A1 20 62         [12] 6057 	jr	NZ,00150$
                           6058 ;src/includes/game.h:269: const char *txtWindowQuit[] = { 
   20A3 21 00 00      [10] 6059 	ld	hl,#0x0000
   20A6 39            [11] 6060 	add	hl,sp
   20A7 5D            [ 4] 6061 	ld	e,l
   20A8 54            [ 4] 6062 	ld	d,h
   20A9 36r16         [10] 6063 	ld	(hl),#<(___str_34)
   20AB 23            [ 6] 6064 	inc	hl
   20AC 36s22         [10] 6065 	ld	(hl),#>(___str_34)
   20AE 6B            [ 4] 6066 	ld	l, e
   20AF 62            [ 4] 6067 	ld	h, d
   20B0 23            [ 6] 6068 	inc	hl
   20B1 23            [ 6] 6069 	inc	hl
   20B2 36r24         [10] 6070 	ld	(hl),#<(___str_35)
   20B4 23            [ 6] 6071 	inc	hl
   20B5 36s22         [10] 6072 	ld	(hl),#>(___str_35)
   20B7 21 04 00      [10] 6073 	ld	hl,#0x0004
   20BA 19            [11] 6074 	add	hl,de
   20BB 36r25         [10] 6075 	ld	(hl),#<(___str_36)
   20BD 23            [ 6] 6076 	inc	hl
   20BE 36s22         [10] 6077 	ld	(hl),#>(___str_36)
                           6078 ;src/includes/game.h:275: putM2();
   20C0 D5            [11] 6079 	push	de
   20C1 CDrBDr06      [17] 6080 	call	_putM2
   20C4 D1            [10] 6081 	pop	de
                           6082 ;src/includes/game.h:276: if(	drawWindow(txtWindowQuit,3,1) == 1)
   20C5 21 03 01      [10] 6083 	ld	hl,#0x0103
   20C8 E5            [11] 6084 	push	hl
   20C9 D5            [11] 6085 	push	de
   20CA CDrC1r0B      [17] 6086 	call	_drawWindow
   20CD F1            [10] 6087 	pop	af
   20CE F1            [10] 6088 	pop	af
   20CF 2D            [ 4] 6089 	dec	l
   20D0 20 06         [12] 6090 	jr	NZ,00147$
                           6091 ;src/includes/game.h:277: exit=1;
   20D2 DD 36 FA 01   [19] 6092 	ld	-6 (ix),#0x01
   20D6 18 4E         [12] 6093 	jr	00242$
   20D8                    6094 00147$:
                           6095 ;src/includes/game.h:280: putM1();
   20D8 CDrA9r06      [17] 6096 	call	_putM1
                           6097 ;src/includes/game.h:281: cpct_clearScreen(cpct_px2byteM1(0,0,0,0));	
   20DB 21 00 00      [10] 6098 	ld	hl,#0x0000
   20DE E5            [11] 6099 	push	hl
   20DF 2E 00         [ 7] 6100 	ld	l, #0x00
   20E1 E5            [11] 6101 	push	hl
   20E2 CDr00r00      [17] 6102 	call	_cpct_px2byteM1
   20E5 F1            [10] 6103 	pop	af
   20E6 F1            [10] 6104 	pop	af
   20E7 65            [ 4] 6105 	ld	h,l
   20E8 01 00 40      [10] 6106 	ld	bc,#0x4000
   20EB C5            [11] 6107 	push	bc
   20EC E5            [11] 6108 	push	hl
   20ED 33            [ 6] 6109 	inc	sp
   20EE 21 00 C0      [10] 6110 	ld	hl,#0xC000
   20F1 E5            [11] 6111 	push	hl
   20F2 CDr00r00      [17] 6112 	call	_cpct_memset
                           6113 ;src/includes/game.h:282: drawWorld(ulx, uly);
   20F5 DD 7E FC      [19] 6114 	ld	a,-4 (ix)
   20F8 F5            [11] 6115 	push	af
   20F9 33            [ 6] 6116 	inc	sp
   20FA DD 7E FB      [19] 6117 	ld	a,-5 (ix)
   20FD F5            [11] 6118 	push	af
   20FE 33            [ 6] 6119 	inc	sp
   20FF CDr48r18      [17] 6120 	call	_drawWorld
   2102 F1            [10] 6121 	pop	af
   2103 18 21         [12] 6122 	jr	00242$
   2105                    6123 00150$:
                           6124 ;src/includes/game.h:287: CURSOR_MODE=NONE;
   2105 FD 21r00r00   [14] 6125 	ld	iy,#_CURSOR_MODE
   2109 FD 36 00 00   [19] 6126 	ld	0 (iy),#0x00
                           6127 ;src/includes/game.h:288: drawTile(ulx, uly, xCursor, yCursor);
   210D DD 7E FF      [19] 6128 	ld	a,-1 (ix)
   2110 F5            [11] 6129 	push	af
   2111 33            [ 6] 6130 	inc	sp
   2112 DD 7E FD      [19] 6131 	ld	a,-3 (ix)
   2115 F5            [11] 6132 	push	af
   2116 33            [ 6] 6133 	inc	sp
   2117 DD 7E FC      [19] 6134 	ld	a,-4 (ix)
   211A F5            [11] 6135 	push	af
   211B 33            [ 6] 6136 	inc	sp
   211C DD 7E FB      [19] 6137 	ld	a,-5 (ix)
   211F F5            [11] 6138 	push	af
   2120 33            [ 6] 6139 	inc	sp
   2121 CDr87r15      [17] 6140 	call	_drawTile
   2124 F1            [10] 6141 	pop	af
   2125 F1            [10] 6142 	pop	af
                           6143 ;src/includes/game.h:292: for(i=0; i<14000; i++) {}
   2126                    6144 00242$:
   2126 01 B0 36      [10] 6145 	ld	bc,#0x36B0
   2129                    6146 00201$:
   2129 0B            [ 6] 6147 	dec	bc
   212A 78            [ 4] 6148 	ld	a,b
   212B B1            [ 4] 6149 	or	a,c
   212C 20 FB         [12] 6150 	jr	NZ,00201$
   212E C3rEAr21      [10] 6151 	jp	00180$
   2131                    6152 00164$:
                           6153 ;src/includes/game.h:295: else if ( cpct_isKeyPressed(Key_Return) )
   2131 21 02 04      [10] 6154 	ld	hl,#0x0402
   2134 CDr00r00      [17] 6155 	call	_cpct_isKeyPressed
   2137 7D            [ 4] 6156 	ld	a,l
   2138 B7            [ 4] 6157 	or	a, a
   2139 CArEAr21      [10] 6158 	jp	Z,00180$
                           6159 ;src/includes/game.h:298: if(CURSOR_MODE==NONE)
   213C 3Ar00r00      [13] 6160 	ld	a,(#_CURSOR_MODE + 0)
   213F B7            [ 4] 6161 	or	a, a
   2140 20 42         [12] 6162 	jr	NZ,00158$
                           6163 ;src/includes/game.h:300: menuTile(ulx+xCursor, uly+yCursor);
   2142 DD 7E F4      [19] 6164 	ld	a, -12 (ix)
   2145 DD 6E F8      [19] 6165 	ld	l, -8 (ix)
   2148 85            [ 4] 6166 	add	a, l
   2149 67            [ 4] 6167 	ld	h,a
   214A DD 6E F2      [19] 6168 	ld	l,-14 (ix)
   214D DD 56 F6      [19] 6169 	ld	d,-10 (ix)
   2150 7D            [ 4] 6170 	ld	a,l
   2151 82            [ 4] 6171 	add	a, d
   2152 E5            [11] 6172 	push	hl
   2153 33            [ 6] 6173 	inc	sp
   2154 F5            [11] 6174 	push	af
   2155 33            [ 6] 6175 	inc	sp
   2156 CDrB3r1B      [17] 6176 	call	_menuTile
   2159 F1            [10] 6177 	pop	af
                           6178 ;src/includes/game.h:301: cpct_clearScreen(cpct_px2byteM1(0,0,0,0));	
   215A 21 00 00      [10] 6179 	ld	hl,#0x0000
   215D E5            [11] 6180 	push	hl
   215E 2E 00         [ 7] 6181 	ld	l, #0x00
   2160 E5            [11] 6182 	push	hl
   2161 CDr00r00      [17] 6183 	call	_cpct_px2byteM1
   2164 F1            [10] 6184 	pop	af
   2165 F1            [10] 6185 	pop	af
   2166 65            [ 4] 6186 	ld	h,l
   2167 01 00 40      [10] 6187 	ld	bc,#0x4000
   216A C5            [11] 6188 	push	bc
   216B E5            [11] 6189 	push	hl
   216C 33            [ 6] 6190 	inc	sp
   216D 21 00 C0      [10] 6191 	ld	hl,#0xC000
   2170 E5            [11] 6192 	push	hl
   2171 CDr00r00      [17] 6193 	call	_cpct_memset
                           6194 ;src/includes/game.h:302: drawWorld(ulx, uly);
   2174 DD 7E FC      [19] 6195 	ld	a,-4 (ix)
   2177 F5            [11] 6196 	push	af
   2178 33            [ 6] 6197 	inc	sp
   2179 DD 7E FB      [19] 6198 	ld	a,-5 (ix)
   217C F5            [11] 6199 	push	af
   217D 33            [ 6] 6200 	inc	sp
   217E CDr48r18      [17] 6201 	call	_drawWorld
   2181 F1            [10] 6202 	pop	af
   2182 18 4B         [12] 6203 	jr	00248$
   2184                    6204 00158$:
                           6205 ;src/includes/game.h:305: else if(CURSOR_MODE>=T_SSNS)
   2184 3Ar00r00      [13] 6206 	ld	a,(#_CURSOR_MODE + 0)
   2187 D6 01         [ 7] 6207 	sub	a, #0x01
   2189 38 44         [12] 6208 	jr	C,00248$
                           6209 ;src/includes/game.h:307: p_world[ulx+xCursor+(uly+yCursor)*WIDTH]=CURSOR_MODE+9;
   218B DD 7E F2      [19] 6210 	ld	a,-14 (ix)
   218E DD 86 F6      [19] 6211 	add	a, -10 (ix)
   2191 5F            [ 4] 6212 	ld	e,a
   2192 DD 7E F3      [19] 6213 	ld	a,-13 (ix)
   2195 DD 8E F7      [19] 6214 	adc	a, -9 (ix)
   2198 57            [ 4] 6215 	ld	d,a
   2199 DD 7E F4      [19] 6216 	ld	a,-12 (ix)
   219C DD 86 F8      [19] 6217 	add	a, -8 (ix)
   219F 6F            [ 4] 6218 	ld	l,a
   21A0 DD 7E F5      [19] 6219 	ld	a,-11 (ix)
   21A3 DD 8E F9      [19] 6220 	adc	a, -7 (ix)
   21A6 67            [ 4] 6221 	ld	h,a
   21A7 4D            [ 4] 6222 	ld	c, l
   21A8 44            [ 4] 6223 	ld	b, h
   21A9 29            [11] 6224 	add	hl, hl
   21AA 29            [11] 6225 	add	hl, hl
   21AB 09            [11] 6226 	add	hl, bc
   21AC 29            [11] 6227 	add	hl, hl
   21AD 29            [11] 6228 	add	hl, hl
   21AE 29            [11] 6229 	add	hl, hl
   21AF 29            [11] 6230 	add	hl, hl
   21B0 19            [11] 6231 	add	hl,de
   21B1 3Er00         [ 7] 6232 	ld	a,#<(_p_world)
   21B3 85            [ 4] 6233 	add	a, l
   21B4 5F            [ 4] 6234 	ld	e,a
   21B5 3Es00         [ 7] 6235 	ld	a,#>(_p_world)
   21B7 8C            [ 4] 6236 	adc	a, h
   21B8 57            [ 4] 6237 	ld	d,a
   21B9 3Ar00r00      [13] 6238 	ld	a,(#_CURSOR_MODE + 0)
   21BC C6 09         [ 7] 6239 	add	a, #0x09
   21BE 12            [ 7] 6240 	ld	(de),a
                           6241 ;src/includes/game.h:310: if(CURSOR_MODE<=T_SLEW)
   21BF 3E 06         [ 7] 6242 	ld	a,#0x06
   21C1 FD 21r00r00   [14] 6243 	ld	iy,#_CURSOR_MODE
   21C5 FD 96 00      [19] 6244 	sub	a, 0 (iy)
   21C8 38 05         [12] 6245 	jr	C,00248$
                           6246 ;src/includes/game.h:311: CURSOR_MODE=NONE;
   21CA 21r00r00      [10] 6247 	ld	hl,#_CURSOR_MODE + 0
   21CD 36 00         [10] 6248 	ld	(hl), #0x00
                           6249 ;src/includes/game.h:315: for(i=0; i<14000; i++) {}
   21CF                    6250 00248$:
   21CF DD 36 F0 B0   [19] 6251 	ld	-16 (ix),#0xB0
   21D3 DD 36 F1 36   [19] 6252 	ld	-15 (ix),#0x36
   21D7                    6253 00204$:
   21D7 DD 6E F0      [19] 6254 	ld	l,-16 (ix)
   21DA DD 66 F1      [19] 6255 	ld	h,-15 (ix)
   21DD 2B            [ 6] 6256 	dec	hl
   21DE DD 75 F0      [19] 6257 	ld	-16 (ix),l
   21E1 DD 74 F1      [19] 6258 	ld	-15 (ix), h
   21E4 7C            [ 4] 6259 	ld	a, h
   21E5 DD B6 F0      [19] 6260 	or	a,-16 (ix)
   21E8 20 ED         [12] 6261 	jr	NZ,00204$
   21EA                    6262 00180$:
                           6263 ;src/includes/game.h:319: drawCursor(xCursor, yCursor, 0);
   21EA DD 56 F8      [19] 6264 	ld	d,-8 (ix)
   21ED DD 46 F6      [19] 6265 	ld	b,-10 (ix)
   21F0 AF            [ 4] 6266 	xor	a, a
   21F1 F5            [11] 6267 	push	af
   21F2 33            [ 6] 6268 	inc	sp
   21F3 D5            [11] 6269 	push	de
   21F4 33            [ 6] 6270 	inc	sp
   21F5 C5            [11] 6271 	push	bc
   21F6 33            [ 6] 6272 	inc	sp
   21F7 CDr5Er0D      [17] 6273 	call	_drawCursor
   21FA F1            [10] 6274 	pop	af
   21FB 33            [ 6] 6275 	inc	sp
                           6276 ;src/includes/game.h:320: drawScrolls(ulx, uly);
   21FC DD 7E FC      [19] 6277 	ld	a,-4 (ix)
   21FF F5            [11] 6278 	push	af
   2200 33            [ 6] 6279 	inc	sp
   2201 DD 7E FB      [19] 6280 	ld	a,-5 (ix)
   2204 F5            [11] 6281 	push	af
   2205 33            [ 6] 6282 	inc	sp
   2206 CDrAFr17      [17] 6283 	call	_drawScrolls
   2209 F1            [10] 6284 	pop	af
                           6285 ;src/includes/game.h:322: while(!exit);
   220A DD 7E FA      [19] 6286 	ld	a,-6 (ix)
   220D B7            [ 4] 6287 	or	a, a
   220E CArE2r1D      [10] 6288 	jp	Z,00181$
   2211 DD F9         [10] 6289 	ld	sp, ix
   2213 DD E1         [14] 6290 	pop	ix
   2215 C9            [10] 6291 	ret
   2216                    6292 ___str_34:
   2216 52 65 61 6C 6C 79  6293 	.ascii "Really quit ?"
        20 71 75 69 74 20
        3F
   2223 00                 6294 	.db 0x00
   2224                    6295 ___str_35:
   2224 00                 6296 	.db 0x00
   2225                    6297 ___str_36:
   2225 50 72 65 73 73 20  6298 	.ascii "Press Return to quit or Esc to resume"
        52 65 74 75 72 6E
        20 74 6F 20 71 75
        69 74 20 6F 72 20
        45 73 63 20 74 6F
        20 72 65 73 75 6D
        65
   224A 00                 6299 	.db 0x00
   224B                    6300 ___str_37:
   224B 47 65 6E 65 72 61  6301 	.ascii "Generating world..."
        74 69 6E 67 20 77
        6F 72 6C 64 2E 2E
        2E
   225E 00                 6302 	.db 0x00
                           6303 ;src/main.c:17: void drawTrain() 
                           6304 ;	---------------------------------
                           6305 ; Function drawTrain
                           6306 ; ---------------------------------
   225F                    6307 _drawTrain::
                           6308 ;src/main.c:55: }
   225F C9            [10] 6309 	ret
                           6310 ;src/main.c:58: void main(void)
                           6311 ;	---------------------------------
                           6312 ; Function main
                           6313 ; ---------------------------------
   2260                    6314 _main::
   2260 DD E5         [15] 6315 	push	ix
   2262 DD 21 00 00   [14] 6316 	ld	ix,#0
   2266 DD 39         [15] 6317 	add	ix,sp
   2268 21 EE FF      [10] 6318 	ld	hl,#-18
   226B 39            [11] 6319 	add	hl,sp
   226C F9            [ 6] 6320 	ld	sp,hl
                           6321 ;src/main.c:63: const char *menuMain[] = { 
   226D 21 00 00      [10] 6322 	ld	hl,#0x0000
   2270 39            [11] 6323 	add	hl,sp
   2271 5D            [ 4] 6324 	ld	e,l
   2272 54            [ 4] 6325 	ld	d,h
   2273 36r55         [10] 6326 	ld	(hl),#<(___str_38)
   2275 23            [ 6] 6327 	inc	hl
   2276 36s23         [10] 6328 	ld	(hl),#>(___str_38)
   2278 6B            [ 4] 6329 	ld	l, e
   2279 62            [ 4] 6330 	ld	h, d
   227A 23            [ 6] 6331 	inc	hl
   227B 23            [ 6] 6332 	inc	hl
   227C 01r5Er23      [10] 6333 	ld	bc,#___str_39+0
   227F 71            [ 7] 6334 	ld	(hl),c
   2280 23            [ 6] 6335 	inc	hl
   2281 70            [ 7] 6336 	ld	(hl),b
   2282 21 04 00      [10] 6337 	ld	hl,#0x0004
   2285 19            [11] 6338 	add	hl,de
   2286 01r66r23      [10] 6339 	ld	bc,#___str_40+0
   2289 71            [ 7] 6340 	ld	(hl),c
   228A 23            [ 6] 6341 	inc	hl
   228B 70            [ 7] 6342 	ld	(hl),b
                           6343 ;src/main.c:69: const char *windowCredit[] = { 
   228C 21 08 00      [10] 6344 	ld	hl,#0x0008
   228F 39            [11] 6345 	add	hl,sp
   2290 DD 75 FE      [19] 6346 	ld	-2 (ix),l
   2293 DD 74 FF      [19] 6347 	ld	-1 (ix),h
   2296 DD 6E FE      [19] 6348 	ld	l,-2 (ix)
   2299 DD 66 FF      [19] 6349 	ld	h,-1 (ix)
   229C 36r6B         [10] 6350 	ld	(hl),#<(___str_41)
   229E 23            [ 6] 6351 	inc	hl
   229F 36s23         [10] 6352 	ld	(hl),#>(___str_41)
   22A1 DD 6E FE      [19] 6353 	ld	l,-2 (ix)
   22A4 DD 66 FF      [19] 6354 	ld	h,-1 (ix)
   22A7 23            [ 6] 6355 	inc	hl
   22A8 23            [ 6] 6356 	inc	hl
   22A9 01r74r23      [10] 6357 	ld	bc,#___str_42+0
   22AC 71            [ 7] 6358 	ld	(hl),c
   22AD 23            [ 6] 6359 	inc	hl
   22AE 70            [ 7] 6360 	ld	(hl),b
   22AF DD 7E FE      [19] 6361 	ld	a,-2 (ix)
   22B2 C6 04         [ 7] 6362 	add	a, #0x04
   22B4 6F            [ 4] 6363 	ld	l,a
   22B5 DD 7E FF      [19] 6364 	ld	a,-1 (ix)
   22B8 CE 00         [ 7] 6365 	adc	a, #0x00
   22BA 67            [ 4] 6366 	ld	h,a
   22BB 01r75r23      [10] 6367 	ld	bc,#___str_43+0
   22BE 71            [ 7] 6368 	ld	(hl),c
   22BF 23            [ 6] 6369 	inc	hl
   22C0 70            [ 7] 6370 	ld	(hl),b
                           6371 ;src/main.c:75: firmware = cpct_disableFirmware();
   22C1 D5            [11] 6372 	push	de
   22C2 CDr00r00      [17] 6373 	call	_cpct_disableFirmware
   22C5 D1            [10] 6374 	pop	de
   22C6 DD 75 F4      [19] 6375 	ld	-12 (ix),l
   22C9 DD 74 F5      [19] 6376 	ld	-11 (ix),h
                           6377 ;src/main.c:77: cpct_fw2hw(paletteTrains, 16);
   22CC 21r13r00      [10] 6378 	ld	hl,#_paletteTrains
   22CF D5            [11] 6379 	push	de
   22D0 01 10 00      [10] 6380 	ld	bc,#0x0010
   22D3 C5            [11] 6381 	push	bc
   22D4 E5            [11] 6382 	push	hl
   22D5 CDr00r00      [17] 6383 	call	_cpct_fw2hw
   22D8 D1            [10] 6384 	pop	de
                           6385 ;src/main.c:78: cpct_fw2hw(paletteMenusM2, 2);
   22D9 21r27r00      [10] 6386 	ld	hl,#_paletteMenusM2
   22DC D5            [11] 6387 	push	de
   22DD 01 02 00      [10] 6388 	ld	bc,#0x0002
   22E0 C5            [11] 6389 	push	bc
   22E1 E5            [11] 6390 	push	hl
   22E2 CDr00r00      [17] 6391 	call	_cpct_fw2hw
   22E5 D1            [10] 6392 	pop	de
                           6393 ;src/main.c:79: cpct_fw2hw(paletteMenusM1, 4);
   22E6 21r23r00      [10] 6394 	ld	hl,#_paletteMenusM1
   22E9 D5            [11] 6395 	push	de
   22EA 01 04 00      [10] 6396 	ld	bc,#0x0004
   22ED C5            [11] 6397 	push	bc
   22EE E5            [11] 6398 	push	hl
   22EF CDr00r00      [17] 6399 	call	_cpct_fw2hw
   22F2 D1            [10] 6400 	pop	de
                           6401 ;src/main.c:81: cpct_setBorder(paletteTrains[12]);
   22F3 3Ar1Fr00      [13] 6402 	ld	a, (#_paletteTrains + 12)
   22F6 D5            [11] 6403 	push	de
   22F7 57            [ 4] 6404 	ld	d,a
   22F8 1E 10         [ 7] 6405 	ld	e,#0x10
   22FA D5            [11] 6406 	push	de
   22FB CDr00r00      [17] 6407 	call	_cpct_setPALColour
   22FE CDrBDr06      [17] 6408 	call	_putM2
   2301 D1            [10] 6409 	pop	de
                           6410 ;src/main.c:85: do{
   2302 DD 73 FC      [19] 6411 	ld	-4 (ix),e
   2305 DD 72 FD      [19] 6412 	ld	-3 (ix),d
   2308                    6413 00105$:
                           6414 ;src/main.c:86: menuChoice = drawMenu(menuMain,3);
   2308 DD 5E FC      [19] 6415 	ld	e,-4 (ix)
   230B DD 56 FD      [19] 6416 	ld	d,-3 (ix)
   230E 3E 03         [ 7] 6417 	ld	a,#0x03
   2310 F5            [11] 6418 	push	af
   2311 33            [ 6] 6419 	inc	sp
   2312 D5            [11] 6420 	push	de
   2313 CDrC3r0A      [17] 6421 	call	_drawMenu
   2316 F1            [10] 6422 	pop	af
   2317 33            [ 6] 6423 	inc	sp
   2318 55            [ 4] 6424 	ld	d,l
                           6425 ;src/main.c:88: if(menuChoice==0)
   2319 7A            [ 4] 6426 	ld	a,d
   231A B7            [ 4] 6427 	or	a, a
   231B 20 08         [12] 6428 	jr	NZ,00102$
                           6429 ;src/main.c:90: game();
   231D D5            [11] 6430 	push	de
   231E CDr63r1D      [17] 6431 	call	_game
   2321 CDrBDr06      [17] 6432 	call	_putM2
   2324 D1            [10] 6433 	pop	de
   2325                    6434 00102$:
                           6435 ;src/main.c:95: if(menuChoice==1)
   2325 7A            [ 4] 6436 	ld	a,d
   2326 3D            [ 4] 6437 	dec	a
   2327 20 12         [12] 6438 	jr	NZ,00106$
                           6439 ;src/main.c:96: drawWindow(windowCredit,3,0);
   2329 DD 4E FE      [19] 6440 	ld	c,-2 (ix)
   232C DD 46 FF      [19] 6441 	ld	b,-1 (ix)
   232F D5            [11] 6442 	push	de
   2330 21 03 00      [10] 6443 	ld	hl,#0x0003
   2333 E5            [11] 6444 	push	hl
   2334 C5            [11] 6445 	push	bc
   2335 CDrC1r0B      [17] 6446 	call	_drawWindow
   2338 F1            [10] 6447 	pop	af
   2339 F1            [10] 6448 	pop	af
   233A D1            [10] 6449 	pop	de
   233B                    6450 00106$:
                           6451 ;src/main.c:98: while(menuChoice!=2);
   233B 7A            [ 4] 6452 	ld	a,d
   233C D6 02         [ 7] 6453 	sub	a, #0x02
   233E 20 C8         [12] 6454 	jr	NZ,00105$
                           6455 ;src/main.c:100: cpct_setVideoMode(0);
   2340 AF            [ 4] 6456 	xor	a, a
   2341 F5            [11] 6457 	push	af
   2342 33            [ 6] 6458 	inc	sp
   2343 CDr00r00      [17] 6459 	call	_cpct_setVideoMode
   2346 33            [ 6] 6460 	inc	sp
                           6461 ;src/main.c:101: cpct_reenableFirmware(firmware);
   2347 DD 6E F4      [19] 6462 	ld	l,-12 (ix)
   234A DD 66 F5      [19] 6463 	ld	h,-11 (ix)
   234D CDr00r00      [17] 6464 	call	_cpct_reenableFirmware
   2350 DD F9         [10] 6465 	ld	sp, ix
   2352 DD E1         [14] 6466 	pop	ix
   2354 C9            [10] 6467 	ret
   2355                    6468 ___str_38:
   2355 4E 65 77 20 67 61  6469 	.ascii "New game"
        6D 65
   235D 00                 6470 	.db 0x00
   235E                    6471 ___str_39:
   235E 43 72 65 64 69 74  6472 	.ascii "Credits"
        73
   2365 00                 6473 	.db 0x00
   2366                    6474 ___str_40:
   2366 51 75 69 74        6475 	.ascii "Quit"
   236A 00                 6476 	.db 0x00
   236B                    6477 ___str_41:
   236B 52 61 69 6C 77 61  6478 	.ascii "Railways"
        79 73
   2373 00                 6479 	.db 0x00
   2374                    6480 ___str_42:
   2374 00                 6481 	.db 0x00
   2375                    6482 ___str_43:
   2375 54 72 65 77 64 62  6483 	.ascii "Trewdbal  Productions 2016"
        61 6C 20 20 50 72
        6F 64 75 63 74 69
        6F 6E 73 20 32 30
        31 36
   238F 00                 6484 	.db 0x00
                           6485 	.area _CODE
                           6486 	.area _INITIALIZER
   0000                    6487 __xinit__CURSOR_MODE:
   0000 00                 6488 	.db #0x00	; 0
                           6489 	.area _CABS (ABS)
